MPLINK 4.37, Linker
Linker Map File - Created Wed Jun 15 15:46:08 2016

                                 Section Info
                  Section       Type    Address   Location Size(Bytes)
                ---------  ---------  ---------  ---------  ---------
               _entry_scn       code   0x000000    program   0x000006
           .code___init.o       code   0x000006    program   0x000002
              high_vector       code   0x000008    program   0x000006
          .romdata_main.o    romdata   0x00000e    program   0x000006
              SEED_DATA_i    romdata   0x000014    program   0x000002
         .idata_c018i.o_i    romdata   0x000016    program   0x000000
        .idata___init.o_i    romdata   0x000016    program   0x000000
      .idata_fxd3232u.o_i    romdata   0x000016    program   0x000000
      .idata_fxd1616u.o_i    romdata   0x000016    program   0x000000
      .idata_fxd0808u.o_i    romdata   0x000016    program   0x000000
         .idata_flash.o_i    romdata   0x000016    program   0x000000
.idata_UDPPerformanceTest.o_i    romdata   0x000016    program   0x000000
           .idata_UDP.o_i    romdata   0x000016    program   0x000002
                lowVector       code   0x000018    program   0x000006
                   .cinit    romdata   0x00001e    program   0x00009e
      .romdata_MPFSImg2.o    romdata   0x0000bc    program   0x0042a2
              .code_TCP.o       code   0x00435e    program   0x003cfa
            .code_HTTP2.o       code   0x008058    program   0x001a94
             .code_main.o       code   0x009aec    program   0x00167a
    .code_CustomHTTPApp.o       code   0x00b166    program   0x00119c
      .code_BerkeleyAPI.o       code   0x00c302    program   0x000f62
             .code_gprs.o       code   0x00d264    program   0x000dee
          .code_Helpers.o       code   0x00e052    program   0x000d3a
            .code_MPFS2.o       code   0x00ed8c    program   0x000d02
              .code_UDP.o       code   0x00fa8e    program   0x000b80
         .code_ETH97J60.o       code   0x01060e    program   0x000b4e
             .code_DHCP.o       code   0x01115c    program   0x00082c
             .stringtable    romdata   0x011988    program   0x0006f7
      .romdata_PingDemo.o    romdata   0x01207f    program   0x000000
        .romdata_Reboot.o    romdata   0x01207f    program   0x000000
        .romdata_Telnet.o    romdata   0x01207f    program   0x000000
      .romdata_fxd0808u.o    romdata   0x01207f    program   0x000000
.romdata_TCPPerformanceTest.o    romdata   0x01207f    program   0x000000
      .romdata_fxd1616u.o    romdata   0x01207f    program   0x000000
     .romdata_SPIEEPROM.o    romdata   0x01207f    program   0x000000
   .romdata_BerkeleyAPI.o    romdata   0x01207f    program   0x000000
      .romdata_StackTsk.o    romdata   0x01207f    program   0x000000
       .romdata_ARCFOUR.o    romdata   0x01207f    program   0x000000
          .romdata_Tick.o    romdata   0x01207f    program   0x000000
        .romdata_DynDNS.o    romdata   0x01207f    program   0x000000
           .romdata_DNS.o    romdata   0x01207f    program   0x000000
          .romdata_DHCP.o    romdata   0x01207f    program   0x000000
         .romdata_Delay.o    romdata   0x01207f    program   0x000000
         .romdata_MPFS2.o    romdata   0x01207f    program   0x000000
 .romdata_CustomHTTPApp.o    romdata   0x01207f    program   0x000000
.romdata_BerkeleyTCPClient.o    romdata   0x01207f    program   0x000000
          .idata_uart.o_i    romdata   0x01207f    program   0x000000
          .idata_gprs.o_i    romdata   0x01207f    program   0x000001
          .romdata_gprs.o    romdata   0x01207f    program   0x000000
         .romdata_flash.o    romdata   0x01207f    program   0x000000
      .romdata_Announce.o    romdata   0x01207f    program   0x000000
         .romdata_c018i.o    romdata   0x01207f    program   0x000000
        .romdata_AutoIP.o    romdata   0x01207f    program   0x000000
        .romdata_BigInt.o    romdata   0x01207f    program   0x000000
      .romdata_ETH97J60.o    romdata   0x01207f    program   0x000000
        .romdata_Hashes.o    romdata   0x01207f    program   0x000000
       .romdata_Helpers.o    romdata   0x01207f    program   0x000000
          .romdata_ICMP.o    romdata   0x01207f    program   0x000000
        .romdata___init.o    romdata   0x01207f    program   0x000000
            .romdata_IP.o    romdata   0x01207f    program   0x000000
          .romdata_NBNS.o    romdata   0x01207f    program   0x000000
        .romdata_Random.o    romdata   0x01207f    program   0x000000
      .romdata_fxd3232u.o    romdata   0x01207f    program   0x000000
.romdata_UDPPerformanceTest.o    romdata   0x01207f    program   0x000000
           .romdata_ARP.o    romdata   0x01207f    program   0x000000
           .romdata_UDP.o    romdata   0x01207f    program   0x000000
              BIGINT_CODE       code   0x012080    program   0x0005bc
              .code_ARP.o       code   0x01263c    program   0x00046e
               .code_IP.o       code   0x012aaa    program   0x000310
                   STRING       code   0x012dba    program   0x000284
.code_BerkeleyTCPClient.o       code   0x01303e    program   0x000268
             .code_uart.o       code   0x0132a6    program   0x0001de
         .code_StackTsk.o       code   0x013484    program   0x00019a
                   STDLIB       code   0x01361e    program   0x000192
            .code_flash.o       code   0x0137b0    program   0x000186
             .code_Tick.o       code   0x013936    program   0x000114
                     PROG       code   0x013a4a    program   0x000102
               _cinit_scn       code   0x013b4c    program   0x00009e
         .romdata_HTTP2.o    romdata   0x013bea    program   0x000072
         .code_fxd3232u.o       code   0x013c5c    program   0x000048
         .code_fxd1616u.o       code   0x013ca4    program   0x00002c
                    .code       code   0x013cd0    program   0x00002c
              D1KTCYXCODE       code   0x013cfc    program   0x000020
             _startup_scn       code   0x013d1c    program   0x00001c
         .code_fxd0808u.o       code   0x013d38    program   0x00001c
           .romdata_TCP.o    romdata   0x013d54    program   0x000012
          .romdata_uart.o    romdata   0x013d66    program   0x000010
          .idata_main.o_i    romdata   0x013d76    program   0x0000bd
          .idata_Tick.o_i    romdata   0x013e33    program   0x000004
           .idata_TCP.o_i    romdata   0x013e37    program   0x000002
.idata_TCPPerformanceTest.o_i    romdata   0x013e37    program   0x000000
        .idata_Telnet.o_i    romdata   0x013e37    program   0x000000
      .idata_StackTsk.o_i    romdata   0x013e39    program   0x000001
      .idata_PingDemo.o_i    romdata   0x013e3a    program   0x000000
     .idata_SPIEEPROM.o_i    romdata   0x013e3a    program   0x000000
        .idata_Reboot.o_i    romdata   0x013e3a    program   0x000000
            .idata_IP.o_i    romdata   0x013e3a    program   0x000002
        .idata_Random.o_i    romdata   0x013e3a    program   0x000000
      .idata_MPFSImg2.o_i    romdata   0x013e3a    program   0x000000
          .idata_NBNS.o_i    romdata   0x013e3a    program   0x000000
         .idata_MPFS2.o_i    romdata   0x013e3a    program   0x000000
         .idata_Delay.o_i    romdata   0x013e3c    program   0x000000
      .idata_ETH97J60.o_i    romdata   0x013e3c    program   0x000000
        .idata_Hashes.o_i    romdata   0x013e3c    program   0x000000
        .idata_DynDNS.o_i    romdata   0x013e3c    program   0x000000
           .idata_DNS.o_i    romdata   0x013e3c    program   0x000000
         .idata_HTTP2.o_i    romdata   0x013e3c    program   0x000000
       .idata_Helpers.o_i    romdata   0x013e3c    program   0x000000
          .idata_DHCP.o_i    romdata   0x013e3c    program   0x000001
          .idata_ICMP.o_i    romdata   0x013e3c    program   0x000000
 .idata_CustomHTTPApp.o_i    romdata   0x013e3d    program   0x000004
.idata_BerkeleyTCPClient.o_i    romdata   0x013e41    program   0x000005
        .idata_BigInt.o_i    romdata   0x013e41    program   0x000000
   .idata_BerkeleyAPI.o_i    romdata   0x013e46    program   0x000002
      .idata_Announce.o_i    romdata   0x013e48    program   0x000000
        .idata_AutoIP.o_i    romdata   0x013e48    program   0x000000
           .idata_ARP.o_i    romdata   0x013e48    program   0x000001
       .idata_ARCFOUR.o_i    romdata   0x013e49    program   0x000000
            .code_c018i.o       code   0x013e4a    program   0x000000
           .code_AutoIP.o       code   0x013e4a    program   0x000000
           .code_BigInt.o       code   0x013e4a    program   0x000000
           .code_Hashes.o       code   0x013e4a    program   0x000000
             .code_ICMP.o       code   0x013e4a    program   0x000000
             .code_NBNS.o       code   0x013e4a    program   0x000000
           .code_Random.o       code   0x013e4a    program   0x000000
.code_UDPPerformanceTest.o       code   0x013e4a    program   0x000000
          .code_ARCFOUR.o       code   0x013e4a    program   0x000000
        .code_SPIEEPROM.o       code   0x013e4a    program   0x000000
.code_TCPPerformanceTest.o       code   0x013e4a    program   0x000000
           .code_Reboot.o       code   0x013e4a    program   0x000000
           .code_Telnet.o       code   0x013e4a    program   0x000000
         .code_PingDemo.o       code   0x013e4a    program   0x000000
           .code_DynDNS.o       code   0x013e4a    program   0x000000
              .code_DNS.o       code   0x013e4a    program   0x000000
            .code_Delay.o       code   0x013e4a    program   0x000000
         .code_MPFSImg2.o       code   0x013e4a    program   0x000000
         .code_Announce.o       code   0x013e4a    program   0x000000
     .config_1fff8_main.o    romdata   0x01fff8    program   0x000001
     .config_1fffa_main.o    romdata   0x01fffa    program   0x000001
     .config_1fffb_main.o    romdata   0x01fffb    program   0x000001
     .config_1fffd_main.o    romdata   0x01fffd    program   0x000001
                MATH_DATA      udata   0x000000       data   0x000014
                 .tmpdata      udata   0x000014       data   0x00000e
              HighISR_tmp      udata   0x000022       data   0x000002
                DELAYDAT1      udata   0x000024       data   0x000001
             .udata_TCP.o      udata   0x000060       data   0x000051
       SYN_QUEUE_RAM_SECT      udata   0x0000b1       data   0x00003c
              BIGINT_VARS      udata   0x0000ed       data   0x000013
            .udata_DHCP.o      udata   0x000100       data   0x00001c
             .udata_UDP.o      udata   0x00011c       data   0x00001a
   HTTP_CONNECTION_STATES      udata   0x000200       data   0x000082
           .udata_c018i.o      udata   0x000282       data   0x00000a
         .udata_Helpers.o      udata   0x00028c       data   0x000004
            .udata_Tick.o      udata   0x000290       data   0x000006
.idata_BerkeleyTCPClient.o      idata   0x000296       data   0x000005
     .udata_BerkeleyAPI.o      udata   0x00029b       data   0x000004
              .udata_IP.o      udata   0x00029f       data   0x000001
            .idata_Tick.o      idata   0x0002a0       data   0x000004
   .idata_CustomHTTPApp.o      idata   0x0002a4       data   0x000004
             .idata_UDP.o      idata   0x0002a8       data   0x000002
             .idata_TCP.o      idata   0x0002aa       data   0x000002
              .idata_IP.o      idata   0x0002ac       data   0x000002
     .idata_BerkeleyAPI.o      idata   0x0002ae       data   0x000002
        .idata_StackTsk.o      idata   0x0002b0       data   0x000001
            .idata_DHCP.o      idata   0x0002b1       data   0x000001
             .idata_ARP.o      idata   0x0002b2       data   0x000001
           .idata_Delay.o      idata   0x0002b3       data   0x000000
           .udata_Delay.o      udata   0x0002b3       data   0x000000
        .udata_fxd3232u.o      udata   0x0002b3       data   0x000000
        .idata_fxd3232u.o      idata   0x0002b3       data   0x000000
             .idata_DNS.o      idata   0x0002b3       data   0x000000
             .udata_DNS.o      udata   0x0002b3       data   0x000000
          .idata_DynDNS.o      idata   0x0002b3       data   0x000000
          .udata_DynDNS.o      udata   0x0002b3       data   0x000000
          .udata___init.o      udata   0x0002b3       data   0x000000
          .idata___init.o      idata   0x0002b3       data   0x000000
          .idata_Telnet.o      idata   0x0002b3       data   0x000000
           .idata_MPFS2.o      idata   0x0002b3       data   0x000000
        .idata_fxd1616u.o      idata   0x0002b3       data   0x000000
        .udata_fxd1616u.o      udata   0x0002b3       data   0x000000
           .udata_HTTP2.o      udata   0x0002b3       data   0x000000
           .idata_HTTP2.o      idata   0x0002b3       data   0x000000
        .idata_fxd0808u.o      idata   0x0002b3       data   0x000000
   .udata_CustomHTTPApp.o      udata   0x0002b3       data   0x000000
        .udata_fxd0808u.o      udata   0x0002b3       data   0x000000
           .idata_flash.o      idata   0x0002b3       data   0x000000
        .udata_MPFSImg2.o      udata   0x0002b3       data   0x000000
        .idata_MPFSImg2.o      idata   0x0002b3       data   0x000000
           .udata_flash.o      udata   0x0002b3       data   0x000000
            .idata_uart.o      idata   0x0002b3       data   0x000000
            .udata_uart.o      udata   0x0002b3       data   0x000000
          .udata_BigInt.o      udata   0x0002b3       data   0x000000
          .idata_AutoIP.o      idata   0x0002b3       data   0x000000
          .udata_AutoIP.o      udata   0x0002b3       data   0x000000
          .idata_BigInt.o      idata   0x0002b3       data   0x000000
        .idata_ETH97J60.o      idata   0x0002b3       data   0x000000
        .idata_Announce.o      idata   0x0002b3       data   0x000000
        .udata_Announce.o      udata   0x0002b3       data   0x000000
          .udata_Hashes.o      udata   0x0002b3       data   0x000000
          .idata_Hashes.o      idata   0x0002b3       data   0x000000
         .idata_Helpers.o      idata   0x0002b3       data   0x000000
        .idata_PingDemo.o      idata   0x0002b3       data   0x000000
            .udata_ICMP.o      udata   0x0002b3       data   0x000000
            .idata_ICMP.o      idata   0x0002b3       data   0x000000
            .udata_NBNS.o      udata   0x0002b3       data   0x000000
            .idata_NBNS.o      idata   0x0002b3       data   0x000000
          .udata_Random.o      udata   0x0002b3       data   0x000000
          .udata_Telnet.o      udata   0x0002b3       data   0x000000
          .idata_Reboot.o      idata   0x0002b3       data   0x000000
          .udata_Reboot.o      udata   0x0002b3       data   0x000000
.idata_TCPPerformanceTest.o      idata   0x0002b3       data   0x000000
.udata_TCPPerformanceTest.o      udata   0x0002b3       data   0x000000
       .idata_SPIEEPROM.o      idata   0x0002b3       data   0x000000
       .udata_SPIEEPROM.o      udata   0x0002b3       data   0x000000
         .idata_ARCFOUR.o      idata   0x0002b3       data   0x000000
         .udata_ARCFOUR.o      udata   0x0002b3       data   0x000000
.idata_UDPPerformanceTest.o      idata   0x0002b3       data   0x000000
           .idata_c018i.o      idata   0x0002b3       data   0x000000
.udata_UDPPerformanceTest.o      udata   0x0002b3       data   0x000000
        .udata_PingDemo.o      udata   0x0002b3       data   0x000000
          .idata_Random.o      idata   0x0002b3       data   0x000000
            .idata_main.o      idata   0x000310       data   0x0000bd
                 BSD_uRAM      udata   0x0003cd       data   0x00001e
             .udata_ARP.o      udata   0x0003eb       data   0x000014
            .idata_gprs.o      idata   0x0003ff       data   0x000001
                   .stack      udata   0x000500       data   0x000100
            .udata_main.o      udata   0x000600       data   0x000457
.udata_BerkeleyTCPClient.o      udata   0x000a57       data   0x000212
                 TCB_uRAM      udata   0x000e00       data   0x000054
            .udata_gprs.o      udata   0x000e54       data   0x000021
        .udata_StackTsk.o      udata   0x000e75       data   0x00000b
              SFR_BANKED0      udata   0x000e80       data   0x000006
              SFR_BANKED1      udata   0x000e8a       data   0x000001
              SFR_BANKED2      udata   0x000e97       data   0x000003
              SFR_BANKED3      udata   0x000ea0       data   0x000001
              SFR_BANKED4      udata   0x000ea2       data   0x000003
              SFR_BANKED5      udata   0x000ea6       data   0x000002
              SFR_BANKED6      udata   0x000eaa       data   0x000002
              SFR_BANKED7      udata   0x000eb2       data   0x000001
              SFR_BANKED8      udata   0x000eb4       data   0x000001
              SFR_BANKED9      udata   0x000eb6       data   0x000004
             SFR_BANKED10      udata   0x000ec0       data   0x000012
             SFR_BANKED11      udata   0x000ed4       data   0x000002
             SFR_BANKED12      udata   0x000ed8       data   0x000002
             SFR_BANKED13      udata   0x000ee2       data   0x000016
             SFR_BANKED14      udata   0x000efb       data   0x000001
             SFR_BANKED15      udata   0x000efd       data   0x000002
           .udata_MPFS2.o      udata   0x000f00       data   0x000057
        .udata_ETH97J60.o      udata   0x000f57       data   0x000007
                SEED_DATA      idata   0x000f5e       data   0x000002
            SFR_UNBANKED0      udata   0x000f60       data   0x0000a0



                              Program Memory Usage 
                               Start         End      
                           ---------   ---------      
                            0x000000    0x013e48      
                            0x01fff8    0x01fff8      
                            0x01fffa    0x01fffb      
                            0x01fffd    0x01fffd      
            81485 out of 131072 program addresses used, program memory utilization is 62%



                              Symbols - Sorted by Name
                     Name    Address   Location    Storage File                     
                ---------  ---------  ---------  --------- ---------                
                  ARPInit   0x0126f4    program     extern E:\Working\VMS\Source\Keil\VMS Controller\ICON V1.1\Network\TCPIP Stack\ARP.c
            ARPIsResolved   0x01294a    program     extern E:\Working\VMS\Source\Keil\VMS Controller\ICON V1.1\Network\TCPIP Stack\ARP.c
               ARPProcess   0x01270c    program     extern E:\Working\VMS\Source\Keil\VMS Controller\ICON V1.1\Network\TCPIP Stack\ARP.c
                   ARPPut   0x01263c    program     static E:\Working\VMS\Source\Keil\VMS Controller\ICON V1.1\Network\TCPIP Stack\ARP.c
               ARPResolve   0x0128a8    program     extern E:\Working\VMS\Source\Keil\VMS Controller\ICON V1.1\Network\TCPIP Stack\ARP.c
             Base64Decode   0x00e4e6    program     extern E:\Working\VMS\Source\Keil\VMS Controller\ICON V1.1\Network\TCPIP Stack\Helpers.c
       BerkeleySocketInit   0x00c302    program     extern E:\Working\VMS\Source\Keil\VMS Controller\ICON V1.1\Network\TCPIP Stack\BerkeleyAPI.c
        BerkeleyTCPClient   0x01303e    program     extern E:\Working\VMS\Source\Keil\VMS Controller\ICON V1.1\Network\BerkeleyTCPClient.c
     CalcIPBufferChecksum   0x010b30    program     extern E:\Working\VMS\Source\Keil\VMS Controller\ICON V1.1\Network\TCPIP Stack\ETH97J60.c
           CalcIPChecksum   0x00e932    program     extern E:\Working\VMS\Source\Keil\VMS Controller\ICON V1.1\Network\TCPIP Stack\Helpers.c
           CharacterArray   0x013d66    program     extern E:\Working\VMS\Source\Keil\VMS Controller\ICON V1.1\Network\uart.c
              CloseSocket   0x006068    program     static E:\Working\VMS\Source\Keil\VMS Controller\ICON V1.1\Network\TCPIP Stack\TCP.c
                   D0808S   0x013a60    program     static C:\MCC18\src\traditional\math\fxd0808s.asm
                D0808SNEG   0x013a6e    program     static C:\MCC18\src\traditional\math\fxd0808s.asm
                 D0808SOK   0x013a6a    program     static C:\MCC18\src\traditional\math\fxd0808s.asm
                  D0808SX   0x013a74    program     static C:\MCC18\src\traditional\math\fxd0808s.asm
                    D1K_1   0x013d08    program     static C:\MCC18\src\traditional\delays\d1ktcyx.asm
                     D1Kx   0x013d06    program     static C:\MCC18\src\traditional\delays\d1ktcyx.asm
                  DA0808S   0x013a56    program     static C:\MCC18\src\traditional\math\fxd0808s.asm
              DHCPDisable   0x011192    program     extern E:\Working\VMS\Source\Keil\VMS Controller\ICON V1.1\Network\TCPIP Stack\DHCP.c
               DHCPEnable   0x0111a2    program     extern E:\Working\VMS\Source\Keil\VMS Controller\ICON V1.1\Network\TCPIP Stack\DHCP.c
                 DHCPInit   0x01115c    program     extern E:\Working\VMS\Source\Keil\VMS Controller\ICON V1.1\Network\TCPIP Stack\DHCP.c
              DHCPIsBound   0x0111c6    program     extern E:\Working\VMS\Source\Keil\VMS Controller\ICON V1.1\Network\TCPIP Stack\DHCP.c
            DHCPIsEnabled   0x0111b4    program     extern E:\Working\VMS\Source\Keil\VMS Controller\ICON V1.1\Network\TCPIP Stack\DHCP.c
     DHCPIsServerDetected   0x0111e6    program     extern E:\Working\VMS\Source\Keil\VMS Controller\ICON V1.1\Network\TCPIP Stack\DHCP.c
         DHCPStateChanged   0x0111d2    program     extern E:\Working\VMS\Source\Keil\VMS Controller\ICON V1.1\Network\TCPIP Stack\DHCP.c
                 DHCPTask   0x0111f6    program     extern E:\Working\VMS\Source\Keil\VMS Controller\ICON V1.1\Network\TCPIP Stack\DHCP.c
              Delay1KTCYx   0x013cfc    program     extern C:\MCC18\src\traditional\delays\d1ktcyx.asm
                 FXD0808S   0x013a4a    program     extern C:\MCC18\src\traditional\math\fxd0808s.asm
                 FXD0808U   0x013d38    program     extern C:\MCC18\src\traditional\math\fxd0808u.c
                 FXD1616U   0x013ca4    program     extern C:\MCC18\src\traditional\math\fxd1616u.c
                 FXD3232U   0x013c5c    program     extern C:\MCC18\src\traditional\math\fxd3232u.c
                 FXM1616U   0x013a7e    program     extern C:\MCC18\src\traditional\math\fxm1616u.asm
                 FXM2424U   0x013aba    program     extern C:\MCC18\src\traditional\math\fxm2424u.asm
       FindMatchingSocket   0x005d6a    program     static E:\Working\VMS\Source\Keil\VMS Controller\ICON V1.1\Network\TCPIP Stack\TCP.c
       FindMatchingSocket   0x0101fe    program     static E:\Working\VMS\Source\Keil\VMS Controller\ICON V1.1\Network\TCPIP Stack\UDP.c
        FormatNetBIOSName   0x00ead8    program     extern E:\Working\VMS\Source\Keil\VMS Controller\ICON V1.1\Network\TCPIP Stack\Helpers.c
       GPRS_ConfigNetwork   0x00d366    program     extern E:\Working\VMS\Source\Keil\VMS Controller\ICON V1.1\Network\gprs.c
             GPRS_Connect   0x00d478    program     extern E:\Working\VMS\Source\Keil\VMS Controller\ICON V1.1\Network\gprs.c
     GPRS_MultiConnection   0x00d32c    program     extern E:\Working\VMS\Source\Keil\VMS Controller\ICON V1.1\Network\gprs.c
            GPRS_SendData   0x00d608    program     extern E:\Working\VMS\Source\Keil\VMS Controller\ICON V1.1\Network\gprs.c
      GenerateRandomDWORD   0x00e052    program     extern E:\Working\VMS\Source\Keil\VMS Controller\ICON V1.1\Network\TCPIP Stack\Helpers.c
              GetDateTime   0x00a368    program     extern E:\Working\VMS\Source\Keil\VMS Controller\ICON V1.1\Network\main.c
              GetHWConfig   0x00a43c    program     extern E:\Working\VMS\Source\Keil\VMS Controller\ICON V1.1\Network\main.c
          GetIMEIFromMain   0x00a3ee    program     extern E:\Working\VMS\Source\Keil\VMS Controller\ICON V1.1\Network\main.c
      GetMaxSegSizeOption   0x0060e6    program     static E:\Working\VMS\Source\Keil\VMS Controller\ICON V1.1\Network\TCPIP Stack\TCP.c
              GetTickCopy   0x013946    program     static E:\Working\VMS\Source\Keil\VMS Controller\ICON V1.1\Network\TCPIP Stack\Tick.c
               GetVersion   0x00a30c    program     extern E:\Working\VMS\Source\Keil\VMS Controller\ICON V1.1\Network\main.c
            HTTPCheckAuth   0x00b252    program     extern E:\Working\VMS\Source\Keil\VMS Controller\ICON V1.1\Network\CustomHTTPApp.c
           HTTPExecuteGet   0x00b33e    program     extern E:\Working\VMS\Source\Keil\VMS Controller\ICON V1.1\Network\CustomHTTPApp.c
          HTTPExecutePost   0x00b372    program     extern E:\Working\VMS\Source\Keil\VMS Controller\ICON V1.1\Network\CustomHTTPApp.c
               HTTPGetArg   0x0090d8    program     extern E:\Working\VMS\Source\Keil\VMS Controller\ICON V1.1\Network\TCPIP Stack\HTTP2.c
            HTTPGetROMArg   0x009114    program     extern E:\Working\VMS\Source\Keil\VMS Controller\ICON V1.1\Network\TCPIP Stack\HTTP2.c
HTTPHeaderParseAuthorization   0x008e36    program     static E:\Working\VMS\Source\Keil\VMS Controller\ICON V1.1\Network\TCPIP Stack\HTTP2.c
HTTPHeaderParseContentLength   0x008f3a    program     static E:\Working\VMS\Source\Keil\VMS Controller\ICON V1.1\Network\TCPIP Stack\HTTP2.c
    HTTPHeaderParseLookup   0x008e1e    program     static E:\Working\VMS\Source\Keil\VMS Controller\ICON V1.1\Network\TCPIP Stack\HTTP2.c
              HTTPIncFile   0x009320    program     extern E:\Working\VMS\Source\Keil\VMS Controller\ICON V1.1\Network\TCPIP Stack\HTTP2.c
                 HTTPInit   0x0083f0    program     extern E:\Working\VMS\Source\Keil\VMS Controller\ICON V1.1\Network\TCPIP Stack\HTTP2.c
             HTTPLoadConn   0x0084cc    program     static E:\Working\VMS\Source\Keil\VMS Controller\ICON V1.1\Network\TCPIP Stack\HTTP2.c
            HTTPNeedsAuth   0x00b248    program     extern E:\Working\VMS\Source\Keil\VMS Controller\ICON V1.1\Network\CustomHTTPApp.c
         HTTPPostChangePW   0x00b87e    program     static E:\Working\VMS\Source\Keil\VMS Controller\ICON V1.1\Network\CustomHTTPApp.c
         HTTPPostConfigDT   0x00b808    program     static E:\Working\VMS\Source\Keil\VMS Controller\ICON V1.1\Network\CustomHTTPApp.c
         HTTPPostConfigHW   0x00b706    program     static E:\Working\VMS\Source\Keil\VMS Controller\ICON V1.1\Network\CustomHTTPApp.c
         HTTPPostConfigNW   0x00b404    program     static E:\Working\VMS\Source\Keil\VMS Controller\ICON V1.1\Network\CustomHTTPApp.c
                HTTPPrint   0x008058    program     extern E:\Working\VMS\Source\Keil\VMS Controller\ICON V1.1\Network\HTTPPrint.h
              HTTPPrintIP   0x00ba1a    program     extern E:\Working\VMS\Source\Keil\VMS Controller\ICON V1.1\Network\CustomHTTPApp.c
               HTTPPrint_   0x0083e0    program     extern E:\Working\VMS\Source\Keil\VMS Controller\ICON V1.1\Network\HTTPPrint.h
  HTTPPrint_config_alport   0x00bcf2    program     extern E:\Working\VMS\Source\Keil\VMS Controller\ICON V1.1\Network\CustomHTTPApp.c
HTTPPrint_config_dhcpchecked   0x00bb26    program     extern E:\Working\VMS\Source\Keil\VMS Controller\ICON V1.1\Network\CustomHTTPApp.c
      HTTPPrint_config_gw   0x00bb4c    program     extern E:\Working\VMS\Source\Keil\VMS Controller\ICON V1.1\Network\CustomHTTPApp.c
  HTTPPrint_config_height   0x00bcb2    program     extern E:\Working\VMS\Source\Keil\VMS Controller\ICON V1.1\Network\CustomHTTPApp.c
  HTTPPrint_config_hostIP   0x00bae2    program     extern E:\Working\VMS\Source\Keil\VMS Controller\ICON V1.1\Network\CustomHTTPApp.c
    HTTPPrint_config_imei   0x00bbe8    program     extern E:\Working\VMS\Source\Keil\VMS Controller\ICON V1.1\Network\CustomHTTPApp.c
HTTPPrint_config_imei_disabled   0x00bb70    program     extern E:\Working\VMS\Source\Keil\VMS Controller\ICON V1.1\Network\CustomHTTPApp.c
      HTTPPrint_config_ip   0x00bb3a    program     extern E:\Working\VMS\Source\Keil\VMS Controller\ICON V1.1\Network\CustomHTTPApp.c
     HTTPPrint_config_mac   0x00bd08    program     extern E:\Working\VMS\Source\Keil\VMS Controller\ICON V1.1\Network\CustomHTTPApp.c
  HTTPPrint_config_opport   0x00bcdc    program     extern E:\Working\VMS\Source\Keil\VMS Controller\ICON V1.1\Network\CustomHTTPApp.c
  HTTPPrint_config_subnet   0x00bb5e    program     extern E:\Working\VMS\Source\Keil\VMS Controller\ICON V1.1\Network\CustomHTTPApp.c
    HTTPPrint_config_type   0x00bcc8    program     extern E:\Working\VMS\Source\Keil\VMS Controller\ICON V1.1\Network\CustomHTTPApp.c
   HTTPPrint_config_width   0x00bc9c    program     extern E:\Working\VMS\Source\Keil\VMS Controller\ICON V1.1\Network\CustomHTTPApp.c
           HTTPPrint_cpwd   0x00ba76    program     extern E:\Working\VMS\Source\Keil\VMS Controller\ICON V1.1\Network\CustomHTTPApp.c
           HTTPPrint_date   0x00bdd6    program     extern E:\Working\VMS\Source\Keil\VMS Controller\ICON V1.1\Network\CustomHTTPApp.c
         HTTPPrint_gprs_1   0x00be5a    program     extern E:\Working\VMS\Source\Keil\VMS Controller\ICON V1.1\Network\CustomHTTPApp.c
         HTTPPrint_gprs_2   0x00be6a    program     extern E:\Working\VMS\Source\Keil\VMS Controller\ICON V1.1\Network\CustomHTTPApp.c
           HTTPPrint_npwd   0x00ba74    program     extern E:\Working\VMS\Source\Keil\VMS Controller\ICON V1.1\Network\CustomHTTPApp.c
           HTTPPrint_opwd   0x00ba72    program     extern E:\Working\VMS\Source\Keil\VMS Controller\ICON V1.1\Network\CustomHTTPApp.c
         HTTPPrint_reboot   0x00bd5a    program     extern E:\Working\VMS\Source\Keil\VMS Controller\ICON V1.1\Network\CustomHTTPApp.c
         HTTPPrint_scan_1   0x00bd5c    program     extern E:\Working\VMS\Source\Keil\VMS Controller\ICON V1.1\Network\CustomHTTPApp.c
         HTTPPrint_scan_2   0x00bd6c    program     extern E:\Working\VMS\Source\Keil\VMS Controller\ICON V1.1\Network\CustomHTTPApp.c
         HTTPPrint_scan_3   0x00bd7e    program     extern E:\Working\VMS\Source\Keil\VMS Controller\ICON V1.1\Network\CustomHTTPApp.c
         HTTPPrint_scan_4   0x00bd90    program     extern E:\Working\VMS\Source\Keil\VMS Controller\ICON V1.1\Network\CustomHTTPApp.c
          HTTPPrint_sim_1   0x00bda2    program     extern E:\Working\VMS\Source\Keil\VMS Controller\ICON V1.1\Network\CustomHTTPApp.c
          HTTPPrint_sim_2   0x00bdb2    program     extern E:\Working\VMS\Source\Keil\VMS Controller\ICON V1.1\Network\CustomHTTPApp.c
          HTTPPrint_sim_3   0x00bdc4    program     extern E:\Working\VMS\Source\Keil\VMS Controller\ICON V1.1\Network\CustomHTTPApp.c
           HTTPPrint_time   0x00be20    program     extern E:\Working\VMS\Source\Keil\VMS Controller\ICON V1.1\Network\CustomHTTPApp.c
HTTPPrint_version_dipsplay   0x00bac8    program     extern E:\Working\VMS\Source\Keil\VMS Controller\ICON V1.1\Network\CustomHTTPApp.c
   HTTPPrint_version_main   0x00ba78    program     extern E:\Working\VMS\Source\Keil\VMS Controller\ICON V1.1\Network\CustomHTTPApp.c
HTTPPrint_version_network   0x00bab4    program     extern E:\Working\VMS\Source\Keil\VMS Controller\ICON V1.1\Network\CustomHTTPApp.c
              HTTPProcess   0x00851c    program     static E:\Working\VMS\Source\Keil\VMS Controller\ICON V1.1\Network\TCPIP Stack\HTTP2.c
         HTTPReadPostName   0x009164    program     extern E:\Working\VMS\Source\Keil\VMS Controller\ICON V1.1\Network\TCPIP Stack\HTTP2.c
        HTTPReadPostValue   0x009184    program     extern E:\Working\VMS\Source\Keil\VMS Controller\ICON V1.1\Network\TCPIP Stack\HTTP2.c
               HTTPReadTo   0x0091d0    program     static E:\Working\VMS\Source\Keil\VMS Controller\ICON V1.1\Network\TCPIP Stack\HTTP2.c
       HTTPRequestHeaders   0x013c53    program     static E:\Working\VMS\Source\Keil\VMS Controller\ICON V1.1\Network\TCPIP Stack\HTTP2.c
      HTTPResponseHeaders   0x013c35    program     static E:\Working\VMS\Source\Keil\VMS Controller\ICON V1.1\Network\TCPIP Stack\HTTP2.c
             HTTPSendFile   0x008cca    program     static E:\Working\VMS\Source\Keil\VMS Controller\ICON V1.1\Network\TCPIP Stack\HTTP2.c
               HTTPServer   0x008452    program     extern E:\Working\VMS\Source\Keil\VMS Controller\ICON V1.1\Network\TCPIP Stack\HTTP2.c
            HTTPURLDecode   0x008fae    program     extern E:\Working\VMS\Source\Keil\VMS Controller\ICON V1.1\Network\TCPIP Stack\HTTP2.c
                HTTP_CRLF   0x013bea    program     static E:\Working\VMS\Source\Keil\VMS Controller\ICON V1.1\Network\TCPIP Stack\HTTP2.c
HandlePossibleTCPDisconnection   0x00cdba    program     static E:\Working\VMS\Source\Keil\VMS Controller\ICON V1.1\Network\TCPIP Stack\BerkeleyAPI.c
             HandleTCPSeg   0x0061d0    program     static E:\Working\VMS\Source\Keil\VMS Controller\ICON V1.1\Network\TCPIP Stack\TCP.c
                  HighISR   0x009bb6    program     extern E:\Working\VMS\Source\Keil\VMS Controller\ICON V1.1\Network\main.c
               HighVector   0x000008    program     extern E:\Working\VMS\Source\Keil\VMS Controller\ICON V1.1\Network\main.c
                IP2String   0x00a70c    program     static E:\Working\VMS\Source\Keil\VMS Controller\ICON V1.1\Network\main.c
              IPGetHeader   0x012aaa    program     extern E:\Working\VMS\Source\Keil\VMS Controller\ICON V1.1\Network\TCPIP Stack\IP.c
              IPPutHeader   0x012bde    program     extern E:\Working\VMS\Source\Keil\VMS Controller\ICON V1.1\Network\TCPIP Stack\IP.c
            IPSetRxBuffer   0x012cd8    program     extern E:\Working\VMS\Source\Keil\VMS Controller\ICON V1.1\Network\TCPIP Stack\IP.c
            InitAppConfig   0x00a792    program     extern E:\Working\VMS\Source\Keil\VMS Controller\ICON V1.1\Network\main.c
             InitHWConfig   0x00aae6    program     extern E:\Working\VMS\Source\Keil\VMS Controller\ICON V1.1\Network\main.c
          InitUserProfile   0x00aa92    program     extern E:\Working\VMS\Source\Keil\VMS Controller\ICON V1.1\Network\main.c
                   LowISR   0x009b4c    program     extern E:\Working\VMS\Source\Keil\VMS Controller\ICON V1.1\Network\main.c
                LowVector   0x000018    program     extern E:\Working\VMS\Source\Keil\VMS Controller\ICON V1.1\Network\main.c
        MACCalcRxChecksum   0x010ae4    program     extern E:\Working\VMS\Source\Keil\VMS Controller\ICON V1.1\Network\TCPIP Stack\ETH97J60.c
             MACDiscardRx   0x010754    program     extern E:\Working\VMS\Source\Keil\VMS Controller\ICON V1.1\Network\TCPIP Stack\ETH97J60.c
                 MACFlush   0x010a64    program     extern E:\Working\VMS\Source\Keil\VMS Controller\ICON V1.1\Network\TCPIP Stack\ETH97J60.c
                   MACGet   0x010dfc    program     extern E:\Working\VMS\Source\Keil\VMS Controller\ICON V1.1\Network\TCPIP Stack\ETH97J60.c
              MACGetArray   0x010e00    program     extern E:\Working\VMS\Source\Keil\VMS Controller\ICON V1.1\Network\TCPIP Stack\ETH97J60.c
         MACGetFreeRxSize   0x0107ba    program     extern E:\Working\VMS\Source\Keil\VMS Controller\ICON V1.1\Network\TCPIP Stack\ETH97J60.c
             MACGetHeader   0x010880    program     extern E:\Working\VMS\Source\Keil\VMS Controller\ICON V1.1\Network\TCPIP Stack\ETH97J60.c
                  MACInit   0x01060e    program     extern E:\Working\VMS\Source\Keil\VMS Controller\ICON V1.1\Network\TCPIP Stack\ETH97J60.c
              MACIsLinked   0x010718    program     extern E:\Working\VMS\Source\Keil\VMS Controller\ICON V1.1\Network\TCPIP Stack\ETH97J60.c
         MACIsMemCopyDone   0x010df0    program     extern E:\Working\VMS\Source\Keil\VMS Controller\ICON V1.1\Network\TCPIP Stack\ETH97J60.c
             MACIsTxReady   0x01072c    program     extern E:\Working\VMS\Source\Keil\VMS Controller\ICON V1.1\Network\TCPIP Stack\ETH97J60.c
          MACMemCopyAsync   0x010ca4    program     extern E:\Working\VMS\Source\Keil\VMS Controller\ICON V1.1\Network\TCPIP Stack\ETH97J60.c
             MACPowerDown   0x010fb2    program     extern E:\Working\VMS\Source\Keil\VMS Controller\ICON V1.1\Network\TCPIP Stack\ETH97J60.c
               MACPowerUp   0x010fc4    program     extern E:\Working\VMS\Source\Keil\VMS Controller\ICON V1.1\Network\TCPIP Stack\ETH97J60.c
                   MACPut   0x010e60    program     extern E:\Working\VMS\Source\Keil\VMS Controller\ICON V1.1\Network\TCPIP Stack\ETH97J60.c
              MACPutArray   0x010e7a    program     extern E:\Working\VMS\Source\Keil\VMS Controller\ICON V1.1\Network\TCPIP Stack\ETH97J60.c
             MACPutHeader   0x010a06    program     extern E:\Working\VMS\Source\Keil\VMS Controller\ICON V1.1\Network\TCPIP Stack\ETH97J60.c
           MACPutROMArray   0x010ebe    program     extern E:\Working\VMS\Source\Keil\VMS Controller\ICON V1.1\Network\TCPIP Stack\ETH97J60.c
            MACSetReadPtr   0x010ac6    program     extern E:\Working\VMS\Source\Keil\VMS Controller\ICON V1.1\Network\TCPIP Stack\ETH97J60.c
        MACSetReadPtrInRx   0x010a8c    program     extern E:\Working\VMS\Source\Keil\VMS Controller\ICON V1.1\Network\TCPIP Stack\ETH97J60.c
           MACSetWritePtr   0x010aac    program     extern E:\Working\VMS\Source\Keil\VMS Controller\ICON V1.1\Network\TCPIP Stack\ETH97J60.c
                MPFSClose   0x00f08a    program     extern E:\Working\VMS\Source\Keil\VMS Controller\ICON V1.1\Network\TCPIP Stack\MPFS2.c
                  MPFSGet   0x00f0a6    program     extern E:\Working\VMS\Source\Keil\VMS Controller\ICON V1.1\Network\TCPIP Stack\MPFS2.c
             MPFSGetArray   0x00f13a    program     extern E:\Working\VMS\Source\Keil\VMS Controller\ICON V1.1\Network\TCPIP Stack\MPFS2.c
          MPFSGetBytesRem   0x00f468    program     extern E:\Working\VMS\Source\Keil\VMS Controller\ICON V1.1\Network\TCPIP Stack\MPFS2.c
           MPFSGetEndAddr   0x00f4ce    program     extern E:\Working\VMS\Source\Keil\VMS Controller\ICON V1.1\Network\TCPIP Stack\MPFS2.c
          MPFSGetFilename   0x00f51c    program     extern E:\Working\VMS\Source\Keil\VMS Controller\ICON V1.1\Network\TCPIP Stack\MPFS2.c
             MPFSGetFlags   0x00f40a    program     extern E:\Working\VMS\Source\Keil\VMS Controller\ICON V1.1\Network\TCPIP Stack\MPFS2.c
                MPFSGetID   0x00f5be    program     extern E:\Working\VMS\Source\Keil\VMS Controller\ICON V1.1\Network\TCPIP Stack\MPFS2.c
              MPFSGetLong   0x00f1ec    program     extern E:\Working\VMS\Source\Keil\VMS Controller\ICON V1.1\Network\TCPIP Stack\MPFS2.c
         MPFSGetMicrotime   0x00f3d8    program     extern E:\Working\VMS\Source\Keil\VMS Controller\ICON V1.1\Network\TCPIP Stack\MPFS2.c
          MPFSGetPosition   0x00f58c    program     extern E:\Working\VMS\Source\Keil\VMS Controller\ICON V1.1\Network\TCPIP Stack\MPFS2.c
              MPFSGetSize   0x00f436    program     extern E:\Working\VMS\Source\Keil\VMS Controller\ICON V1.1\Network\TCPIP Stack\MPFS2.c
         MPFSGetStartAddr   0x00f492    program     extern E:\Working\VMS\Source\Keil\VMS Controller\ICON V1.1\Network\TCPIP Stack\MPFS2.c
         MPFSGetTimestamp   0x00f3a6    program     extern E:\Working\VMS\Source\Keil\VMS Controller\ICON V1.1\Network\TCPIP Stack\MPFS2.c
                 MPFSInit   0x00ed8c    program     extern E:\Working\VMS\Source\Keil\VMS Controller\ICON V1.1\Network\TCPIP Stack\MPFS2.c
                 MPFSOpen   0x00edba    program     extern E:\Working\VMS\Source\Keil\VMS Controller\ICON V1.1\Network\TCPIP Stack\MPFS2.c
               MPFSOpenID   0x00f00e    program     extern E:\Working\VMS\Source\Keil\VMS Controller\ICON V1.1\Network\TCPIP Stack\MPFS2.c
              MPFSOpenROM   0x00eef2    program     extern E:\Working\VMS\Source\Keil\VMS Controller\ICON V1.1\Network\TCPIP Stack\MPFS2.c
                 MPFSSeek   0x00f220    program     extern E:\Working\VMS\Source\Keil\VMS Controller\ICON V1.1\Network\TCPIP Stack\MPFS2.c
              MPFS_000001   0x0004bc    program     extern E:\Working\VMS\Source\Keil\VMS Controller\ICON V1.1\Network\MPFSImg2.c
              MPFS_000002   0x0008bc    program     extern E:\Working\VMS\Source\Keil\VMS Controller\ICON V1.1\Network\MPFSImg2.c
              MPFS_000003   0x000cbc    program     extern E:\Working\VMS\Source\Keil\VMS Controller\ICON V1.1\Network\MPFSImg2.c
              MPFS_000004   0x0010bc    program     extern E:\Working\VMS\Source\Keil\VMS Controller\ICON V1.1\Network\MPFSImg2.c
              MPFS_000005   0x0014bc    program     extern E:\Working\VMS\Source\Keil\VMS Controller\ICON V1.1\Network\MPFSImg2.c
              MPFS_000006   0x0018bc    program     extern E:\Working\VMS\Source\Keil\VMS Controller\ICON V1.1\Network\MPFSImg2.c
              MPFS_000007   0x001cbc    program     extern E:\Working\VMS\Source\Keil\VMS Controller\ICON V1.1\Network\MPFSImg2.c
              MPFS_000008   0x0020bc    program     extern E:\Working\VMS\Source\Keil\VMS Controller\ICON V1.1\Network\MPFSImg2.c
              MPFS_000009   0x0024bc    program     extern E:\Working\VMS\Source\Keil\VMS Controller\ICON V1.1\Network\MPFSImg2.c
              MPFS_00000a   0x0028bc    program     extern E:\Working\VMS\Source\Keil\VMS Controller\ICON V1.1\Network\MPFSImg2.c
              MPFS_00000b   0x002cbc    program     extern E:\Working\VMS\Source\Keil\VMS Controller\ICON V1.1\Network\MPFSImg2.c
              MPFS_00000c   0x0030bc    program     extern E:\Working\VMS\Source\Keil\VMS Controller\ICON V1.1\Network\MPFSImg2.c
              MPFS_00000d   0x0034bc    program     extern E:\Working\VMS\Source\Keil\VMS Controller\ICON V1.1\Network\MPFSImg2.c
              MPFS_00000e   0x0038bc    program     extern E:\Working\VMS\Source\Keil\VMS Controller\ICON V1.1\Network\MPFSImg2.c
              MPFS_00000f   0x003cbc    program     extern E:\Working\VMS\Source\Keil\VMS Controller\ICON V1.1\Network\MPFSImg2.c
              MPFS_000010   0x0040bc    program     extern E:\Working\VMS\Source\Keil\VMS Controller\ICON V1.1\Network\MPFSImg2.c
               MPFS_Start   0x0000bc    program     extern E:\Working\VMS\Source\Keil\VMS Controller\ICON V1.1\Network\MPFSImg2.c
     ROMStringToIPAddress   0x00e414    program     extern E:\Working\VMS\Source\Keil\VMS Controller\ICON V1.1\Network\TCPIP Stack\Helpers.c
               ReadPHYReg   0x010f14    program     extern E:\Working\VMS\Source\Keil\VMS Controller\ICON V1.1\Network\TCPIP Stack\ETH97J60.c
              SIM_GetIMEI   0x00d770    program     extern E:\Working\VMS\Source\Keil\VMS Controller\ICON V1.1\Network\gprs.c
         SIM_PowerControl   0x00d81a    program     extern E:\Working\VMS\Source\Keil\VMS Controller\ICON V1.1\Network\gprs.c
              SIM_SendCmd   0x00da62    program     extern E:\Working\VMS\Source\Keil\VMS Controller\ICON V1.1\Network\gprs.c
            SaveAppConfig   0x00a8ca    program     extern E:\Working\VMS\Source\Keil\VMS Controller\ICON V1.1\Network\main.c
             SaveHWConfig   0x00a93e    program     extern E:\Working\VMS\Source\Keil\VMS Controller\ICON V1.1\Network\main.c
          SaveUserProfile   0x00a994    program     extern E:\Working\VMS\Source\Keil\VMS Controller\ICON V1.1\Network\main.c
                  SendTCP   0x005844    program     static E:\Working\VMS\Source\Keil\VMS Controller\ICON V1.1\Network\TCPIP Stack\TCP.c
     SerializedMACAddress   0x00000e    program     static E:\Working\VMS\Source\Keil\VMS Controller\ICON V1.1\Network\main.c
              SetDateTime   0x00a3ac    program     extern E:\Working\VMS\Source\Keil\VMS Controller\ICON V1.1\Network\main.c
              SetHWConfig   0x00a480    program     extern E:\Working\VMS\Source\Keil\VMS Controller\ICON V1.1\Network\main.c
        StackApplications   0x0135ec    program     extern E:\Working\VMS\Source\Keil\VMS Controller\ICON V1.1\Network\TCPIP Stack\StackTsk.c
                StackInit   0x013484    program     extern E:\Working\VMS\Source\Keil\VMS Controller\ICON V1.1\Network\TCPIP Stack\StackTsk.c
                StackTask   0x0134d8    program     extern E:\Working\VMS\Source\Keil\VMS Controller\ICON V1.1\Network\TCPIP Stack\StackTsk.c
        StringToIPAddress   0x00e356    program     extern E:\Working\VMS\Source\Keil\VMS Controller\ICON V1.1\Network\TCPIP Stack\Helpers.c
            SwapARPPacket   0x0129ec    program     extern E:\Working\VMS\Source\Keil\VMS Controller\ICON V1.1\Network\TCPIP Stack\ARP.c
             SwapIPHeader   0x012d06    program     static E:\Working\VMS\Source\Keil\VMS Controller\ICON V1.1\Network\TCPIP Stack\IP.c
            SwapTCPHeader   0x005fec    program     static E:\Working\VMS\Source\Keil\VMS Controller\ICON V1.1\Network\TCPIP Stack\TCP.c
                  SyncTCB   0x0043b4    program     static E:\Working\VMS\Source\Keil\VMS Controller\ICON V1.1\Network\TCPIP Stack\TCP.c
              SyncTCBStub   0x00435e    program     static E:\Working\VMS\Source\Keil\VMS Controller\ICON V1.1\Network\TCPIP Stack\TCP.c
        TCPAdjustFIFOSize   0x006c42    program     extern E:\Working\VMS\Source\Keil\VMS Controller\ICON V1.1\Network\TCPIP Stack\TCP.c
                 TCPClose   0x0047b2    program     extern E:\Working\VMS\Source\Keil\VMS Controller\ICON V1.1\Network\TCPIP Stack\TCP.c
               TCPDiscard   0x004b1a    program     extern E:\Working\VMS\Source\Keil\VMS Controller\ICON V1.1\Network\TCPIP Stack\TCP.c
            TCPDisconnect   0x004724    program     extern E:\Working\VMS\Source\Keil\VMS Controller\ICON V1.1\Network\TCPIP Stack\TCP.c
           TCPFindArrayEx   0x004e62    program     extern E:\Working\VMS\Source\Keil\VMS Controller\ICON V1.1\Network\TCPIP Stack\TCP.c
                TCPFindEx   0x00531c    program     extern E:\Working\VMS\Source\Keil\VMS Controller\ICON V1.1\Network\TCPIP Stack\TCP.c
        TCPFindROMArrayEx   0x0050d2    program     extern E:\Working\VMS\Source\Keil\VMS Controller\ICON V1.1\Network\TCPIP Stack\TCP.c
                 TCPFlush   0x0047f6    program     extern E:\Working\VMS\Source\Keil\VMS Controller\ICON V1.1\Network\TCPIP Stack\TCP.c
                   TCPGet   0x004b82    program     extern E:\Working\VMS\Source\Keil\VMS Controller\ICON V1.1\Network\TCPIP Stack\TCP.c
              TCPGetArray   0x004bf4    program     extern E:\Working\VMS\Source\Keil\VMS Controller\ICON V1.1\Network\TCPIP Stack\TCP.c
         TCPGetRemoteInfo   0x0047c6    program     extern E:\Working\VMS\Source\Keil\VMS Controller\ICON V1.1\Network\TCPIP Stack\TCP.c
         TCPGetRxFIFOFree   0x004d04    program     extern E:\Working\VMS\Source\Keil\VMS Controller\ICON V1.1\Network\TCPIP Stack\TCP.c
         TCPGetTxFIFOFull   0x004aee    program     extern E:\Working\VMS\Source\Keil\VMS Controller\ICON V1.1\Network\TCPIP Stack\TCP.c
                  TCPInit   0x004424    program     extern E:\Working\VMS\Source\Keil\VMS Controller\ICON V1.1\Network\TCPIP Stack\TCP.c
           TCPIsConnected   0x00470e    program     extern E:\Working\VMS\Source\Keil\VMS Controller\ICON V1.1\Network\TCPIP Stack\TCP.c
            TCPIsGetReady   0x004b3c    program     extern E:\Working\VMS\Source\Keil\VMS Controller\ICON V1.1\Network\TCPIP Stack\TCP.c
            TCPIsPutReady   0x004812    program     extern E:\Working\VMS\Source\Keil\VMS Controller\ICON V1.1\Network\TCPIP Stack\TCP.c
                  TCPOpen   0x0045c4    program     extern E:\Working\VMS\Source\Keil\VMS Controller\ICON V1.1\Network\TCPIP Stack\TCP.c
                  TCPPeek   0x004e3a    program     extern E:\Working\VMS\Source\Keil\VMS Controller\ICON V1.1\Network\TCPIP Stack\TCP.c
             TCPPeekArray   0x004d30    program     extern E:\Working\VMS\Source\Keil\VMS Controller\ICON V1.1\Network\TCPIP Stack\TCP.c
               TCPProcess   0x0056e8    program     extern E:\Working\VMS\Source\Keil\VMS Controller\ICON V1.1\Network\TCPIP Stack\TCP.c
                   TCPPut   0x004876    program     extern E:\Working\VMS\Source\Keil\VMS Controller\ICON V1.1\Network\TCPIP Stack\TCP.c
              TCPPutArray   0x00490c    program     extern E:\Working\VMS\Source\Keil\VMS Controller\ICON V1.1\Network\TCPIP Stack\TCP.c
           TCPPutROMArray   0x00499e    program     extern E:\Working\VMS\Source\Keil\VMS Controller\ICON V1.1\Network\TCPIP Stack\TCP.c
          TCPPutROMString   0x004a8c    program     extern E:\Working\VMS\Source\Keil\VMS Controller\ICON V1.1\Network\TCPIP Stack\TCP.c
             TCPPutString   0x004a36    program     extern E:\Working\VMS\Source\Keil\VMS Controller\ICON V1.1\Network\TCPIP Stack\TCP.c
               TCPRAMCopy   0x006df2    program     static E:\Working\VMS\Source\Keil\VMS Controller\ICON V1.1\Network\TCPIP Stack\TCP.c
            TCPRAMCopyROM   0x006e8a    program     static E:\Working\VMS\Source\Keil\VMS Controller\ICON V1.1\Network\TCPIP Stack\TCP.c
     TCPSocketInitializer   0x013d54    program     extern E:\Working\VMS\Source\Keil\VMS Controller\ICON V1.1\Network\TCPIPConfig.h
                  TCPTick   0x00534c    program     extern E:\Working\VMS\Source\Keil\VMS Controller\ICON V1.1\Network\TCPIP Stack\TCP.c
              TCPWasReset   0x0046f8    program     extern E:\Working\VMS\Source\Keil\VMS Controller\ICON V1.1\Network\TCPIP Stack\TCP.c
TickConvertToMilliseconds   0x0139c8    program     extern E:\Working\VMS\Source\Keil\VMS Controller\ICON V1.1\Network\TCPIP Stack\Tick.c
                  TickGet   0x01396c    program     extern E:\Working\VMS\Source\Keil\VMS Controller\ICON V1.1\Network\TCPIP Stack\Tick.c
            TickGetDiv256   0x013980    program     extern E:\Working\VMS\Source\Keil\VMS Controller\ICON V1.1\Network\TCPIP Stack\Tick.c
            TickGetDiv64K   0x0139a4    program     extern E:\Working\VMS\Source\Keil\VMS Controller\ICON V1.1\Network\TCPIP Stack\Tick.c
                 TickInit   0x013936    program     extern E:\Working\VMS\Source\Keil\VMS Controller\ICON V1.1\Network\TCPIP Stack\Tick.c
               TickUpdate   0x013a04    program     extern E:\Working\VMS\Source\Keil\VMS Controller\ICON V1.1\Network\TCPIP Stack\Tick.c
                 UDPClose   0x00fba8    program     extern E:\Working\VMS\Source\Keil\VMS Controller\ICON V1.1\Network\TCPIP Stack\UDP.c
               UDPDiscard   0x010074    program     extern E:\Working\VMS\Source\Keil\VMS Controller\ICON V1.1\Network\TCPIP Stack\UDP.c
                 UDPFlush   0x00fe2c    program     extern E:\Working\VMS\Source\Keil\VMS Controller\ICON V1.1\Network\TCPIP Stack\UDP.c
                   UDPGet   0x00ffd4    program     extern E:\Working\VMS\Source\Keil\VMS Controller\ICON V1.1\Network\TCPIP Stack\UDP.c
              UDPGetArray   0x010008    program     extern E:\Working\VMS\Source\Keil\VMS Controller\ICON V1.1\Network\TCPIP Stack\UDP.c
                  UDPInit   0x00fa8e    program     extern E:\Working\VMS\Source\Keil\VMS Controller\ICON V1.1\Network\TCPIP Stack\UDP.c
            UDPIsGetReady   0x00ffa0    program     extern E:\Working\VMS\Source\Keil\VMS Controller\ICON V1.1\Network\TCPIP Stack\UDP.c
            UDPIsPutReady   0x00fc44    program     extern E:\Working\VMS\Source\Keil\VMS Controller\ICON V1.1\Network\TCPIP Stack\UDP.c
                  UDPOpen   0x00fab8    program     extern E:\Working\VMS\Source\Keil\VMS Controller\ICON V1.1\Network\TCPIP Stack\UDP.c
               UDPProcess   0x01008e    program     extern E:\Working\VMS\Source\Keil\VMS Controller\ICON V1.1\Network\TCPIP Stack\UDP.c
                   UDPPut   0x00fca0    program     extern E:\Working\VMS\Source\Keil\VMS Controller\ICON V1.1\Network\TCPIP Stack\UDP.c
              UDPPutArray   0x00fcec    program     extern E:\Working\VMS\Source\Keil\VMS Controller\ICON V1.1\Network\TCPIP Stack\UDP.c
           UDPPutROMArray   0x00fd18    program     extern E:\Working\VMS\Source\Keil\VMS Controller\ICON V1.1\Network\TCPIP Stack\UDP.c
          UDPPutROMString   0x00fdd6    program     extern E:\Working\VMS\Source\Keil\VMS Controller\ICON V1.1\Network\TCPIP Stack\UDP.c
             UDPPutString   0x00fd80    program     extern E:\Working\VMS\Source\Keil\VMS Controller\ICON V1.1\Network\TCPIP Stack\UDP.c
           UDPSetRxBuffer   0x00fc24    program     extern E:\Working\VMS\Source\Keil\VMS Controller\ICON V1.1\Network\TCPIP Stack\UDP.c
           UDPSetTxBuffer   0x00fbda    program     extern E:\Working\VMS\Source\Keil\VMS Controller\ICON V1.1\Network\TCPIP Stack\UDP.c
                  UDPTask   0x00fab2    program     extern E:\Working\VMS\Source\Keil\VMS Controller\ICON V1.1\Network\TCPIP Stack\UDP.c
              WritePHYReg   0x010f6e    program     extern E:\Working\VMS\Source\Keil\VMS Controller\ICON V1.1\Network\TCPIP Stack\ETH97J60.c
                  _14jEnd   0x01373c    program     static C:\MCC18\src\traditional\stdclib\atol.asm
              _2jContinue   0x012eb4    program     static C:\MCC18\src\traditional\stdclib\memset.asm
                   _2jEnd   0x012ffe    program     static C:\MCC18\src\traditional\stdclib\slenpgm.asm
              _3jContinue   0x012de4    program     static C:\MCC18\src\traditional\stdclib\mcmpp2r.asm
              _3jContinue   0x012e80    program     static C:\MCC18\src\traditional\stdclib\mcpyp2r.asm
                   _3jEnd   0x012ebe    program     static C:\MCC18\src\traditional\stdclib\memset.asm
              _4jContinue   0x012e2c    program     static C:\MCC18\src\traditional\stdclib\memcpy.asm
                   _4jEnd   0x012e8a    program     static C:\MCC18\src\traditional\stdclib\mcpyp2r.asm
                   _4jEnd   0x012dee    program     static C:\MCC18\src\traditional\stdclib\mcmpp2r.asm
                   _5jEnd   0x012e36    program     static C:\MCC18\src\traditional\stdclib\memcpy.asm
        _D1KTCYXCODE_0010   0x013d0c    program     static C:\MCC18\src\traditional\delays\d1ktcyx.asm
        _D1KTCYXCODE_0016   0x013d12    program     static C:\MCC18\src\traditional\delays\d1ktcyx.asm
             _DHCPReceive   0x0113ba    program     static E:\Working\VMS\Source\Keil\VMS Controller\ICON V1.1\Network\TCPIP Stack\DHCP.c
                _DHCPSend   0x011646    program     static E:\Working\VMS\Source\Keil\VMS Controller\ICON V1.1\Network\TCPIP Stack\DHCP.c
           _LoadFATRecord   0x00f324    program     static E:\Working\VMS\Source\Keil\VMS Controller\ICON V1.1\Network\TCPIP Stack\MPFS2.c
                _Validate   0x00f5d6    program     static E:\Working\VMS\Source\Keil\VMS Controller\ICON V1.1\Network\TCPIP Stack\MPFS2.c
           ___do_lbl00002   0x013964    program     static                          
           ___do_lbl00003   0x013968    program     static                          
           ___do_lbl00004   0x013946    program     static                          
           ___do_lbl00117   0x00a57e    program     static                          
           ___do_lbl00118   0x00a57e    program     static                          
           ___do_lbl00121   0x00a54c    program     static                          
           ___do_lbl00124   0x00a5e4    program     static                          
           ___do_lbl00125   0x00a5e4    program     static                          
           ___do_lbl00128   0x00a5b2    program     static                          
         ___else_lbl00039   0x009dee    program     static                          
         ___else_lbl00046   0x009ed6    program     static                          
         ___else_lbl00049   0x009f8c    program     static                          
         ___else_lbl00052   0x00a034    program     static                          
         ___else_lbl00055   0x009ff4    program     static                          
         ___else_lbl00057   0x009f1c    program     static                          
         ___else_lbl00059   0x009eb8    program     static                          
         ___else_lbl00066   0x00a184    program     static                          
         ___else_lbl00072   0x00a222    program     static                          
          ___for_lbl00001   0x0132f6    program     static                          
          ___for_lbl00002   0x01385e    program     static                          
          ___for_lbl00002   0x013300    program     static                          
          ___for_lbl00003   0x013868    program     static                          
          ___for_lbl00003   0x0132e2    program     static                          
          ___for_lbl00004   0x013808    program     static                          
          ___for_lbl00007   0x013904    program     static                          
          ___for_lbl00008   0x013908    program     static                          
          ___for_lbl00009   0x0138d8    program     static                          
          ___for_lbl00020   0x0133be    program     static                          
          ___for_lbl00021   0x0133c8    program     static                          
          ___for_lbl00022   0x0133aa    program     static                          
          ___for_lbl00026   0x009d5e    program     static                          
          ___for_lbl00027   0x009d72    program     static                          
          ___for_lbl00028   0x009d30    program     static                          
          ___for_lbl00029   0x009da8    program     static                          
          ___for_lbl00030   0x009dbc    program     static                          
          ___for_lbl00031   0x009d86    program     static                          
          ___for_lbl00060   0x00a0ae    program     static                          
          ___for_lbl00061   0x00a0c2    program     static                          
          ___for_lbl00062   0x00a074    program     static                          
          ___for_lbl00122   0x00ea94    program     static                          
          ___for_lbl00123   0x00ea9a    program     static                          
          ___for_lbl00124   0x00ea76    program     static                          
          ___for_lbl00125   0x00eaae    program     static                          
          ___for_lbl00126   0x00eab2    program     static                          
          ___for_lbl00127   0x00ea9a    program     static                          
           ___if_lbl00005   0x00e23e    program     static                          
           ___if_lbl00006   0x00e25c    program     static                          
           ___if_lbl00007   0x00e2f2    program     static                          
           ___if_lbl00008   0x00e2f8    program     static                          
           ___if_lbl00020   0x010896    program     static                          
           ___if_lbl00021   0x0108a2    program     static                          
           ___if_lbl00027   0x01096e    program     static                          
           ___if_lbl00030   0x0109e6    program     static                          
           ___if_lbl00032   0x009dca    program     static                          
           ___if_lbl00036   0x009e46    program     static                          
           ___if_lbl00037   0x009e50    program     static                          
           ___if_lbl00038   0x009e50    program     static                          
           ___if_lbl00040   0x009e7e    program     static                          
           ___if_lbl00041   0x009e9c    program     static                          
           ___if_lbl00042   0x009eb6    program     static                          
           ___if_lbl00044   0x009f14    program     static                          
           ___if_lbl00045   0x009f14    program     static                          
           ___if_lbl00047   0x009ff2    program     static                          
           ___if_lbl00048   0x009ff2    program     static                          
           ___if_lbl00050   0x00a068    program     static                          
           ___if_lbl00051   0x00a068    program     static                          
           ___if_lbl00053   0x00a068    program     static                          
           ___if_lbl00054   0x00a068    program     static                          
           ___if_lbl00056   0x00a068    program     static                          
           ___if_lbl00058   0x00a068    program     static                          
           ___if_lbl00063   0x00a0cc    program     static                          
           ___if_lbl00065   0x00a190    program     static                          
           ___if_lbl00070   0x00a220    program     static                          
           ___if_lbl00071   0x00a256    program     static                          
           ___if_lbl00073   0x00a256    program     static                          
           ___if_lbl00074   0x00a28e    program     static                          
           ___if_lbl00075   0x00a28e    program     static                          
           ___if_lbl00076   0x00a28e    program     static                          
           ___if_lbl00078   0x00a2b2    program     static                          
           ___if_lbl00079   0x00a2e4    program     static                          
           ___if_lbl00080   0x00a2f6    program     static                          
           ___if_lbl00122   0x00a5a0    program     static                          
           ___if_lbl00123   0x00a5a0    program     static                          
           ___if_lbl00131   0x00a672    program     static                          
           ___if_lbl00132   0x00a672    program     static                          
       ___return_lbl00000   0x013ca2    program     static                          
       ___return_lbl00000   0x0137d8    program     static                          
       ___return_lbl00000   0x013cce    program     static                          
       ___return_lbl00000   0x013d52    program     static                          
       ___return_lbl00000   0x013300    program     static                          
       ___return_lbl00000   0x00e342    program     static                          
       ___return_lbl00000   0x000004    program     static                          
       ___return_lbl00000   0x01070e    program     static                          
       ___return_lbl00001   0x013868    program     static                          
       ___return_lbl00001   0x013d36    program     static                          
       ___return_lbl00001   0x01396a    program     static                          
       ___return_lbl00002   0x013be8    program     static                          
       ___return_lbl00004   0x00001c    program     static                          
       ___return_lbl00005   0x0138aa    program     static                          
       ___return_lbl00005   0x00000c    program     static                          
       ___return_lbl00006   0x013922    program     static                          
       ___return_lbl00019   0x0133c8    program     static                          
       ___return_lbl00019   0x0109ee    program     static                          
       ___return_lbl00025   0x00a2f8    program     static                          
       ___return_lbl00079   0x010e72    program     static                          
       ___return_lbl00080   0x010eb6    program     static                          
       ___return_lbl00083   0x010f0c    program     static                          
       ___return_lbl00086   0x010f5a    program     static                          
       ___return_lbl00089   0x010fa8    program     static                          
       ___return_lbl00111   0x00a67e    program     static                          
       ___return_lbl00121   0x00eac4    program     static                          
        ___while_lbl00001   0x010620    program     static                          
        ___while_lbl00001   0x00e0d2    program     static                          
        ___while_lbl00002   0x00e2fa    program     static                          
        ___while_lbl00002   0x010626    program     static                          
        ___while_lbl00003   0x00e0da    program     static                          
        ___while_lbl00004   0x00e0de    program     static                          
        ___while_lbl00010   0x01391a    program     static                          
        ___while_lbl00011   0x01391e    program     static                          
        ___while_lbl00033   0x009dd0    program     static                          
        ___while_lbl00034   0x00a2f8    program     static                          
        ___while_lbl00067   0x00a1a6    program     static                          
        ___while_lbl00068   0x00a1e6    program     static                          
        ___while_lbl00081   0x010e82    program     static                          
        ___while_lbl00082   0x010eb6    program     static                          
        ___while_lbl00084   0x010ec6    program     static                          
        ___while_lbl00085   0x010f0c    program     static                          
        ___while_lbl00087   0x010f30    program     static                          
        ___while_lbl00088   0x010f36    program     static                          
        ___while_lbl00090   0x010fa2    program     static                          
        ___while_lbl00091   0x010fa8    program     static                          
        ___while_lbl00112   0x00a4e8    program     static                          
        ___while_lbl00113   0x00a5e6    program     static                          
        ___while_lbl00114   0x00a516    program     static                          
        ___while_lbl00115   0x00a580    program     static                          
        ___while_lbl00119   0x00a55a    program     static                          
        ___while_lbl00120   0x00a57e    program     static                          
        ___while_lbl00126   0x00a5c0    program     static                          
        ___while_lbl00127   0x00a5e4    program     static                          
               __config_0   0x01fff8    program     static E:\Working\VMS\Source\Keil\VMS Controller\ICON V1.1\Network\main.c
               __config_1   0x01fffa    program     static E:\Working\VMS\Source\Keil\VMS Controller\ICON V1.1\Network\main.c
               __config_2   0x01fffb    program     static E:\Working\VMS\Source\Keil\VMS Controller\ICON V1.1\Network\main.c
               __config_3   0x01fffd    program     static E:\Working\VMS\Source\Keil\VMS Controller\ICON V1.1\Network\main.c
                   __init   0x000006    program     extern C:\MCC18\src\traditional\stdclib\__init.c
                   __pa_0   0x009402    program     static E:\Working\VMS\Source\Keil\VMS Controller\ICON V1.1\Network\TCPIP Stack\HTTP2.c
                   __pa_0   0x00ce42    program     static E:\Working\VMS\Source\Keil\VMS Controller\ICON V1.1\Network\TCPIP Stack\BerkeleyAPI.c
                   __pa_0   0x00be7a    program     static E:\Working\VMS\Source\Keil\VMS Controller\ICON V1.1\Network\CustomHTTPApp.c
                   __pa_0   0x013228    program     static E:\Working\VMS\Source\Keil\VMS Controller\ICON V1.1\Network\BerkeleyTCPClient.c
                   __pa_0   0x0135f8    program     static E:\Working\VMS\Source\Keil\VMS Controller\ICON V1.1\Network\TCPIP Stack\StackTsk.c
                   __pa_0   0x010334    program     static E:\Working\VMS\Source\Keil\VMS Controller\ICON V1.1\Network\TCPIP Stack\UDP.c
                   __pa_0   0x00f632    program     static E:\Working\VMS\Source\Keil\VMS Controller\ICON V1.1\Network\TCPIP Stack\MPFS2.c
                   __pa_0   0x013a18    program     static E:\Working\VMS\Source\Keil\VMS Controller\ICON V1.1\Network\TCPIP Stack\Tick.c
                   __pa_0   0x013438    program     static E:\Working\VMS\Source\Keil\VMS Controller\ICON V1.1\Network\uart.c
                   __pa_0   0x0117c0    program     static E:\Working\VMS\Source\Keil\VMS Controller\ICON V1.1\Network\TCPIP Stack\DHCP.c
                   __pa_0   0x00dd54    program     static E:\Working\VMS\Source\Keil\VMS Controller\ICON V1.1\Network\gprs.c
                   __pa_0   0x006f44    program     static E:\Working\VMS\Source\Keil\VMS Controller\ICON V1.1\Network\TCPIP Stack\TCP.c
                   __pa_0   0x00ac3c    program     static E:\Working\VMS\Source\Keil\VMS Controller\ICON V1.1\Network\main.c
                   __pa_0   0x012d24    program     static E:\Working\VMS\Source\Keil\VMS Controller\ICON V1.1\Network\TCPIP Stack\IP.c
                   __pa_0   0x00eb60    program     static E:\Working\VMS\Source\Keil\VMS Controller\ICON V1.1\Network\TCPIP Stack\Helpers.c
                   __pa_0   0x010fd2    program     static E:\Working\VMS\Source\Keil\VMS Controller\ICON V1.1\Network\TCPIP Stack\ETH97J60.c
                   __pa_0   0x012a14    program     static E:\Working\VMS\Source\Keil\VMS Controller\ICON V1.1\Network\TCPIP Stack\ARP.c
                   __pa_1   0x00ac72    program     static E:\Working\VMS\Source\Keil\VMS Controller\ICON V1.1\Network\main.c
                   __pa_1   0x0117cc    program     static E:\Working\VMS\Source\Keil\VMS Controller\ICON V1.1\Network\TCPIP Stack\DHCP.c
                   __pa_1   0x00940c    program     static E:\Working\VMS\Source\Keil\VMS Controller\ICON V1.1\Network\TCPIP Stack\HTTP2.c
                   __pa_1   0x00f646    program     static E:\Working\VMS\Source\Keil\VMS Controller\ICON V1.1\Network\TCPIP Stack\MPFS2.c
                   __pa_1   0x006f6c    program     static E:\Working\VMS\Source\Keil\VMS Controller\ICON V1.1\Network\TCPIP Stack\TCP.c
                   __pa_1   0x012a22    program     static E:\Working\VMS\Source\Keil\VMS Controller\ICON V1.1\Network\TCPIP Stack\ARP.c
                   __pa_1   0x00eb7c    program     static E:\Working\VMS\Source\Keil\VMS Controller\ICON V1.1\Network\TCPIP Stack\Helpers.c
                   __pa_1   0x00be98    program     static E:\Working\VMS\Source\Keil\VMS Controller\ICON V1.1\Network\CustomHTTPApp.c
                   __pa_1   0x00ce62    program     static E:\Working\VMS\Source\Keil\VMS Controller\ICON V1.1\Network\TCPIP Stack\BerkeleyAPI.c
                   __pa_1   0x013608    program     static E:\Working\VMS\Source\Keil\VMS Controller\ICON V1.1\Network\TCPIP Stack\StackTsk.c
                   __pa_1   0x012d46    program     static E:\Working\VMS\Source\Keil\VMS Controller\ICON V1.1\Network\TCPIP Stack\IP.c
                   __pa_1   0x013a32    program     static E:\Working\VMS\Source\Keil\VMS Controller\ICON V1.1\Network\TCPIP Stack\Tick.c
                   __pa_1   0x01035c    program     static E:\Working\VMS\Source\Keil\VMS Controller\ICON V1.1\Network\TCPIP Stack\UDP.c
                   __pa_1   0x00dd6e    program     static E:\Working\VMS\Source\Keil\VMS Controller\ICON V1.1\Network\gprs.c
                   __pa_1   0x013254    program     static E:\Working\VMS\Source\Keil\VMS Controller\ICON V1.1\Network\BerkeleyTCPClient.c
                   __pa_1   0x010fee    program     static E:\Working\VMS\Source\Keil\VMS Controller\ICON V1.1\Network\TCPIP Stack\ETH97J60.c
                   __pa_1   0x013462    program     static E:\Working\VMS\Source\Keil\VMS Controller\ICON V1.1\Network\uart.c
                  __pa_10   0x00ada8    program     static E:\Working\VMS\Source\Keil\VMS Controller\ICON V1.1\Network\main.c
                  __pa_10   0x009512    program     static E:\Working\VMS\Source\Keil\VMS Controller\ICON V1.1\Network\TCPIP Stack\HTTP2.c
                  __pa_10   0x00708e    program     static E:\Working\VMS\Source\Keil\VMS Controller\ICON V1.1\Network\TCPIP Stack\TCP.c
                  __pa_10   0x00cee6    program     static E:\Working\VMS\Source\Keil\VMS Controller\ICON V1.1\Network\TCPIP Stack\BerkeleyAPI.c
                  __pa_10   0x00bf4e    program     static E:\Working\VMS\Source\Keil\VMS Controller\ICON V1.1\Network\CustomHTTPApp.c
                  __pa_10   0x0103e2    program     static E:\Working\VMS\Source\Keil\VMS Controller\ICON V1.1\Network\TCPIP Stack\UDP.c
                  __pa_10   0x00dde8    program     static E:\Working\VMS\Source\Keil\VMS Controller\ICON V1.1\Network\gprs.c
                  __pa_10   0x012aa0    program     static E:\Working\VMS\Source\Keil\VMS Controller\ICON V1.1\Network\TCPIP Stack\ARP.c
                  __pa_10   0x01105a    program     static E:\Working\VMS\Source\Keil\VMS Controller\ICON V1.1\Network\TCPIP Stack\ETH97J60.c
                  __pa_10   0x00ec3c    program     static E:\Working\VMS\Source\Keil\VMS Controller\ICON V1.1\Network\TCPIP Stack\Helpers.c
                  __pa_10   0x0118a6    program     static E:\Working\VMS\Source\Keil\VMS Controller\ICON V1.1\Network\TCPIP Stack\DHCP.c
                  __pa_10   0x00f710    program     static E:\Working\VMS\Source\Keil\VMS Controller\ICON V1.1\Network\TCPIP Stack\MPFS2.c
                 __pa_100   0x007654    program     static E:\Working\VMS\Source\Keil\VMS Controller\ICON V1.1\Network\TCPIP Stack\TCP.c
                 __pa_100   0x009986    program     static E:\Working\VMS\Source\Keil\VMS Controller\ICON V1.1\Network\TCPIP Stack\HTTP2.c
                 __pa_101   0x007664    program     static E:\Working\VMS\Source\Keil\VMS Controller\ICON V1.1\Network\TCPIP Stack\TCP.c
                 __pa_101   0x009990    program     static E:\Working\VMS\Source\Keil\VMS Controller\ICON V1.1\Network\TCPIP Stack\HTTP2.c
                 __pa_102   0x0099a0    program     static E:\Working\VMS\Source\Keil\VMS Controller\ICON V1.1\Network\TCPIP Stack\HTTP2.c
                 __pa_102   0x007670    program     static E:\Working\VMS\Source\Keil\VMS Controller\ICON V1.1\Network\TCPIP Stack\TCP.c
                 __pa_103   0x0099ae    program     static E:\Working\VMS\Source\Keil\VMS Controller\ICON V1.1\Network\TCPIP Stack\HTTP2.c
                 __pa_103   0x007680    program     static E:\Working\VMS\Source\Keil\VMS Controller\ICON V1.1\Network\TCPIP Stack\TCP.c
                 __pa_104   0x0099b8    program     static E:\Working\VMS\Source\Keil\VMS Controller\ICON V1.1\Network\TCPIP Stack\HTTP2.c
                 __pa_104   0x007696    program     static E:\Working\VMS\Source\Keil\VMS Controller\ICON V1.1\Network\TCPIP Stack\TCP.c
                 __pa_105   0x0099c4    program     static E:\Working\VMS\Source\Keil\VMS Controller\ICON V1.1\Network\TCPIP Stack\HTTP2.c
                 __pa_105   0x0076ac    program     static E:\Working\VMS\Source\Keil\VMS Controller\ICON V1.1\Network\TCPIP Stack\TCP.c
                 __pa_106   0x0076c2    program     static E:\Working\VMS\Source\Keil\VMS Controller\ICON V1.1\Network\TCPIP Stack\TCP.c
                 __pa_106   0x0099d0    program     static E:\Working\VMS\Source\Keil\VMS Controller\ICON V1.1\Network\TCPIP Stack\HTTP2.c
                 __pa_107   0x0099de    program     static E:\Working\VMS\Source\Keil\VMS Controller\ICON V1.1\Network\TCPIP Stack\HTTP2.c
                 __pa_107   0x0076d4    program     static E:\Working\VMS\Source\Keil\VMS Controller\ICON V1.1\Network\TCPIP Stack\TCP.c
                 __pa_108   0x0076e2    program     static E:\Working\VMS\Source\Keil\VMS Controller\ICON V1.1\Network\TCPIP Stack\TCP.c
                 __pa_108   0x0099e6    program     static E:\Working\VMS\Source\Keil\VMS Controller\ICON V1.1\Network\TCPIP Stack\HTTP2.c
                 __pa_109   0x0099ee    program     static E:\Working\VMS\Source\Keil\VMS Controller\ICON V1.1\Network\TCPIP Stack\HTTP2.c
                 __pa_109   0x0076f0    program     static E:\Working\VMS\Source\Keil\VMS Controller\ICON V1.1\Network\TCPIP Stack\TCP.c
                  __pa_11   0x011066    program     static E:\Working\VMS\Source\Keil\VMS Controller\ICON V1.1\Network\TCPIP Stack\ETH97J60.c
                  __pa_11   0x00ddf6    program     static E:\Working\VMS\Source\Keil\VMS Controller\ICON V1.1\Network\gprs.c
                  __pa_11   0x00f724    program     static E:\Working\VMS\Source\Keil\VMS Controller\ICON V1.1\Network\TCPIP Stack\MPFS2.c
                  __pa_11   0x0103f0    program     static E:\Working\VMS\Source\Keil\VMS Controller\ICON V1.1\Network\TCPIP Stack\UDP.c
                  __pa_11   0x00bf5a    program     static E:\Working\VMS\Source\Keil\VMS Controller\ICON V1.1\Network\CustomHTTPApp.c
                  __pa_11   0x00ceee    program     static E:\Working\VMS\Source\Keil\VMS Controller\ICON V1.1\Network\TCPIP Stack\BerkeleyAPI.c
                  __pa_11   0x007096    program     static E:\Working\VMS\Source\Keil\VMS Controller\ICON V1.1\Network\TCPIP Stack\TCP.c
                  __pa_11   0x0118ac    program     static E:\Working\VMS\Source\Keil\VMS Controller\ICON V1.1\Network\TCPIP Stack\DHCP.c
                  __pa_11   0x00951c    program     static E:\Working\VMS\Source\Keil\VMS Controller\ICON V1.1\Network\TCPIP Stack\HTTP2.c
                  __pa_11   0x00ec56    program     static E:\Working\VMS\Source\Keil\VMS Controller\ICON V1.1\Network\TCPIP Stack\Helpers.c
                  __pa_11   0x00add4    program     static E:\Working\VMS\Source\Keil\VMS Controller\ICON V1.1\Network\main.c
                 __pa_110   0x0076f8    program     static E:\Working\VMS\Source\Keil\VMS Controller\ICON V1.1\Network\TCPIP Stack\TCP.c
                 __pa_110   0x0099f8    program     static E:\Working\VMS\Source\Keil\VMS Controller\ICON V1.1\Network\TCPIP Stack\HTTP2.c
                 __pa_111   0x007700    program     static E:\Working\VMS\Source\Keil\VMS Controller\ICON V1.1\Network\TCPIP Stack\TCP.c
                 __pa_111   0x009a02    program     static E:\Working\VMS\Source\Keil\VMS Controller\ICON V1.1\Network\TCPIP Stack\HTTP2.c
                 __pa_112   0x00770e    program     static E:\Working\VMS\Source\Keil\VMS Controller\ICON V1.1\Network\TCPIP Stack\TCP.c
                 __pa_112   0x009a0c    program     static E:\Working\VMS\Source\Keil\VMS Controller\ICON V1.1\Network\TCPIP Stack\HTTP2.c
                 __pa_113   0x00771c    program     static E:\Working\VMS\Source\Keil\VMS Controller\ICON V1.1\Network\TCPIP Stack\TCP.c
                 __pa_113   0x009a14    program     static E:\Working\VMS\Source\Keil\VMS Controller\ICON V1.1\Network\TCPIP Stack\HTTP2.c
                 __pa_114   0x00772a    program     static E:\Working\VMS\Source\Keil\VMS Controller\ICON V1.1\Network\TCPIP Stack\TCP.c
                 __pa_114   0x009a1c    program     static E:\Working\VMS\Source\Keil\VMS Controller\ICON V1.1\Network\TCPIP Stack\HTTP2.c
                 __pa_115   0x009a22    program     static E:\Working\VMS\Source\Keil\VMS Controller\ICON V1.1\Network\TCPIP Stack\HTTP2.c
                 __pa_115   0x007738    program     static E:\Working\VMS\Source\Keil\VMS Controller\ICON V1.1\Network\TCPIP Stack\TCP.c
                 __pa_116   0x009a3c    program     static E:\Working\VMS\Source\Keil\VMS Controller\ICON V1.1\Network\TCPIP Stack\HTTP2.c
                 __pa_116   0x007746    program     static E:\Working\VMS\Source\Keil\VMS Controller\ICON V1.1\Network\TCPIP Stack\TCP.c
                 __pa_117   0x009a46    program     static E:\Working\VMS\Source\Keil\VMS Controller\ICON V1.1\Network\TCPIP Stack\HTTP2.c
                 __pa_117   0x007754    program     static E:\Working\VMS\Source\Keil\VMS Controller\ICON V1.1\Network\TCPIP Stack\TCP.c
                 __pa_118   0x009a54    program     static E:\Working\VMS\Source\Keil\VMS Controller\ICON V1.1\Network\TCPIP Stack\HTTP2.c
                 __pa_118   0x007762    program     static E:\Working\VMS\Source\Keil\VMS Controller\ICON V1.1\Network\TCPIP Stack\TCP.c
                 __pa_119   0x009a64    program     static E:\Working\VMS\Source\Keil\VMS Controller\ICON V1.1\Network\TCPIP Stack\HTTP2.c
                 __pa_119   0x00776a    program     static E:\Working\VMS\Source\Keil\VMS Controller\ICON V1.1\Network\TCPIP Stack\TCP.c
                  __pa_12   0x00ec66    program     static E:\Working\VMS\Source\Keil\VMS Controller\ICON V1.1\Network\TCPIP Stack\Helpers.c
                  __pa_12   0x00adde    program     static E:\Working\VMS\Source\Keil\VMS Controller\ICON V1.1\Network\main.c
                  __pa_12   0x00709e    program     static E:\Working\VMS\Source\Keil\VMS Controller\ICON V1.1\Network\TCPIP Stack\TCP.c
                  __pa_12   0x00cf02    program     static E:\Working\VMS\Source\Keil\VMS Controller\ICON V1.1\Network\TCPIP Stack\BerkeleyAPI.c
                  __pa_12   0x00bf6e    program     static E:\Working\VMS\Source\Keil\VMS Controller\ICON V1.1\Network\CustomHTTPApp.c
                  __pa_12   0x010408    program     static E:\Working\VMS\Source\Keil\VMS Controller\ICON V1.1\Network\TCPIP Stack\UDP.c
                  __pa_12   0x00de08    program     static E:\Working\VMS\Source\Keil\VMS Controller\ICON V1.1\Network\gprs.c
                  __pa_12   0x0118bc    program     static E:\Working\VMS\Source\Keil\VMS Controller\ICON V1.1\Network\TCPIP Stack\DHCP.c
                  __pa_12   0x011076    program     static E:\Working\VMS\Source\Keil\VMS Controller\ICON V1.1\Network\TCPIP Stack\ETH97J60.c
                  __pa_12   0x00f736    program     static E:\Working\VMS\Source\Keil\VMS Controller\ICON V1.1\Network\TCPIP Stack\MPFS2.c
                  __pa_12   0x009524    program     static E:\Working\VMS\Source\Keil\VMS Controller\ICON V1.1\Network\TCPIP Stack\HTTP2.c
                 __pa_120   0x009a6a    program     static E:\Working\VMS\Source\Keil\VMS Controller\ICON V1.1\Network\TCPIP Stack\HTTP2.c
                 __pa_120   0x007774    program     static E:\Working\VMS\Source\Keil\VMS Controller\ICON V1.1\Network\TCPIP Stack\TCP.c
                 __pa_121   0x00777e    program     static E:\Working\VMS\Source\Keil\VMS Controller\ICON V1.1\Network\TCPIP Stack\TCP.c
                 __pa_121   0x009a76    program     static E:\Working\VMS\Source\Keil\VMS Controller\ICON V1.1\Network\TCPIP Stack\HTTP2.c
                 __pa_122   0x009a82    program     static E:\Working\VMS\Source\Keil\VMS Controller\ICON V1.1\Network\TCPIP Stack\HTTP2.c
                 __pa_122   0x007788    program     static E:\Working\VMS\Source\Keil\VMS Controller\ICON V1.1\Network\TCPIP Stack\TCP.c
                 __pa_123   0x009a92    program     static E:\Working\VMS\Source\Keil\VMS Controller\ICON V1.1\Network\TCPIP Stack\HTTP2.c
                 __pa_123   0x007792    program     static E:\Working\VMS\Source\Keil\VMS Controller\ICON V1.1\Network\TCPIP Stack\TCP.c
                 __pa_124   0x00779c    program     static E:\Working\VMS\Source\Keil\VMS Controller\ICON V1.1\Network\TCPIP Stack\TCP.c
                 __pa_124   0x009a98    program     static E:\Working\VMS\Source\Keil\VMS Controller\ICON V1.1\Network\TCPIP Stack\HTTP2.c
                 __pa_125   0x0077a4    program     static E:\Working\VMS\Source\Keil\VMS Controller\ICON V1.1\Network\TCPIP Stack\TCP.c
                 __pa_125   0x009a9e    program     static E:\Working\VMS\Source\Keil\VMS Controller\ICON V1.1\Network\TCPIP Stack\HTTP2.c
                 __pa_126   0x0077b8    program     static E:\Working\VMS\Source\Keil\VMS Controller\ICON V1.1\Network\TCPIP Stack\TCP.c
                 __pa_126   0x009aa4    program     static E:\Working\VMS\Source\Keil\VMS Controller\ICON V1.1\Network\TCPIP Stack\HTTP2.c
                 __pa_127   0x0077c6    program     static E:\Working\VMS\Source\Keil\VMS Controller\ICON V1.1\Network\TCPIP Stack\TCP.c
                 __pa_127   0x009aae    program     static E:\Working\VMS\Source\Keil\VMS Controller\ICON V1.1\Network\TCPIP Stack\HTTP2.c
                 __pa_128   0x009ab8    program     static E:\Working\VMS\Source\Keil\VMS Controller\ICON V1.1\Network\TCPIP Stack\HTTP2.c
                 __pa_128   0x0077d0    program     static E:\Working\VMS\Source\Keil\VMS Controller\ICON V1.1\Network\TCPIP Stack\TCP.c
                 __pa_129   0x009ac0    program     static E:\Working\VMS\Source\Keil\VMS Controller\ICON V1.1\Network\TCPIP Stack\HTTP2.c
                 __pa_129   0x0077e2    program     static E:\Working\VMS\Source\Keil\VMS Controller\ICON V1.1\Network\TCPIP Stack\TCP.c
                  __pa_13   0x0070a6    program     static E:\Working\VMS\Source\Keil\VMS Controller\ICON V1.1\Network\TCPIP Stack\TCP.c
                  __pa_13   0x010420    program     static E:\Working\VMS\Source\Keil\VMS Controller\ICON V1.1\Network\TCPIP Stack\UDP.c
                  __pa_13   0x00adec    program     static E:\Working\VMS\Source\Keil\VMS Controller\ICON V1.1\Network\main.c
                  __pa_13   0x00cf08    program     static E:\Working\VMS\Source\Keil\VMS Controller\ICON V1.1\Network\TCPIP Stack\BerkeleyAPI.c
                  __pa_13   0x00f75c    program     static E:\Working\VMS\Source\Keil\VMS Controller\ICON V1.1\Network\TCPIP Stack\MPFS2.c
                  __pa_13   0x0118d0    program     static E:\Working\VMS\Source\Keil\VMS Controller\ICON V1.1\Network\TCPIP Stack\DHCP.c
                  __pa_13   0x00de14    program     static E:\Working\VMS\Source\Keil\VMS Controller\ICON V1.1\Network\gprs.c
                  __pa_13   0x009532    program     static E:\Working\VMS\Source\Keil\VMS Controller\ICON V1.1\Network\TCPIP Stack\HTTP2.c
                  __pa_13   0x00ec76    program     static E:\Working\VMS\Source\Keil\VMS Controller\ICON V1.1\Network\TCPIP Stack\Helpers.c
                  __pa_13   0x00bf78    program     static E:\Working\VMS\Source\Keil\VMS Controller\ICON V1.1\Network\CustomHTTPApp.c
                  __pa_13   0x011082    program     static E:\Working\VMS\Source\Keil\VMS Controller\ICON V1.1\Network\TCPIP Stack\ETH97J60.c
                 __pa_130   0x009ac8    program     static E:\Working\VMS\Source\Keil\VMS Controller\ICON V1.1\Network\TCPIP Stack\HTTP2.c
                 __pa_130   0x0077f4    program     static E:\Working\VMS\Source\Keil\VMS Controller\ICON V1.1\Network\TCPIP Stack\TCP.c
                 __pa_131   0x009ace    program     static E:\Working\VMS\Source\Keil\VMS Controller\ICON V1.1\Network\TCPIP Stack\HTTP2.c
                 __pa_131   0x007806    program     static E:\Working\VMS\Source\Keil\VMS Controller\ICON V1.1\Network\TCPIP Stack\TCP.c
                 __pa_132   0x007818    program     static E:\Working\VMS\Source\Keil\VMS Controller\ICON V1.1\Network\TCPIP Stack\TCP.c
                 __pa_132   0x009ad8    program     static E:\Working\VMS\Source\Keil\VMS Controller\ICON V1.1\Network\TCPIP Stack\HTTP2.c
                 __pa_133   0x009ade    program     static E:\Working\VMS\Source\Keil\VMS Controller\ICON V1.1\Network\TCPIP Stack\HTTP2.c
                 __pa_133   0x00782a    program     static E:\Working\VMS\Source\Keil\VMS Controller\ICON V1.1\Network\TCPIP Stack\TCP.c
                 __pa_134   0x009ae6    program     static E:\Working\VMS\Source\Keil\VMS Controller\ICON V1.1\Network\TCPIP Stack\HTTP2.c
                 __pa_134   0x007832    program     static E:\Working\VMS\Source\Keil\VMS Controller\ICON V1.1\Network\TCPIP Stack\TCP.c
                 __pa_135   0x007844    program     static E:\Working\VMS\Source\Keil\VMS Controller\ICON V1.1\Network\TCPIP Stack\TCP.c
                 __pa_136   0x007856    program     static E:\Working\VMS\Source\Keil\VMS Controller\ICON V1.1\Network\TCPIP Stack\TCP.c
                 __pa_137   0x007864    program     static E:\Working\VMS\Source\Keil\VMS Controller\ICON V1.1\Network\TCPIP Stack\TCP.c
                 __pa_138   0x007870    program     static E:\Working\VMS\Source\Keil\VMS Controller\ICON V1.1\Network\TCPIP Stack\TCP.c
                 __pa_139   0x00787c    program     static E:\Working\VMS\Source\Keil\VMS Controller\ICON V1.1\Network\TCPIP Stack\TCP.c
                  __pa_14   0x0070b2    program     static E:\Working\VMS\Source\Keil\VMS Controller\ICON V1.1\Network\TCPIP Stack\TCP.c
                  __pa_14   0x011090    program     static E:\Working\VMS\Source\Keil\VMS Controller\ICON V1.1\Network\TCPIP Stack\ETH97J60.c
                  __pa_14   0x00bf84    program     static E:\Working\VMS\Source\Keil\VMS Controller\ICON V1.1\Network\CustomHTTPApp.c
                  __pa_14   0x00de22    program     static E:\Working\VMS\Source\Keil\VMS Controller\ICON V1.1\Network\gprs.c
                  __pa_14   0x00ec8e    program     static E:\Working\VMS\Source\Keil\VMS Controller\ICON V1.1\Network\TCPIP Stack\Helpers.c
                  __pa_14   0x01042c    program     static E:\Working\VMS\Source\Keil\VMS Controller\ICON V1.1\Network\TCPIP Stack\UDP.c
                  __pa_14   0x00f776    program     static E:\Working\VMS\Source\Keil\VMS Controller\ICON V1.1\Network\TCPIP Stack\MPFS2.c
                  __pa_14   0x00cf1a    program     static E:\Working\VMS\Source\Keil\VMS Controller\ICON V1.1\Network\TCPIP Stack\BerkeleyAPI.c
                  __pa_14   0x009538    program     static E:\Working\VMS\Source\Keil\VMS Controller\ICON V1.1\Network\TCPIP Stack\HTTP2.c
                  __pa_14   0x0118e2    program     static E:\Working\VMS\Source\Keil\VMS Controller\ICON V1.1\Network\TCPIP Stack\DHCP.c
                  __pa_14   0x00adf8    program     static E:\Working\VMS\Source\Keil\VMS Controller\ICON V1.1\Network\main.c
                 __pa_140   0x007888    program     static E:\Working\VMS\Source\Keil\VMS Controller\ICON V1.1\Network\TCPIP Stack\TCP.c
                 __pa_141   0x007892    program     static E:\Working\VMS\Source\Keil\VMS Controller\ICON V1.1\Network\TCPIP Stack\TCP.c
                 __pa_142   0x00789c    program     static E:\Working\VMS\Source\Keil\VMS Controller\ICON V1.1\Network\TCPIP Stack\TCP.c
                 __pa_143   0x0078ac    program     static E:\Working\VMS\Source\Keil\VMS Controller\ICON V1.1\Network\TCPIP Stack\TCP.c
                 __pa_144   0x0078bc    program     static E:\Working\VMS\Source\Keil\VMS Controller\ICON V1.1\Network\TCPIP Stack\TCP.c
                 __pa_145   0x0078cc    program     static E:\Working\VMS\Source\Keil\VMS Controller\ICON V1.1\Network\TCPIP Stack\TCP.c
                 __pa_146   0x0078dc    program     static E:\Working\VMS\Source\Keil\VMS Controller\ICON V1.1\Network\TCPIP Stack\TCP.c
                 __pa_147   0x0078ec    program     static E:\Working\VMS\Source\Keil\VMS Controller\ICON V1.1\Network\TCPIP Stack\TCP.c
                 __pa_148   0x0078f4    program     static E:\Working\VMS\Source\Keil\VMS Controller\ICON V1.1\Network\TCPIP Stack\TCP.c
                 __pa_149   0x007902    program     static E:\Working\VMS\Source\Keil\VMS Controller\ICON V1.1\Network\TCPIP Stack\TCP.c
                  __pa_15   0x010442    program     static E:\Working\VMS\Source\Keil\VMS Controller\ICON V1.1\Network\TCPIP Stack\UDP.c
                  __pa_15   0x00eca4    program     static E:\Working\VMS\Source\Keil\VMS Controller\ICON V1.1\Network\TCPIP Stack\Helpers.c
                  __pa_15   0x00ae2a    program     static E:\Working\VMS\Source\Keil\VMS Controller\ICON V1.1\Network\main.c
                  __pa_15   0x00f788    program     static E:\Working\VMS\Source\Keil\VMS Controller\ICON V1.1\Network\TCPIP Stack\MPFS2.c
                  __pa_15   0x0118e8    program     static E:\Working\VMS\Source\Keil\VMS Controller\ICON V1.1\Network\TCPIP Stack\DHCP.c
                  __pa_15   0x009548    program     static E:\Working\VMS\Source\Keil\VMS Controller\ICON V1.1\Network\TCPIP Stack\HTTP2.c
                  __pa_15   0x0070bc    program     static E:\Working\VMS\Source\Keil\VMS Controller\ICON V1.1\Network\TCPIP Stack\TCP.c
                  __pa_15   0x00cf2c    program     static E:\Working\VMS\Source\Keil\VMS Controller\ICON V1.1\Network\TCPIP Stack\BerkeleyAPI.c
                  __pa_15   0x00de32    program     static E:\Working\VMS\Source\Keil\VMS Controller\ICON V1.1\Network\gprs.c
                  __pa_15   0x01109e    program     static E:\Working\VMS\Source\Keil\VMS Controller\ICON V1.1\Network\TCPIP Stack\ETH97J60.c
                  __pa_15   0x00bf96    program     static E:\Working\VMS\Source\Keil\VMS Controller\ICON V1.1\Network\CustomHTTPApp.c
                 __pa_150   0x007910    program     static E:\Working\VMS\Source\Keil\VMS Controller\ICON V1.1\Network\TCPIP Stack\TCP.c
                 __pa_151   0x00791e    program     static E:\Working\VMS\Source\Keil\VMS Controller\ICON V1.1\Network\TCPIP Stack\TCP.c
                 __pa_152   0x00792c    program     static E:\Working\VMS\Source\Keil\VMS Controller\ICON V1.1\Network\TCPIP Stack\TCP.c
                 __pa_153   0x00793a    program     static E:\Working\VMS\Source\Keil\VMS Controller\ICON V1.1\Network\TCPIP Stack\TCP.c
                 __pa_154   0x007948    program     static E:\Working\VMS\Source\Keil\VMS Controller\ICON V1.1\Network\TCPIP Stack\TCP.c
                 __pa_155   0x007956    program     static E:\Working\VMS\Source\Keil\VMS Controller\ICON V1.1\Network\TCPIP Stack\TCP.c
                 __pa_156   0x007964    program     static E:\Working\VMS\Source\Keil\VMS Controller\ICON V1.1\Network\TCPIP Stack\TCP.c
                 __pa_157   0x007972    program     static E:\Working\VMS\Source\Keil\VMS Controller\ICON V1.1\Network\TCPIP Stack\TCP.c
                 __pa_158   0x007980    program     static E:\Working\VMS\Source\Keil\VMS Controller\ICON V1.1\Network\TCPIP Stack\TCP.c
                 __pa_159   0x00798e    program     static E:\Working\VMS\Source\Keil\VMS Controller\ICON V1.1\Network\TCPIP Stack\TCP.c
                  __pa_16   0x00ae36    program     static E:\Working\VMS\Source\Keil\VMS Controller\ICON V1.1\Network\main.c
                  __pa_16   0x00bfa8    program     static E:\Working\VMS\Source\Keil\VMS Controller\ICON V1.1\Network\CustomHTTPApp.c
                  __pa_16   0x01044e    program     static E:\Working\VMS\Source\Keil\VMS Controller\ICON V1.1\Network\TCPIP Stack\UDP.c
                  __pa_16   0x00de50    program     static E:\Working\VMS\Source\Keil\VMS Controller\ICON V1.1\Network\gprs.c
                  __pa_16   0x00ecae    program     static E:\Working\VMS\Source\Keil\VMS Controller\ICON V1.1\Network\TCPIP Stack\Helpers.c
                  __pa_16   0x00f7ae    program     static E:\Working\VMS\Source\Keil\VMS Controller\ICON V1.1\Network\TCPIP Stack\MPFS2.c
                  __pa_16   0x0110ac    program     static E:\Working\VMS\Source\Keil\VMS Controller\ICON V1.1\Network\TCPIP Stack\ETH97J60.c
                  __pa_16   0x009550    program     static E:\Working\VMS\Source\Keil\VMS Controller\ICON V1.1\Network\TCPIP Stack\HTTP2.c
                  __pa_16   0x00cf36    program     static E:\Working\VMS\Source\Keil\VMS Controller\ICON V1.1\Network\TCPIP Stack\BerkeleyAPI.c
                  __pa_16   0x0118f6    program     static E:\Working\VMS\Source\Keil\VMS Controller\ICON V1.1\Network\TCPIP Stack\DHCP.c
                  __pa_16   0x0070c8    program     static E:\Working\VMS\Source\Keil\VMS Controller\ICON V1.1\Network\TCPIP Stack\TCP.c
                 __pa_160   0x00799c    program     static E:\Working\VMS\Source\Keil\VMS Controller\ICON V1.1\Network\TCPIP Stack\TCP.c
                 __pa_161   0x0079aa    program     static E:\Working\VMS\Source\Keil\VMS Controller\ICON V1.1\Network\TCPIP Stack\TCP.c
                 __pa_162   0x0079b4    program     static E:\Working\VMS\Source\Keil\VMS Controller\ICON V1.1\Network\TCPIP Stack\TCP.c
                 __pa_163   0x0079be    program     static E:\Working\VMS\Source\Keil\VMS Controller\ICON V1.1\Network\TCPIP Stack\TCP.c
                 __pa_164   0x0079c8    program     static E:\Working\VMS\Source\Keil\VMS Controller\ICON V1.1\Network\TCPIP Stack\TCP.c
                 __pa_165   0x0079d2    program     static E:\Working\VMS\Source\Keil\VMS Controller\ICON V1.1\Network\TCPIP Stack\TCP.c
                 __pa_166   0x0079dc    program     static E:\Working\VMS\Source\Keil\VMS Controller\ICON V1.1\Network\TCPIP Stack\TCP.c
                 __pa_167   0x0079e6    program     static E:\Working\VMS\Source\Keil\VMS Controller\ICON V1.1\Network\TCPIP Stack\TCP.c
                 __pa_168   0x0079f0    program     static E:\Working\VMS\Source\Keil\VMS Controller\ICON V1.1\Network\TCPIP Stack\TCP.c
                 __pa_169   0x0079fa    program     static E:\Working\VMS\Source\Keil\VMS Controller\ICON V1.1\Network\TCPIP Stack\TCP.c
                  __pa_17   0x011900    program     static E:\Working\VMS\Source\Keil\VMS Controller\ICON V1.1\Network\TCPIP Stack\DHCP.c
                  __pa_17   0x00955e    program     static E:\Working\VMS\Source\Keil\VMS Controller\ICON V1.1\Network\TCPIP Stack\HTTP2.c
                  __pa_17   0x010456    program     static E:\Working\VMS\Source\Keil\VMS Controller\ICON V1.1\Network\TCPIP Stack\UDP.c
                  __pa_17   0x00bfb4    program     static E:\Working\VMS\Source\Keil\VMS Controller\ICON V1.1\Network\CustomHTTPApp.c
                  __pa_17   0x00de56    program     static E:\Working\VMS\Source\Keil\VMS Controller\ICON V1.1\Network\gprs.c
                  __pa_17   0x00cf40    program     static E:\Working\VMS\Source\Keil\VMS Controller\ICON V1.1\Network\TCPIP Stack\BerkeleyAPI.c
                  __pa_17   0x0110ba    program     static E:\Working\VMS\Source\Keil\VMS Controller\ICON V1.1\Network\TCPIP Stack\ETH97J60.c
                  __pa_17   0x0070d4    program     static E:\Working\VMS\Source\Keil\VMS Controller\ICON V1.1\Network\TCPIP Stack\TCP.c
                  __pa_17   0x00ecc0    program     static E:\Working\VMS\Source\Keil\VMS Controller\ICON V1.1\Network\TCPIP Stack\Helpers.c
                  __pa_17   0x00f7bc    program     static E:\Working\VMS\Source\Keil\VMS Controller\ICON V1.1\Network\TCPIP Stack\MPFS2.c
                  __pa_17   0x00ae64    program     static E:\Working\VMS\Source\Keil\VMS Controller\ICON V1.1\Network\main.c
                 __pa_170   0x007a02    program     static E:\Working\VMS\Source\Keil\VMS Controller\ICON V1.1\Network\TCPIP Stack\TCP.c
                 __pa_171   0x007a0a    program     static E:\Working\VMS\Source\Keil\VMS Controller\ICON V1.1\Network\TCPIP Stack\TCP.c
                 __pa_172   0x007a14    program     static E:\Working\VMS\Source\Keil\VMS Controller\ICON V1.1\Network\TCPIP Stack\TCP.c
                 __pa_173   0x007a3e    program     static E:\Working\VMS\Source\Keil\VMS Controller\ICON V1.1\Network\TCPIP Stack\TCP.c
                 __pa_174   0x007a4c    program     static E:\Working\VMS\Source\Keil\VMS Controller\ICON V1.1\Network\TCPIP Stack\TCP.c
                 __pa_175   0x007a54    program     static E:\Working\VMS\Source\Keil\VMS Controller\ICON V1.1\Network\TCPIP Stack\TCP.c
                 __pa_176   0x007a5e    program     static E:\Working\VMS\Source\Keil\VMS Controller\ICON V1.1\Network\TCPIP Stack\TCP.c
                 __pa_177   0x007a68    program     static E:\Working\VMS\Source\Keil\VMS Controller\ICON V1.1\Network\TCPIP Stack\TCP.c
                 __pa_178   0x007a76    program     static E:\Working\VMS\Source\Keil\VMS Controller\ICON V1.1\Network\TCPIP Stack\TCP.c
                 __pa_179   0x007a80    program     static E:\Working\VMS\Source\Keil\VMS Controller\ICON V1.1\Network\TCPIP Stack\TCP.c
                  __pa_18   0x00ae6e    program     static E:\Working\VMS\Source\Keil\VMS Controller\ICON V1.1\Network\main.c
                  __pa_18   0x00ecd0    program     static E:\Working\VMS\Source\Keil\VMS Controller\ICON V1.1\Network\TCPIP Stack\Helpers.c
                  __pa_18   0x009568    program     static E:\Working\VMS\Source\Keil\VMS Controller\ICON V1.1\Network\TCPIP Stack\HTTP2.c
                  __pa_18   0x00bfc2    program     static E:\Working\VMS\Source\Keil\VMS Controller\ICON V1.1\Network\CustomHTTPApp.c
                  __pa_18   0x0070e2    program     static E:\Working\VMS\Source\Keil\VMS Controller\ICON V1.1\Network\TCPIP Stack\TCP.c
                  __pa_18   0x00f7e0    program     static E:\Working\VMS\Source\Keil\VMS Controller\ICON V1.1\Network\TCPIP Stack\MPFS2.c
                  __pa_18   0x0110c2    program     static E:\Working\VMS\Source\Keil\VMS Controller\ICON V1.1\Network\TCPIP Stack\ETH97J60.c
                  __pa_18   0x01190a    program     static E:\Working\VMS\Source\Keil\VMS Controller\ICON V1.1\Network\TCPIP Stack\DHCP.c
                  __pa_18   0x00cf4c    program     static E:\Working\VMS\Source\Keil\VMS Controller\ICON V1.1\Network\TCPIP Stack\BerkeleyAPI.c
                  __pa_18   0x010460    program     static E:\Working\VMS\Source\Keil\VMS Controller\ICON V1.1\Network\TCPIP Stack\UDP.c
                  __pa_18   0x00de64    program     static E:\Working\VMS\Source\Keil\VMS Controller\ICON V1.1\Network\gprs.c
                 __pa_180   0x007a8c    program     static E:\Working\VMS\Source\Keil\VMS Controller\ICON V1.1\Network\TCPIP Stack\TCP.c
                 __pa_181   0x007a9c    program     static E:\Working\VMS\Source\Keil\VMS Controller\ICON V1.1\Network\TCPIP Stack\TCP.c
                 __pa_182   0x007aa6    program     static E:\Working\VMS\Source\Keil\VMS Controller\ICON V1.1\Network\TCPIP Stack\TCP.c
                 __pa_183   0x007aae    program     static E:\Working\VMS\Source\Keil\VMS Controller\ICON V1.1\Network\TCPIP Stack\TCP.c
                 __pa_184   0x007acc    program     static E:\Working\VMS\Source\Keil\VMS Controller\ICON V1.1\Network\TCPIP Stack\TCP.c
                 __pa_185   0x007ae4    program     static E:\Working\VMS\Source\Keil\VMS Controller\ICON V1.1\Network\TCPIP Stack\TCP.c
                 __pa_186   0x007afa    program     static E:\Working\VMS\Source\Keil\VMS Controller\ICON V1.1\Network\TCPIP Stack\TCP.c
                 __pa_187   0x007b16    program     static E:\Working\VMS\Source\Keil\VMS Controller\ICON V1.1\Network\TCPIP Stack\TCP.c
                 __pa_188   0x007b32    program     static E:\Working\VMS\Source\Keil\VMS Controller\ICON V1.1\Network\TCPIP Stack\TCP.c
                 __pa_189   0x007b3e    program     static E:\Working\VMS\Source\Keil\VMS Controller\ICON V1.1\Network\TCPIP Stack\TCP.c
                  __pa_19   0x00f7f4    program     static E:\Working\VMS\Source\Keil\VMS Controller\ICON V1.1\Network\TCPIP Stack\MPFS2.c
                  __pa_19   0x00ae76    program     static E:\Working\VMS\Source\Keil\VMS Controller\ICON V1.1\Network\main.c
                  __pa_19   0x00957c    program     static E:\Working\VMS\Source\Keil\VMS Controller\ICON V1.1\Network\TCPIP Stack\HTTP2.c
                  __pa_19   0x00bfce    program     static E:\Working\VMS\Source\Keil\VMS Controller\ICON V1.1\Network\CustomHTTPApp.c
                  __pa_19   0x0110cc    program     static E:\Working\VMS\Source\Keil\VMS Controller\ICON V1.1\Network\TCPIP Stack\ETH97J60.c
                  __pa_19   0x00cf64    program     static E:\Working\VMS\Source\Keil\VMS Controller\ICON V1.1\Network\TCPIP Stack\BerkeleyAPI.c
                  __pa_19   0x00de72    program     static E:\Working\VMS\Source\Keil\VMS Controller\ICON V1.1\Network\gprs.c
                  __pa_19   0x011918    program     static E:\Working\VMS\Source\Keil\VMS Controller\ICON V1.1\Network\TCPIP Stack\DHCP.c
                  __pa_19   0x01046e    program     static E:\Working\VMS\Source\Keil\VMS Controller\ICON V1.1\Network\TCPIP Stack\UDP.c
                  __pa_19   0x0070ec    program     static E:\Working\VMS\Source\Keil\VMS Controller\ICON V1.1\Network\TCPIP Stack\TCP.c
                  __pa_19   0x00ece0    program     static E:\Working\VMS\Source\Keil\VMS Controller\ICON V1.1\Network\TCPIP Stack\Helpers.c
                 __pa_190   0x007b4c    program     static E:\Working\VMS\Source\Keil\VMS Controller\ICON V1.1\Network\TCPIP Stack\TCP.c
                 __pa_191   0x007b56    program     static E:\Working\VMS\Source\Keil\VMS Controller\ICON V1.1\Network\TCPIP Stack\TCP.c
                 __pa_192   0x007b60    program     static E:\Working\VMS\Source\Keil\VMS Controller\ICON V1.1\Network\TCPIP Stack\TCP.c
                 __pa_193   0x007b6a    program     static E:\Working\VMS\Source\Keil\VMS Controller\ICON V1.1\Network\TCPIP Stack\TCP.c
                 __pa_194   0x007b72    program     static E:\Working\VMS\Source\Keil\VMS Controller\ICON V1.1\Network\TCPIP Stack\TCP.c
                 __pa_195   0x007b7c    program     static E:\Working\VMS\Source\Keil\VMS Controller\ICON V1.1\Network\TCPIP Stack\TCP.c
                 __pa_196   0x007b96    program     static E:\Working\VMS\Source\Keil\VMS Controller\ICON V1.1\Network\TCPIP Stack\TCP.c
                 __pa_197   0x007b9e    program     static E:\Working\VMS\Source\Keil\VMS Controller\ICON V1.1\Network\TCPIP Stack\TCP.c
                 __pa_198   0x007ba8    program     static E:\Working\VMS\Source\Keil\VMS Controller\ICON V1.1\Network\TCPIP Stack\TCP.c
                 __pa_199   0x007bb2    program     static E:\Working\VMS\Source\Keil\VMS Controller\ICON V1.1\Network\TCPIP Stack\TCP.c
                   __pa_2   0x01346c    program     static E:\Working\VMS\Source\Keil\VMS Controller\ICON V1.1\Network\uart.c
                   __pa_2   0x00aca2    program     static E:\Working\VMS\Source\Keil\VMS Controller\ICON V1.1\Network\main.c
                   __pa_2   0x00ce76    program     static E:\Working\VMS\Source\Keil\VMS Controller\ICON V1.1\Network\TCPIP Stack\BerkeleyAPI.c
                   __pa_2   0x00bea6    program     static E:\Working\VMS\Source\Keil\VMS Controller\ICON V1.1\Network\CustomHTTPApp.c
                   __pa_2   0x013274    program     static E:\Working\VMS\Source\Keil\VMS Controller\ICON V1.1\Network\BerkeleyTCPClient.c
                   __pa_2   0x00dd7e    program     static E:\Working\VMS\Source\Keil\VMS Controller\ICON V1.1\Network\gprs.c
                   __pa_2   0x012d4c    program     static E:\Working\VMS\Source\Keil\VMS Controller\ICON V1.1\Network\TCPIP Stack\IP.c
                   __pa_2   0x013614    program     static E:\Working\VMS\Source\Keil\VMS Controller\ICON V1.1\Network\TCPIP Stack\StackTsk.c
                   __pa_2   0x00f660    program     static E:\Working\VMS\Source\Keil\VMS Controller\ICON V1.1\Network\TCPIP Stack\MPFS2.c
                   __pa_2   0x006f7a    program     static E:\Working\VMS\Source\Keil\VMS Controller\ICON V1.1\Network\TCPIP Stack\TCP.c
                   __pa_2   0x010ff2    program     static E:\Working\VMS\Source\Keil\VMS Controller\ICON V1.1\Network\TCPIP Stack\ETH97J60.c
                   __pa_2   0x012a36    program     static E:\Working\VMS\Source\Keil\VMS Controller\ICON V1.1\Network\TCPIP Stack\ARP.c
                   __pa_2   0x00945e    program     static E:\Working\VMS\Source\Keil\VMS Controller\ICON V1.1\Network\TCPIP Stack\HTTP2.c
                   __pa_2   0x013a42    program     static E:\Working\VMS\Source\Keil\VMS Controller\ICON V1.1\Network\TCPIP Stack\Tick.c
                   __pa_2   0x00eb9e    program     static E:\Working\VMS\Source\Keil\VMS Controller\ICON V1.1\Network\TCPIP Stack\Helpers.c
                   __pa_2   0x010364    program     static E:\Working\VMS\Source\Keil\VMS Controller\ICON V1.1\Network\TCPIP Stack\UDP.c
                   __pa_2   0x0117d2    program     static E:\Working\VMS\Source\Keil\VMS Controller\ICON V1.1\Network\TCPIP Stack\DHCP.c
                  __pa_20   0x00ae82    program     static E:\Working\VMS\Source\Keil\VMS Controller\ICON V1.1\Network\main.c
                  __pa_20   0x0110d6    program     static E:\Working\VMS\Source\Keil\VMS Controller\ICON V1.1\Network\TCPIP Stack\ETH97J60.c
                  __pa_20   0x00f814    program     static E:\Working\VMS\Source\Keil\VMS Controller\ICON V1.1\Network\TCPIP Stack\MPFS2.c
                  __pa_20   0x00ecf0    program     static E:\Working\VMS\Source\Keil\VMS Controller\ICON V1.1\Network\TCPIP Stack\Helpers.c
                  __pa_20   0x00cf74    program     static E:\Working\VMS\Source\Keil\VMS Controller\ICON V1.1\Network\TCPIP Stack\BerkeleyAPI.c
                  __pa_20   0x009584    program     static E:\Working\VMS\Source\Keil\VMS Controller\ICON V1.1\Network\TCPIP Stack\HTTP2.c
                  __pa_20   0x00bfde    program     static E:\Working\VMS\Source\Keil\VMS Controller\ICON V1.1\Network\CustomHTTPApp.c
                  __pa_20   0x010480    program     static E:\Working\VMS\Source\Keil\VMS Controller\ICON V1.1\Network\TCPIP Stack\UDP.c
                  __pa_20   0x0070f6    program     static E:\Working\VMS\Source\Keil\VMS Controller\ICON V1.1\Network\TCPIP Stack\TCP.c
                  __pa_20   0x01191e    program     static E:\Working\VMS\Source\Keil\VMS Controller\ICON V1.1\Network\TCPIP Stack\DHCP.c
                  __pa_20   0x00de7a    program     static E:\Working\VMS\Source\Keil\VMS Controller\ICON V1.1\Network\gprs.c
                 __pa_200   0x007bbe    program     static E:\Working\VMS\Source\Keil\VMS Controller\ICON V1.1\Network\TCPIP Stack\TCP.c
                 __pa_201   0x007bca    program     static E:\Working\VMS\Source\Keil\VMS Controller\ICON V1.1\Network\TCPIP Stack\TCP.c
                 __pa_202   0x007bde    program     static E:\Working\VMS\Source\Keil\VMS Controller\ICON V1.1\Network\TCPIP Stack\TCP.c
                 __pa_203   0x007bf2    program     static E:\Working\VMS\Source\Keil\VMS Controller\ICON V1.1\Network\TCPIP Stack\TCP.c
                 __pa_204   0x007c06    program     static E:\Working\VMS\Source\Keil\VMS Controller\ICON V1.1\Network\TCPIP Stack\TCP.c
                 __pa_205   0x007c14    program     static E:\Working\VMS\Source\Keil\VMS Controller\ICON V1.1\Network\TCPIP Stack\TCP.c
                 __pa_206   0x007c22    program     static E:\Working\VMS\Source\Keil\VMS Controller\ICON V1.1\Network\TCPIP Stack\TCP.c
                 __pa_207   0x007c30    program     static E:\Working\VMS\Source\Keil\VMS Controller\ICON V1.1\Network\TCPIP Stack\TCP.c
                 __pa_208   0x007c38    program     static E:\Working\VMS\Source\Keil\VMS Controller\ICON V1.1\Network\TCPIP Stack\TCP.c
                 __pa_209   0x007c42    program     static E:\Working\VMS\Source\Keil\VMS Controller\ICON V1.1\Network\TCPIP Stack\TCP.c
                  __pa_21   0x00f834    program     static E:\Working\VMS\Source\Keil\VMS Controller\ICON V1.1\Network\TCPIP Stack\MPFS2.c
                  __pa_21   0x00cf88    program     static E:\Working\VMS\Source\Keil\VMS Controller\ICON V1.1\Network\TCPIP Stack\BerkeleyAPI.c
                  __pa_21   0x00958a    program     static E:\Working\VMS\Source\Keil\VMS Controller\ICON V1.1\Network\TCPIP Stack\HTTP2.c
                  __pa_21   0x0110ee    program     static E:\Working\VMS\Source\Keil\VMS Controller\ICON V1.1\Network\TCPIP Stack\ETH97J60.c
                  __pa_21   0x011926    program     static E:\Working\VMS\Source\Keil\VMS Controller\ICON V1.1\Network\TCPIP Stack\DHCP.c
                  __pa_21   0x007112    program     static E:\Working\VMS\Source\Keil\VMS Controller\ICON V1.1\Network\TCPIP Stack\TCP.c
                  __pa_21   0x010492    program     static E:\Working\VMS\Source\Keil\VMS Controller\ICON V1.1\Network\TCPIP Stack\UDP.c
                  __pa_21   0x00de8a    program     static E:\Working\VMS\Source\Keil\VMS Controller\ICON V1.1\Network\gprs.c
                  __pa_21   0x00ae8e    program     static E:\Working\VMS\Source\Keil\VMS Controller\ICON V1.1\Network\main.c
                  __pa_21   0x00bfea    program     static E:\Working\VMS\Source\Keil\VMS Controller\ICON V1.1\Network\CustomHTTPApp.c
                  __pa_21   0x00ecf8    program     static E:\Working\VMS\Source\Keil\VMS Controller\ICON V1.1\Network\TCPIP Stack\Helpers.c
                 __pa_210   0x007c4c    program     static E:\Working\VMS\Source\Keil\VMS Controller\ICON V1.1\Network\TCPIP Stack\TCP.c
                 __pa_211   0x007c54    program     static E:\Working\VMS\Source\Keil\VMS Controller\ICON V1.1\Network\TCPIP Stack\TCP.c
                 __pa_212   0x007c66    program     static E:\Working\VMS\Source\Keil\VMS Controller\ICON V1.1\Network\TCPIP Stack\TCP.c
                 __pa_213   0x007c78    program     static E:\Working\VMS\Source\Keil\VMS Controller\ICON V1.1\Network\TCPIP Stack\TCP.c
                 __pa_214   0x007c8c    program     static E:\Working\VMS\Source\Keil\VMS Controller\ICON V1.1\Network\TCPIP Stack\TCP.c
                 __pa_215   0x007ca0    program     static E:\Working\VMS\Source\Keil\VMS Controller\ICON V1.1\Network\TCPIP Stack\TCP.c
                 __pa_216   0x007cac    program     static E:\Working\VMS\Source\Keil\VMS Controller\ICON V1.1\Network\TCPIP Stack\TCP.c
                 __pa_217   0x007cbe    program     static E:\Working\VMS\Source\Keil\VMS Controller\ICON V1.1\Network\TCPIP Stack\TCP.c
                 __pa_218   0x007cc4    program     static E:\Working\VMS\Source\Keil\VMS Controller\ICON V1.1\Network\TCPIP Stack\TCP.c
                 __pa_219   0x007cd2    program     static E:\Working\VMS\Source\Keil\VMS Controller\ICON V1.1\Network\TCPIP Stack\TCP.c
                  __pa_22   0x00711e    program     static E:\Working\VMS\Source\Keil\VMS Controller\ICON V1.1\Network\TCPIP Stack\TCP.c
                  __pa_22   0x01049e    program     static E:\Working\VMS\Source\Keil\VMS Controller\ICON V1.1\Network\TCPIP Stack\UDP.c
                  __pa_22   0x00de94    program     static E:\Working\VMS\Source\Keil\VMS Controller\ICON V1.1\Network\gprs.c
                  __pa_22   0x00ae96    program     static E:\Working\VMS\Source\Keil\VMS Controller\ICON V1.1\Network\main.c
                  __pa_22   0x009594    program     static E:\Working\VMS\Source\Keil\VMS Controller\ICON V1.1\Network\TCPIP Stack\HTTP2.c
                  __pa_22   0x00f846    program     static E:\Working\VMS\Source\Keil\VMS Controller\ICON V1.1\Network\TCPIP Stack\MPFS2.c
                  __pa_22   0x00bffc    program     static E:\Working\VMS\Source\Keil\VMS Controller\ICON V1.1\Network\CustomHTTPApp.c
                  __pa_22   0x01192e    program     static E:\Working\VMS\Source\Keil\VMS Controller\ICON V1.1\Network\TCPIP Stack\DHCP.c
                  __pa_22   0x0110fc    program     static E:\Working\VMS\Source\Keil\VMS Controller\ICON V1.1\Network\TCPIP Stack\ETH97J60.c
                  __pa_22   0x00ed06    program     static E:\Working\VMS\Source\Keil\VMS Controller\ICON V1.1\Network\TCPIP Stack\Helpers.c
                  __pa_22   0x00cf9a    program     static E:\Working\VMS\Source\Keil\VMS Controller\ICON V1.1\Network\TCPIP Stack\BerkeleyAPI.c
                 __pa_220   0x007ce2    program     static E:\Working\VMS\Source\Keil\VMS Controller\ICON V1.1\Network\TCPIP Stack\TCP.c
                 __pa_221   0x007ce8    program     static E:\Working\VMS\Source\Keil\VMS Controller\ICON V1.1\Network\TCPIP Stack\TCP.c
                 __pa_222   0x007cf2    program     static E:\Working\VMS\Source\Keil\VMS Controller\ICON V1.1\Network\TCPIP Stack\TCP.c
                 __pa_223   0x007cfc    program     static E:\Working\VMS\Source\Keil\VMS Controller\ICON V1.1\Network\TCPIP Stack\TCP.c
                 __pa_224   0x007d06    program     static E:\Working\VMS\Source\Keil\VMS Controller\ICON V1.1\Network\TCPIP Stack\TCP.c
                 __pa_225   0x007d0e    program     static E:\Working\VMS\Source\Keil\VMS Controller\ICON V1.1\Network\TCPIP Stack\TCP.c
                 __pa_226   0x007d18    program     static E:\Working\VMS\Source\Keil\VMS Controller\ICON V1.1\Network\TCPIP Stack\TCP.c
                 __pa_227   0x007d22    program     static E:\Working\VMS\Source\Keil\VMS Controller\ICON V1.1\Network\TCPIP Stack\TCP.c
                 __pa_228   0x007d2a    program     static E:\Working\VMS\Source\Keil\VMS Controller\ICON V1.1\Network\TCPIP Stack\TCP.c
                 __pa_229   0x007d34    program     static E:\Working\VMS\Source\Keil\VMS Controller\ICON V1.1\Network\TCPIP Stack\TCP.c
                  __pa_23   0x00ed14    program     static E:\Working\VMS\Source\Keil\VMS Controller\ICON V1.1\Network\TCPIP Stack\Helpers.c
                  __pa_23   0x011936    program     static E:\Working\VMS\Source\Keil\VMS Controller\ICON V1.1\Network\TCPIP Stack\DHCP.c
                  __pa_23   0x00aeac    program     static E:\Working\VMS\Source\Keil\VMS Controller\ICON V1.1\Network\main.c
                  __pa_23   0x011104    program     static E:\Working\VMS\Source\Keil\VMS Controller\ICON V1.1\Network\TCPIP Stack\ETH97J60.c
                  __pa_23   0x00c004    program     static E:\Working\VMS\Source\Keil\VMS Controller\ICON V1.1\Network\CustomHTTPApp.c
                  __pa_23   0x0095a2    program     static E:\Working\VMS\Source\Keil\VMS Controller\ICON V1.1\Network\TCPIP Stack\HTTP2.c
                  __pa_23   0x00712c    program     static E:\Working\VMS\Source\Keil\VMS Controller\ICON V1.1\Network\TCPIP Stack\TCP.c
                  __pa_23   0x00cfa2    program     static E:\Working\VMS\Source\Keil\VMS Controller\ICON V1.1\Network\TCPIP Stack\BerkeleyAPI.c
                  __pa_23   0x0104aa    program     static E:\Working\VMS\Source\Keil\VMS Controller\ICON V1.1\Network\TCPIP Stack\UDP.c
                  __pa_23   0x00f858    program     static E:\Working\VMS\Source\Keil\VMS Controller\ICON V1.1\Network\TCPIP Stack\MPFS2.c
                  __pa_23   0x00de9e    program     static E:\Working\VMS\Source\Keil\VMS Controller\ICON V1.1\Network\gprs.c
                 __pa_230   0x007d3e    program     static E:\Working\VMS\Source\Keil\VMS Controller\ICON V1.1\Network\TCPIP Stack\TCP.c
                 __pa_231   0x007d46    program     static E:\Working\VMS\Source\Keil\VMS Controller\ICON V1.1\Network\TCPIP Stack\TCP.c
                 __pa_232   0x007d56    program     static E:\Working\VMS\Source\Keil\VMS Controller\ICON V1.1\Network\TCPIP Stack\TCP.c
                 __pa_233   0x007d66    program     static E:\Working\VMS\Source\Keil\VMS Controller\ICON V1.1\Network\TCPIP Stack\TCP.c
                 __pa_234   0x007d76    program     static E:\Working\VMS\Source\Keil\VMS Controller\ICON V1.1\Network\TCPIP Stack\TCP.c
                 __pa_235   0x007d86    program     static E:\Working\VMS\Source\Keil\VMS Controller\ICON V1.1\Network\TCPIP Stack\TCP.c
                 __pa_236   0x007d94    program     static E:\Working\VMS\Source\Keil\VMS Controller\ICON V1.1\Network\TCPIP Stack\TCP.c
                 __pa_237   0x007da4    program     static E:\Working\VMS\Source\Keil\VMS Controller\ICON V1.1\Network\TCPIP Stack\TCP.c
                 __pa_238   0x007db2    program     static E:\Working\VMS\Source\Keil\VMS Controller\ICON V1.1\Network\TCPIP Stack\TCP.c
                 __pa_239   0x007dbe    program     static E:\Working\VMS\Source\Keil\VMS Controller\ICON V1.1\Network\TCPIP Stack\TCP.c
                  __pa_24   0x0095ac    program     static E:\Working\VMS\Source\Keil\VMS Controller\ICON V1.1\Network\TCPIP Stack\HTTP2.c
                  __pa_24   0x00c012    program     static E:\Working\VMS\Source\Keil\VMS Controller\ICON V1.1\Network\CustomHTTPApp.c
                  __pa_24   0x00aec4    program     static E:\Working\VMS\Source\Keil\VMS Controller\ICON V1.1\Network\main.c
                  __pa_24   0x011942    program     static E:\Working\VMS\Source\Keil\VMS Controller\ICON V1.1\Network\TCPIP Stack\DHCP.c
                  __pa_24   0x00f874    program     static E:\Working\VMS\Source\Keil\VMS Controller\ICON V1.1\Network\TCPIP Stack\MPFS2.c
                  __pa_24   0x0104b4    program     static E:\Working\VMS\Source\Keil\VMS Controller\ICON V1.1\Network\TCPIP Stack\UDP.c
                  __pa_24   0x00ed28    program     static E:\Working\VMS\Source\Keil\VMS Controller\ICON V1.1\Network\TCPIP Stack\Helpers.c
                  __pa_24   0x00deac    program     static E:\Working\VMS\Source\Keil\VMS Controller\ICON V1.1\Network\gprs.c
                  __pa_24   0x00cfb0    program     static E:\Working\VMS\Source\Keil\VMS Controller\ICON V1.1\Network\TCPIP Stack\BerkeleyAPI.c
                  __pa_24   0x007144    program     static E:\Working\VMS\Source\Keil\VMS Controller\ICON V1.1\Network\TCPIP Stack\TCP.c
                  __pa_24   0x011114    program     static E:\Working\VMS\Source\Keil\VMS Controller\ICON V1.1\Network\TCPIP Stack\ETH97J60.c
                 __pa_240   0x007dca    program     static E:\Working\VMS\Source\Keil\VMS Controller\ICON V1.1\Network\TCPIP Stack\TCP.c
                 __pa_241   0x007dd6    program     static E:\Working\VMS\Source\Keil\VMS Controller\ICON V1.1\Network\TCPIP Stack\TCP.c
                 __pa_242   0x007de4    program     static E:\Working\VMS\Source\Keil\VMS Controller\ICON V1.1\Network\TCPIP Stack\TCP.c
                 __pa_243   0x007df0    program     static E:\Working\VMS\Source\Keil\VMS Controller\ICON V1.1\Network\TCPIP Stack\TCP.c
                 __pa_244   0x007dfe    program     static E:\Working\VMS\Source\Keil\VMS Controller\ICON V1.1\Network\TCPIP Stack\TCP.c
                 __pa_245   0x007e0a    program     static E:\Working\VMS\Source\Keil\VMS Controller\ICON V1.1\Network\TCPIP Stack\TCP.c
                 __pa_246   0x007e18    program     static E:\Working\VMS\Source\Keil\VMS Controller\ICON V1.1\Network\TCPIP Stack\TCP.c
                 __pa_247   0x007e26    program     static E:\Working\VMS\Source\Keil\VMS Controller\ICON V1.1\Network\TCPIP Stack\TCP.c
                 __pa_248   0x007e34    program     static E:\Working\VMS\Source\Keil\VMS Controller\ICON V1.1\Network\TCPIP Stack\TCP.c
                 __pa_249   0x007e42    program     static E:\Working\VMS\Source\Keil\VMS Controller\ICON V1.1\Network\TCPIP Stack\TCP.c
                  __pa_25   0x01194e    program     static E:\Working\VMS\Source\Keil\VMS Controller\ICON V1.1\Network\TCPIP Stack\DHCP.c
                  __pa_25   0x00aecc    program     static E:\Working\VMS\Source\Keil\VMS Controller\ICON V1.1\Network\main.c
                  __pa_25   0x00c022    program     static E:\Working\VMS\Source\Keil\VMS Controller\ICON V1.1\Network\CustomHTTPApp.c
                  __pa_25   0x00f884    program     static E:\Working\VMS\Source\Keil\VMS Controller\ICON V1.1\Network\TCPIP Stack\MPFS2.c
                  __pa_25   0x00714e    program     static E:\Working\VMS\Source\Keil\VMS Controller\ICON V1.1\Network\TCPIP Stack\TCP.c
                  __pa_25   0x011120    program     static E:\Working\VMS\Source\Keil\VMS Controller\ICON V1.1\Network\TCPIP Stack\ETH97J60.c
                  __pa_25   0x00deb6    program     static E:\Working\VMS\Source\Keil\VMS Controller\ICON V1.1\Network\gprs.c
                  __pa_25   0x0095b2    program     static E:\Working\VMS\Source\Keil\VMS Controller\ICON V1.1\Network\TCPIP Stack\HTTP2.c
                  __pa_25   0x00cfba    program     static E:\Working\VMS\Source\Keil\VMS Controller\ICON V1.1\Network\TCPIP Stack\BerkeleyAPI.c
                  __pa_25   0x00ed3a    program     static E:\Working\VMS\Source\Keil\VMS Controller\ICON V1.1\Network\TCPIP Stack\Helpers.c
                  __pa_25   0x0104c4    program     static E:\Working\VMS\Source\Keil\VMS Controller\ICON V1.1\Network\TCPIP Stack\UDP.c
                 __pa_250   0x007e50    program     static E:\Working\VMS\Source\Keil\VMS Controller\ICON V1.1\Network\TCPIP Stack\TCP.c
                 __pa_251   0x007e5e    program     static E:\Working\VMS\Source\Keil\VMS Controller\ICON V1.1\Network\TCPIP Stack\TCP.c
                 __pa_252   0x007e6c    program     static E:\Working\VMS\Source\Keil\VMS Controller\ICON V1.1\Network\TCPIP Stack\TCP.c
                 __pa_253   0x007e7a    program     static E:\Working\VMS\Source\Keil\VMS Controller\ICON V1.1\Network\TCPIP Stack\TCP.c
                 __pa_254   0x007e86    program     static E:\Working\VMS\Source\Keil\VMS Controller\ICON V1.1\Network\TCPIP Stack\TCP.c
                 __pa_255   0x007e94    program     static E:\Working\VMS\Source\Keil\VMS Controller\ICON V1.1\Network\TCPIP Stack\TCP.c
                 __pa_256   0x007ea2    program     static E:\Working\VMS\Source\Keil\VMS Controller\ICON V1.1\Network\TCPIP Stack\TCP.c
                 __pa_257   0x007eb0    program     static E:\Working\VMS\Source\Keil\VMS Controller\ICON V1.1\Network\TCPIP Stack\TCP.c
                 __pa_258   0x007ebe    program     static E:\Working\VMS\Source\Keil\VMS Controller\ICON V1.1\Network\TCPIP Stack\TCP.c
                 __pa_259   0x007ec8    program     static E:\Working\VMS\Source\Keil\VMS Controller\ICON V1.1\Network\TCPIP Stack\TCP.c
                  __pa_26   0x00ed48    program     static E:\Working\VMS\Source\Keil\VMS Controller\ICON V1.1\Network\TCPIP Stack\Helpers.c
                  __pa_26   0x00dec0    program     static E:\Working\VMS\Source\Keil\VMS Controller\ICON V1.1\Network\gprs.c
                  __pa_26   0x007158    program     static E:\Working\VMS\Source\Keil\VMS Controller\ICON V1.1\Network\TCPIP Stack\TCP.c
                  __pa_26   0x011130    program     static E:\Working\VMS\Source\Keil\VMS Controller\ICON V1.1\Network\TCPIP Stack\ETH97J60.c
                  __pa_26   0x00f89e    program     static E:\Working\VMS\Source\Keil\VMS Controller\ICON V1.1\Network\TCPIP Stack\MPFS2.c
                  __pa_26   0x00cfca    program     static E:\Working\VMS\Source\Keil\VMS Controller\ICON V1.1\Network\TCPIP Stack\BerkeleyAPI.c
                  __pa_26   0x00aee2    program     static E:\Working\VMS\Source\Keil\VMS Controller\ICON V1.1\Network\main.c
                  __pa_26   0x01195c    program     static E:\Working\VMS\Source\Keil\VMS Controller\ICON V1.1\Network\TCPIP Stack\DHCP.c
                  __pa_26   0x00c040    program     static E:\Working\VMS\Source\Keil\VMS Controller\ICON V1.1\Network\CustomHTTPApp.c
                  __pa_26   0x0095b8    program     static E:\Working\VMS\Source\Keil\VMS Controller\ICON V1.1\Network\TCPIP Stack\HTTP2.c
                  __pa_26   0x0104d4    program     static E:\Working\VMS\Source\Keil\VMS Controller\ICON V1.1\Network\TCPIP Stack\UDP.c
                 __pa_260   0x007ed0    program     static E:\Working\VMS\Source\Keil\VMS Controller\ICON V1.1\Network\TCPIP Stack\TCP.c
                 __pa_261   0x007eda    program     static E:\Working\VMS\Source\Keil\VMS Controller\ICON V1.1\Network\TCPIP Stack\TCP.c
                 __pa_262   0x007ee4    program     static E:\Working\VMS\Source\Keil\VMS Controller\ICON V1.1\Network\TCPIP Stack\TCP.c
                 __pa_263   0x007eee    program     static E:\Working\VMS\Source\Keil\VMS Controller\ICON V1.1\Network\TCPIP Stack\TCP.c
                 __pa_264   0x007ef6    program     static E:\Working\VMS\Source\Keil\VMS Controller\ICON V1.1\Network\TCPIP Stack\TCP.c
                 __pa_265   0x007efe    program     static E:\Working\VMS\Source\Keil\VMS Controller\ICON V1.1\Network\TCPIP Stack\TCP.c
                 __pa_266   0x007f08    program     static E:\Working\VMS\Source\Keil\VMS Controller\ICON V1.1\Network\TCPIP Stack\TCP.c
                 __pa_267   0x007f12    program     static E:\Working\VMS\Source\Keil\VMS Controller\ICON V1.1\Network\TCPIP Stack\TCP.c
                 __pa_268   0x007f1e    program     static E:\Working\VMS\Source\Keil\VMS Controller\ICON V1.1\Network\TCPIP Stack\TCP.c
                 __pa_269   0x007f2e    program     static E:\Working\VMS\Source\Keil\VMS Controller\ICON V1.1\Network\TCPIP Stack\TCP.c
                  __pa_27   0x01196a    program     static E:\Working\VMS\Source\Keil\VMS Controller\ICON V1.1\Network\TCPIP Stack\DHCP.c
                  __pa_27   0x00dec6    program     static E:\Working\VMS\Source\Keil\VMS Controller\ICON V1.1\Network\gprs.c
                  __pa_27   0x00cfce    program     static E:\Working\VMS\Source\Keil\VMS Controller\ICON V1.1\Network\TCPIP Stack\BerkeleyAPI.c
                  __pa_27   0x00f8b8    program     static E:\Working\VMS\Source\Keil\VMS Controller\ICON V1.1\Network\TCPIP Stack\MPFS2.c
                  __pa_27   0x00c04a    program     static E:\Working\VMS\Source\Keil\VMS Controller\ICON V1.1\Network\CustomHTTPApp.c
                  __pa_27   0x0104e2    program     static E:\Working\VMS\Source\Keil\VMS Controller\ICON V1.1\Network\TCPIP Stack\UDP.c
                  __pa_27   0x00ed56    program     static E:\Working\VMS\Source\Keil\VMS Controller\ICON V1.1\Network\TCPIP Stack\Helpers.c
                  __pa_27   0x007164    program     static E:\Working\VMS\Source\Keil\VMS Controller\ICON V1.1\Network\TCPIP Stack\TCP.c
                  __pa_27   0x011138    program     static E:\Working\VMS\Source\Keil\VMS Controller\ICON V1.1\Network\TCPIP Stack\ETH97J60.c
                  __pa_27   0x0095be    program     static E:\Working\VMS\Source\Keil\VMS Controller\ICON V1.1\Network\TCPIP Stack\HTTP2.c
                  __pa_27   0x00aeec    program     static E:\Working\VMS\Source\Keil\VMS Controller\ICON V1.1\Network\main.c
                 __pa_270   0x007f40    program     static E:\Working\VMS\Source\Keil\VMS Controller\ICON V1.1\Network\TCPIP Stack\TCP.c
                 __pa_271   0x007f50    program     static E:\Working\VMS\Source\Keil\VMS Controller\ICON V1.1\Network\TCPIP Stack\TCP.c
                 __pa_272   0x007f5e    program     static E:\Working\VMS\Source\Keil\VMS Controller\ICON V1.1\Network\TCPIP Stack\TCP.c
                 __pa_273   0x007f66    program     static E:\Working\VMS\Source\Keil\VMS Controller\ICON V1.1\Network\TCPIP Stack\TCP.c
                 __pa_274   0x007f6c    program     static E:\Working\VMS\Source\Keil\VMS Controller\ICON V1.1\Network\TCPIP Stack\TCP.c
                 __pa_275   0x007f7c    program     static E:\Working\VMS\Source\Keil\VMS Controller\ICON V1.1\Network\TCPIP Stack\TCP.c
                 __pa_276   0x007f8a    program     static E:\Working\VMS\Source\Keil\VMS Controller\ICON V1.1\Network\TCPIP Stack\TCP.c
                 __pa_277   0x007f92    program     static E:\Working\VMS\Source\Keil\VMS Controller\ICON V1.1\Network\TCPIP Stack\TCP.c
                 __pa_278   0x007f9e    program     static E:\Working\VMS\Source\Keil\VMS Controller\ICON V1.1\Network\TCPIP Stack\TCP.c
                 __pa_279   0x007faa    program     static E:\Working\VMS\Source\Keil\VMS Controller\ICON V1.1\Network\TCPIP Stack\TCP.c
                  __pa_28   0x00cfd8    program     static E:\Working\VMS\Source\Keil\VMS Controller\ICON V1.1\Network\TCPIP Stack\BerkeleyAPI.c
                  __pa_28   0x00ed64    program     static E:\Working\VMS\Source\Keil\VMS Controller\ICON V1.1\Network\TCPIP Stack\Helpers.c
                  __pa_28   0x00717a    program     static E:\Working\VMS\Source\Keil\VMS Controller\ICON V1.1\Network\TCPIP Stack\TCP.c
                  __pa_28   0x00aef6    program     static E:\Working\VMS\Source\Keil\VMS Controller\ICON V1.1\Network\main.c
                  __pa_28   0x0095c8    program     static E:\Working\VMS\Source\Keil\VMS Controller\ICON V1.1\Network\TCPIP Stack\HTTP2.c
                  __pa_28   0x011142    program     static E:\Working\VMS\Source\Keil\VMS Controller\ICON V1.1\Network\TCPIP Stack\ETH97J60.c
                  __pa_28   0x011970    program     static E:\Working\VMS\Source\Keil\VMS Controller\ICON V1.1\Network\TCPIP Stack\DHCP.c
                  __pa_28   0x0104f0    program     static E:\Working\VMS\Source\Keil\VMS Controller\ICON V1.1\Network\TCPIP Stack\UDP.c
                  __pa_28   0x00c058    program     static E:\Working\VMS\Source\Keil\VMS Controller\ICON V1.1\Network\CustomHTTPApp.c
                  __pa_28   0x00ded2    program     static E:\Working\VMS\Source\Keil\VMS Controller\ICON V1.1\Network\gprs.c
                  __pa_28   0x00f8d2    program     static E:\Working\VMS\Source\Keil\VMS Controller\ICON V1.1\Network\TCPIP Stack\MPFS2.c
                 __pa_280   0x007fb4    program     static E:\Working\VMS\Source\Keil\VMS Controller\ICON V1.1\Network\TCPIP Stack\TCP.c
                 __pa_281   0x007fbc    program     static E:\Working\VMS\Source\Keil\VMS Controller\ICON V1.1\Network\TCPIP Stack\TCP.c
                 __pa_282   0x007fc8    program     static E:\Working\VMS\Source\Keil\VMS Controller\ICON V1.1\Network\TCPIP Stack\TCP.c
                 __pa_283   0x007fd4    program     static E:\Working\VMS\Source\Keil\VMS Controller\ICON V1.1\Network\TCPIP Stack\TCP.c
                 __pa_284   0x007fe0    program     static E:\Working\VMS\Source\Keil\VMS Controller\ICON V1.1\Network\TCPIP Stack\TCP.c
                 __pa_285   0x007fec    program     static E:\Working\VMS\Source\Keil\VMS Controller\ICON V1.1\Network\TCPIP Stack\TCP.c
                 __pa_286   0x007ff8    program     static E:\Working\VMS\Source\Keil\VMS Controller\ICON V1.1\Network\TCPIP Stack\TCP.c
                 __pa_287   0x008000    program     static E:\Working\VMS\Source\Keil\VMS Controller\ICON V1.1\Network\TCPIP Stack\TCP.c
                 __pa_288   0x008008    program     static E:\Working\VMS\Source\Keil\VMS Controller\ICON V1.1\Network\TCPIP Stack\TCP.c
                 __pa_289   0x008010    program     static E:\Working\VMS\Source\Keil\VMS Controller\ICON V1.1\Network\TCPIP Stack\TCP.c
                  __pa_29   0x00af0a    program     static E:\Working\VMS\Source\Keil\VMS Controller\ICON V1.1\Network\main.c
                  __pa_29   0x00f8e2    program     static E:\Working\VMS\Source\Keil\VMS Controller\ICON V1.1\Network\TCPIP Stack\MPFS2.c
                  __pa_29   0x0095d8    program     static E:\Working\VMS\Source\Keil\VMS Controller\ICON V1.1\Network\TCPIP Stack\HTTP2.c
                  __pa_29   0x00c064    program     static E:\Working\VMS\Source\Keil\VMS Controller\ICON V1.1\Network\CustomHTTPApp.c
                  __pa_29   0x0104fe    program     static E:\Working\VMS\Source\Keil\VMS Controller\ICON V1.1\Network\TCPIP Stack\UDP.c
                  __pa_29   0x007188    program     static E:\Working\VMS\Source\Keil\VMS Controller\ICON V1.1\Network\TCPIP Stack\TCP.c
                  __pa_29   0x00ed74    program     static E:\Working\VMS\Source\Keil\VMS Controller\ICON V1.1\Network\TCPIP Stack\Helpers.c
                  __pa_29   0x00deda    program     static E:\Working\VMS\Source\Keil\VMS Controller\ICON V1.1\Network\gprs.c
                  __pa_29   0x00cfe2    program     static E:\Working\VMS\Source\Keil\VMS Controller\ICON V1.1\Network\TCPIP Stack\BerkeleyAPI.c
                  __pa_29   0x01114c    program     static E:\Working\VMS\Source\Keil\VMS Controller\ICON V1.1\Network\TCPIP Stack\ETH97J60.c
                  __pa_29   0x011978    program     static E:\Working\VMS\Source\Keil\VMS Controller\ICON V1.1\Network\TCPIP Stack\DHCP.c
                 __pa_290   0x00801a    program     static E:\Working\VMS\Source\Keil\VMS Controller\ICON V1.1\Network\TCPIP Stack\TCP.c
                 __pa_291   0x008022    program     static E:\Working\VMS\Source\Keil\VMS Controller\ICON V1.1\Network\TCPIP Stack\TCP.c
                 __pa_292   0x00802c    program     static E:\Working\VMS\Source\Keil\VMS Controller\ICON V1.1\Network\TCPIP Stack\TCP.c
                 __pa_293   0x008034    program     static E:\Working\VMS\Source\Keil\VMS Controller\ICON V1.1\Network\TCPIP Stack\TCP.c
                 __pa_294   0x00803e    program     static E:\Working\VMS\Source\Keil\VMS Controller\ICON V1.1\Network\TCPIP Stack\TCP.c
                 __pa_295   0x008046    program     static E:\Working\VMS\Source\Keil\VMS Controller\ICON V1.1\Network\TCPIP Stack\TCP.c
                 __pa_296   0x008050    program     static E:\Working\VMS\Source\Keil\VMS Controller\ICON V1.1\Network\TCPIP Stack\TCP.c
                   __pa_3   0x00947c    program     static E:\Working\VMS\Source\Keil\VMS Controller\ICON V1.1\Network\TCPIP Stack\HTTP2.c
                   __pa_3   0x00bec0    program     static E:\Working\VMS\Source\Keil\VMS Controller\ICON V1.1\Network\CustomHTTPApp.c
                   __pa_3   0x00f672    program     static E:\Working\VMS\Source\Keil\VMS Controller\ICON V1.1\Network\TCPIP Stack\MPFS2.c
                   __pa_3   0x01037a    program     static E:\Working\VMS\Source\Keil\VMS Controller\ICON V1.1\Network\TCPIP Stack\UDP.c
                   __pa_3   0x00eba8    program     static E:\Working\VMS\Source\Keil\VMS Controller\ICON V1.1\Network\TCPIP Stack\Helpers.c
                   __pa_3   0x007010    program     static E:\Working\VMS\Source\Keil\VMS Controller\ICON V1.1\Network\TCPIP Stack\TCP.c
                   __pa_3   0x010ffc    program     static E:\Working\VMS\Source\Keil\VMS Controller\ICON V1.1\Network\TCPIP Stack\ETH97J60.c
                   __pa_3   0x0117f6    program     static E:\Working\VMS\Source\Keil\VMS Controller\ICON V1.1\Network\TCPIP Stack\DHCP.c
                   __pa_3   0x00ce7c    program     static E:\Working\VMS\Source\Keil\VMS Controller\ICON V1.1\Network\TCPIP Stack\BerkeleyAPI.c
                   __pa_3   0x00ad42    program     static E:\Working\VMS\Source\Keil\VMS Controller\ICON V1.1\Network\main.c
                   __pa_3   0x012d62    program     static E:\Working\VMS\Source\Keil\VMS Controller\ICON V1.1\Network\TCPIP Stack\IP.c
                   __pa_3   0x012a40    program     static E:\Working\VMS\Source\Keil\VMS Controller\ICON V1.1\Network\TCPIP Stack\ARP.c
                   __pa_3   0x00dd8c    program     static E:\Working\VMS\Source\Keil\VMS Controller\ICON V1.1\Network\gprs.c
                   __pa_3   0x01328a    program     static E:\Working\VMS\Source\Keil\VMS Controller\ICON V1.1\Network\BerkeleyTCPClient.c
                   __pa_3   0x013474    program     static E:\Working\VMS\Source\Keil\VMS Controller\ICON V1.1\Network\uart.c
                  __pa_30   0x00ed82    program     static E:\Working\VMS\Source\Keil\VMS Controller\ICON V1.1\Network\TCPIP Stack\Helpers.c
                  __pa_30   0x00af14    program     static E:\Working\VMS\Source\Keil\VMS Controller\ICON V1.1\Network\main.c
                  __pa_30   0x00cff2    program     static E:\Working\VMS\Source\Keil\VMS Controller\ICON V1.1\Network\TCPIP Stack\BerkeleyAPI.c
                  __pa_30   0x007196    program     static E:\Working\VMS\Source\Keil\VMS Controller\ICON V1.1\Network\TCPIP Stack\TCP.c
                  __pa_30   0x01050c    program     static E:\Working\VMS\Source\Keil\VMS Controller\ICON V1.1\Network\TCPIP Stack\UDP.c
                  __pa_30   0x0095ec    program     static E:\Working\VMS\Source\Keil\VMS Controller\ICON V1.1\Network\TCPIP Stack\HTTP2.c
                  __pa_30   0x00c07a    program     static E:\Working\VMS\Source\Keil\VMS Controller\ICON V1.1\Network\CustomHTTPApp.c
                  __pa_30   0x011154    program     static E:\Working\VMS\Source\Keil\VMS Controller\ICON V1.1\Network\TCPIP Stack\ETH97J60.c
                  __pa_30   0x01197e    program     static E:\Working\VMS\Source\Keil\VMS Controller\ICON V1.1\Network\TCPIP Stack\DHCP.c
                  __pa_30   0x00f8fa    program     static E:\Working\VMS\Source\Keil\VMS Controller\ICON V1.1\Network\TCPIP Stack\MPFS2.c
                  __pa_30   0x00deea    program     static E:\Working\VMS\Source\Keil\VMS Controller\ICON V1.1\Network\gprs.c
                  __pa_31   0x0071a4    program     static E:\Working\VMS\Source\Keil\VMS Controller\ICON V1.1\Network\TCPIP Stack\TCP.c
                  __pa_31   0x00f90c    program     static E:\Working\VMS\Source\Keil\VMS Controller\ICON V1.1\Network\TCPIP Stack\MPFS2.c
                  __pa_31   0x010514    program     static E:\Working\VMS\Source\Keil\VMS Controller\ICON V1.1\Network\TCPIP Stack\UDP.c
                  __pa_31   0x00defa    program     static E:\Working\VMS\Source\Keil\VMS Controller\ICON V1.1\Network\gprs.c
                  __pa_31   0x00af1e    program     static E:\Working\VMS\Source\Keil\VMS Controller\ICON V1.1\Network\main.c
                  __pa_31   0x009600    program     static E:\Working\VMS\Source\Keil\VMS Controller\ICON V1.1\Network\TCPIP Stack\HTTP2.c
                  __pa_31   0x00c084    program     static E:\Working\VMS\Source\Keil\VMS Controller\ICON V1.1\Network\CustomHTTPApp.c
                  __pa_31   0x00cffa    program     static E:\Working\VMS\Source\Keil\VMS Controller\ICON V1.1\Network\TCPIP Stack\BerkeleyAPI.c
                  __pa_32   0x00c090    program     static E:\Working\VMS\Source\Keil\VMS Controller\ICON V1.1\Network\CustomHTTPApp.c
                  __pa_32   0x00df0a    program     static E:\Working\VMS\Source\Keil\VMS Controller\ICON V1.1\Network\gprs.c
                  __pa_32   0x00af2a    program     static E:\Working\VMS\Source\Keil\VMS Controller\ICON V1.1\Network\main.c
                  __pa_32   0x00d008    program     static E:\Working\VMS\Source\Keil\VMS Controller\ICON V1.1\Network\TCPIP Stack\BerkeleyAPI.c
                  __pa_32   0x00f91a    program     static E:\Working\VMS\Source\Keil\VMS Controller\ICON V1.1\Network\TCPIP Stack\MPFS2.c
                  __pa_32   0x0071b0    program     static E:\Working\VMS\Source\Keil\VMS Controller\ICON V1.1\Network\TCPIP Stack\TCP.c
                  __pa_32   0x009610    program     static E:\Working\VMS\Source\Keil\VMS Controller\ICON V1.1\Network\TCPIP Stack\HTTP2.c
                  __pa_32   0x010522    program     static E:\Working\VMS\Source\Keil\VMS Controller\ICON V1.1\Network\TCPIP Stack\UDP.c
                  __pa_33   0x00d012    program     static E:\Working\VMS\Source\Keil\VMS Controller\ICON V1.1\Network\TCPIP Stack\BerkeleyAPI.c
                  __pa_33   0x00af32    program     static E:\Working\VMS\Source\Keil\VMS Controller\ICON V1.1\Network\main.c
                  __pa_33   0x00c09c    program     static E:\Working\VMS\Source\Keil\VMS Controller\ICON V1.1\Network\CustomHTTPApp.c
                  __pa_33   0x0071be    program     static E:\Working\VMS\Source\Keil\VMS Controller\ICON V1.1\Network\TCPIP Stack\TCP.c
                  __pa_33   0x00df1a    program     static E:\Working\VMS\Source\Keil\VMS Controller\ICON V1.1\Network\gprs.c
                  __pa_33   0x00961e    program     static E:\Working\VMS\Source\Keil\VMS Controller\ICON V1.1\Network\TCPIP Stack\HTTP2.c
                  __pa_33   0x010530    program     static E:\Working\VMS\Source\Keil\VMS Controller\ICON V1.1\Network\TCPIP Stack\UDP.c
                  __pa_33   0x00f928    program     static E:\Working\VMS\Source\Keil\VMS Controller\ICON V1.1\Network\TCPIP Stack\MPFS2.c
                  __pa_34   0x00d022    program     static E:\Working\VMS\Source\Keil\VMS Controller\ICON V1.1\Network\TCPIP Stack\BerkeleyAPI.c
                  __pa_34   0x00af3e    program     static E:\Working\VMS\Source\Keil\VMS Controller\ICON V1.1\Network\main.c
                  __pa_34   0x00c0a8    program     static E:\Working\VMS\Source\Keil\VMS Controller\ICON V1.1\Network\CustomHTTPApp.c
                  __pa_34   0x009626    program     static E:\Working\VMS\Source\Keil\VMS Controller\ICON V1.1\Network\TCPIP Stack\HTTP2.c
                  __pa_34   0x00f936    program     static E:\Working\VMS\Source\Keil\VMS Controller\ICON V1.1\Network\TCPIP Stack\MPFS2.c
                  __pa_34   0x01053e    program     static E:\Working\VMS\Source\Keil\VMS Controller\ICON V1.1\Network\TCPIP Stack\UDP.c
                  __pa_34   0x0071e8    program     static E:\Working\VMS\Source\Keil\VMS Controller\ICON V1.1\Network\TCPIP Stack\TCP.c
                  __pa_34   0x00df2a    program     static E:\Working\VMS\Source\Keil\VMS Controller\ICON V1.1\Network\gprs.c
                  __pa_35   0x010548    program     static E:\Working\VMS\Source\Keil\VMS Controller\ICON V1.1\Network\TCPIP Stack\UDP.c
                  __pa_35   0x0071fc    program     static E:\Working\VMS\Source\Keil\VMS Controller\ICON V1.1\Network\TCPIP Stack\TCP.c
                  __pa_35   0x00d036    program     static E:\Working\VMS\Source\Keil\VMS Controller\ICON V1.1\Network\TCPIP Stack\BerkeleyAPI.c
                  __pa_35   0x009634    program     static E:\Working\VMS\Source\Keil\VMS Controller\ICON V1.1\Network\TCPIP Stack\HTTP2.c
                  __pa_35   0x00af48    program     static E:\Working\VMS\Source\Keil\VMS Controller\ICON V1.1\Network\main.c
                  __pa_35   0x00df38    program     static E:\Working\VMS\Source\Keil\VMS Controller\ICON V1.1\Network\gprs.c
                  __pa_35   0x00f940    program     static E:\Working\VMS\Source\Keil\VMS Controller\ICON V1.1\Network\TCPIP Stack\MPFS2.c
                  __pa_35   0x00c0b4    program     static E:\Working\VMS\Source\Keil\VMS Controller\ICON V1.1\Network\CustomHTTPApp.c
                  __pa_36   0x00d048    program     static E:\Working\VMS\Source\Keil\VMS Controller\ICON V1.1\Network\TCPIP Stack\BerkeleyAPI.c
                  __pa_36   0x00f954    program     static E:\Working\VMS\Source\Keil\VMS Controller\ICON V1.1\Network\TCPIP Stack\MPFS2.c
                  __pa_36   0x009640    program     static E:\Working\VMS\Source\Keil\VMS Controller\ICON V1.1\Network\TCPIP Stack\HTTP2.c
                  __pa_36   0x00c0c4    program     static E:\Working\VMS\Source\Keil\VMS Controller\ICON V1.1\Network\CustomHTTPApp.c
                  __pa_36   0x00af58    program     static E:\Working\VMS\Source\Keil\VMS Controller\ICON V1.1\Network\main.c
                  __pa_36   0x00df46    program     static E:\Working\VMS\Source\Keil\VMS Controller\ICON V1.1\Network\gprs.c
                  __pa_36   0x007216    program     static E:\Working\VMS\Source\Keil\VMS Controller\ICON V1.1\Network\TCPIP Stack\TCP.c
                  __pa_36   0x010552    program     static E:\Working\VMS\Source\Keil\VMS Controller\ICON V1.1\Network\TCPIP Stack\UDP.c
                  __pa_37   0x00c0d2    program     static E:\Working\VMS\Source\Keil\VMS Controller\ICON V1.1\Network\CustomHTTPApp.c
                  __pa_37   0x009648    program     static E:\Working\VMS\Source\Keil\VMS Controller\ICON V1.1\Network\TCPIP Stack\HTTP2.c
                  __pa_37   0x00af68    program     static E:\Working\VMS\Source\Keil\VMS Controller\ICON V1.1\Network\main.c
                  __pa_37   0x00df54    program     static E:\Working\VMS\Source\Keil\VMS Controller\ICON V1.1\Network\gprs.c
                  __pa_37   0x010568    program     static E:\Working\VMS\Source\Keil\VMS Controller\ICON V1.1\Network\TCPIP Stack\UDP.c
                  __pa_37   0x00d050    program     static E:\Working\VMS\Source\Keil\VMS Controller\ICON V1.1\Network\TCPIP Stack\BerkeleyAPI.c
                  __pa_37   0x007226    program     static E:\Working\VMS\Source\Keil\VMS Controller\ICON V1.1\Network\TCPIP Stack\TCP.c
                  __pa_37   0x00f962    program     static E:\Working\VMS\Source\Keil\VMS Controller\ICON V1.1\Network\TCPIP Stack\MPFS2.c
                  __pa_38   0x009658    program     static E:\Working\VMS\Source\Keil\VMS Controller\ICON V1.1\Network\TCPIP Stack\HTTP2.c
                  __pa_38   0x010576    program     static E:\Working\VMS\Source\Keil\VMS Controller\ICON V1.1\Network\TCPIP Stack\UDP.c
                  __pa_38   0x00c0e0    program     static E:\Working\VMS\Source\Keil\VMS Controller\ICON V1.1\Network\CustomHTTPApp.c
                  __pa_38   0x00df62    program     static E:\Working\VMS\Source\Keil\VMS Controller\ICON V1.1\Network\gprs.c
                  __pa_38   0x007236    program     static E:\Working\VMS\Source\Keil\VMS Controller\ICON V1.1\Network\TCPIP Stack\TCP.c
                  __pa_38   0x00d05a    program     static E:\Working\VMS\Source\Keil\VMS Controller\ICON V1.1\Network\TCPIP Stack\BerkeleyAPI.c
                  __pa_38   0x00af72    program     static E:\Working\VMS\Source\Keil\VMS Controller\ICON V1.1\Network\main.c
                  __pa_38   0x00f970    program     static E:\Working\VMS\Source\Keil\VMS Controller\ICON V1.1\Network\TCPIP Stack\MPFS2.c
                  __pa_39   0x007244    program     static E:\Working\VMS\Source\Keil\VMS Controller\ICON V1.1\Network\TCPIP Stack\TCP.c
                  __pa_39   0x010584    program     static E:\Working\VMS\Source\Keil\VMS Controller\ICON V1.1\Network\TCPIP Stack\UDP.c
                  __pa_39   0x00c0f4    program     static E:\Working\VMS\Source\Keil\VMS Controller\ICON V1.1\Network\CustomHTTPApp.c
                  __pa_39   0x00f978    program     static E:\Working\VMS\Source\Keil\VMS Controller\ICON V1.1\Network\TCPIP Stack\MPFS2.c
                  __pa_39   0x00af82    program     static E:\Working\VMS\Source\Keil\VMS Controller\ICON V1.1\Network\main.c
                  __pa_39   0x00d062    program     static E:\Working\VMS\Source\Keil\VMS Controller\ICON V1.1\Network\TCPIP Stack\BerkeleyAPI.c
                  __pa_39   0x009668    program     static E:\Working\VMS\Source\Keil\VMS Controller\ICON V1.1\Network\TCPIP Stack\HTTP2.c
                  __pa_39   0x00df6c    program     static E:\Working\VMS\Source\Keil\VMS Controller\ICON V1.1\Network\gprs.c
                   __pa_4   0x00f690    program     static E:\Working\VMS\Source\Keil\VMS Controller\ICON V1.1\Network\TCPIP Stack\MPFS2.c
                   __pa_4   0x01329c    program     static E:\Working\VMS\Source\Keil\VMS Controller\ICON V1.1\Network\BerkeleyTCPClient.c
                   __pa_4   0x00dd9a    program     static E:\Working\VMS\Source\Keil\VMS Controller\ICON V1.1\Network\gprs.c
                   __pa_4   0x009484    program     static E:\Working\VMS\Source\Keil\VMS Controller\ICON V1.1\Network\TCPIP Stack\HTTP2.c
                   __pa_4   0x01180e    program     static E:\Working\VMS\Source\Keil\VMS Controller\ICON V1.1\Network\TCPIP Stack\DHCP.c
                   __pa_4   0x012a48    program     static E:\Working\VMS\Source\Keil\VMS Controller\ICON V1.1\Network\TCPIP Stack\ARP.c
                   __pa_4   0x011006    program     static E:\Working\VMS\Source\Keil\VMS Controller\ICON V1.1\Network\TCPIP Stack\ETH97J60.c
                   __pa_4   0x00ebb0    program     static E:\Working\VMS\Source\Keil\VMS Controller\ICON V1.1\Network\TCPIP Stack\Helpers.c
                   __pa_4   0x00ce82    program     static E:\Working\VMS\Source\Keil\VMS Controller\ICON V1.1\Network\TCPIP Stack\BerkeleyAPI.c
                   __pa_4   0x00bed2    program     static E:\Working\VMS\Source\Keil\VMS Controller\ICON V1.1\Network\CustomHTTPApp.c
                   __pa_4   0x00ad50    program     static E:\Working\VMS\Source\Keil\VMS Controller\ICON V1.1\Network\main.c
                   __pa_4   0x012d6c    program     static E:\Working\VMS\Source\Keil\VMS Controller\ICON V1.1\Network\TCPIP Stack\IP.c
                   __pa_4   0x010380    program     static E:\Working\VMS\Source\Keil\VMS Controller\ICON V1.1\Network\TCPIP Stack\UDP.c
                   __pa_4   0x00701c    program     static E:\Working\VMS\Source\Keil\VMS Controller\ICON V1.1\Network\TCPIP Stack\TCP.c
                  __pa_40   0x00df76    program     static E:\Working\VMS\Source\Keil\VMS Controller\ICON V1.1\Network\gprs.c
                  __pa_40   0x00f982    program     static E:\Working\VMS\Source\Keil\VMS Controller\ICON V1.1\Network\TCPIP Stack\MPFS2.c
                  __pa_40   0x00af92    program     static E:\Working\VMS\Source\Keil\VMS Controller\ICON V1.1\Network\main.c
                  __pa_40   0x00c100    program     static E:\Working\VMS\Source\Keil\VMS Controller\ICON V1.1\Network\CustomHTTPApp.c
                  __pa_40   0x01058e    program     static E:\Working\VMS\Source\Keil\VMS Controller\ICON V1.1\Network\TCPIP Stack\UDP.c
                  __pa_40   0x00724e    program     static E:\Working\VMS\Source\Keil\VMS Controller\ICON V1.1\Network\TCPIP Stack\TCP.c
                  __pa_40   0x00d06a    program     static E:\Working\VMS\Source\Keil\VMS Controller\ICON V1.1\Network\TCPIP Stack\BerkeleyAPI.c
                  __pa_40   0x009678    program     static E:\Working\VMS\Source\Keil\VMS Controller\ICON V1.1\Network\TCPIP Stack\HTTP2.c
                  __pa_41   0x00df7e    program     static E:\Working\VMS\Source\Keil\VMS Controller\ICON V1.1\Network\gprs.c
                  __pa_41   0x00f99c    program     static E:\Working\VMS\Source\Keil\VMS Controller\ICON V1.1\Network\TCPIP Stack\MPFS2.c
                  __pa_41   0x00d078    program     static E:\Working\VMS\Source\Keil\VMS Controller\ICON V1.1\Network\TCPIP Stack\BerkeleyAPI.c
                  __pa_41   0x009680    program     static E:\Working\VMS\Source\Keil\VMS Controller\ICON V1.1\Network\TCPIP Stack\HTTP2.c
                  __pa_41   0x00726a    program     static E:\Working\VMS\Source\Keil\VMS Controller\ICON V1.1\Network\TCPIP Stack\TCP.c
                  __pa_41   0x00c112    program     static E:\Working\VMS\Source\Keil\VMS Controller\ICON V1.1\Network\CustomHTTPApp.c
                  __pa_41   0x00afa0    program     static E:\Working\VMS\Source\Keil\VMS Controller\ICON V1.1\Network\main.c
                  __pa_41   0x010598    program     static E:\Working\VMS\Source\Keil\VMS Controller\ICON V1.1\Network\TCPIP Stack\UDP.c
                  __pa_42   0x00968a    program     static E:\Working\VMS\Source\Keil\VMS Controller\ICON V1.1\Network\TCPIP Stack\HTTP2.c
                  __pa_42   0x00d07e    program     static E:\Working\VMS\Source\Keil\VMS Controller\ICON V1.1\Network\TCPIP Stack\BerkeleyAPI.c
                  __pa_42   0x00afae    program     static E:\Working\VMS\Source\Keil\VMS Controller\ICON V1.1\Network\main.c
                  __pa_42   0x00f9aa    program     static E:\Working\VMS\Source\Keil\VMS Controller\ICON V1.1\Network\TCPIP Stack\MPFS2.c
                  __pa_42   0x0105a2    program     static E:\Working\VMS\Source\Keil\VMS Controller\ICON V1.1\Network\TCPIP Stack\UDP.c
                  __pa_42   0x00c11c    program     static E:\Working\VMS\Source\Keil\VMS Controller\ICON V1.1\Network\CustomHTTPApp.c
                  __pa_42   0x00df8e    program     static E:\Working\VMS\Source\Keil\VMS Controller\ICON V1.1\Network\gprs.c
                  __pa_42   0x007282    program     static E:\Working\VMS\Source\Keil\VMS Controller\ICON V1.1\Network\TCPIP Stack\TCP.c
                  __pa_43   0x00d08c    program     static E:\Working\VMS\Source\Keil\VMS Controller\ICON V1.1\Network\TCPIP Stack\BerkeleyAPI.c
                  __pa_43   0x009696    program     static E:\Working\VMS\Source\Keil\VMS Controller\ICON V1.1\Network\TCPIP Stack\HTTP2.c
                  __pa_43   0x00dfa0    program     static E:\Working\VMS\Source\Keil\VMS Controller\ICON V1.1\Network\gprs.c
                  __pa_43   0x007290    program     static E:\Working\VMS\Source\Keil\VMS Controller\ICON V1.1\Network\TCPIP Stack\TCP.c
                  __pa_43   0x00f9ba    program     static E:\Working\VMS\Source\Keil\VMS Controller\ICON V1.1\Network\TCPIP Stack\MPFS2.c
                  __pa_43   0x00afbc    program     static E:\Working\VMS\Source\Keil\VMS Controller\ICON V1.1\Network\main.c
                  __pa_43   0x0105ac    program     static E:\Working\VMS\Source\Keil\VMS Controller\ICON V1.1\Network\TCPIP Stack\UDP.c
                  __pa_43   0x00c126    program     static E:\Working\VMS\Source\Keil\VMS Controller\ICON V1.1\Network\CustomHTTPApp.c
                  __pa_44   0x0096a2    program     static E:\Working\VMS\Source\Keil\VMS Controller\ICON V1.1\Network\TCPIP Stack\HTTP2.c
                  __pa_44   0x00c12e    program     static E:\Working\VMS\Source\Keil\VMS Controller\ICON V1.1\Network\CustomHTTPApp.c
                  __pa_44   0x00dfb4    program     static E:\Working\VMS\Source\Keil\VMS Controller\ICON V1.1\Network\gprs.c
                  __pa_44   0x00f9d6    program     static E:\Working\VMS\Source\Keil\VMS Controller\ICON V1.1\Network\TCPIP Stack\MPFS2.c
                  __pa_44   0x0105b8    program     static E:\Working\VMS\Source\Keil\VMS Controller\ICON V1.1\Network\TCPIP Stack\UDP.c
                  __pa_44   0x00afc6    program     static E:\Working\VMS\Source\Keil\VMS Controller\ICON V1.1\Network\main.c
                  __pa_44   0x0072a2    program     static E:\Working\VMS\Source\Keil\VMS Controller\ICON V1.1\Network\TCPIP Stack\TCP.c
                  __pa_44   0x00d09a    program     static E:\Working\VMS\Source\Keil\VMS Controller\ICON V1.1\Network\TCPIP Stack\BerkeleyAPI.c
                  __pa_45   0x0105c6    program     static E:\Working\VMS\Source\Keil\VMS Controller\ICON V1.1\Network\TCPIP Stack\UDP.c
                  __pa_45   0x00f9ee    program     static E:\Working\VMS\Source\Keil\VMS Controller\ICON V1.1\Network\TCPIP Stack\MPFS2.c
                  __pa_45   0x00afd0    program     static E:\Working\VMS\Source\Keil\VMS Controller\ICON V1.1\Network\main.c
                  __pa_45   0x00dfc0    program     static E:\Working\VMS\Source\Keil\VMS Controller\ICON V1.1\Network\gprs.c
                  __pa_45   0x00d0a8    program     static E:\Working\VMS\Source\Keil\VMS Controller\ICON V1.1\Network\TCPIP Stack\BerkeleyAPI.c
                  __pa_45   0x00c13e    program     static E:\Working\VMS\Source\Keil\VMS Controller\ICON V1.1\Network\CustomHTTPApp.c
                  __pa_45   0x0096b2    program     static E:\Working\VMS\Source\Keil\VMS Controller\ICON V1.1\Network\TCPIP Stack\HTTP2.c
                  __pa_45   0x0072ac    program     static E:\Working\VMS\Source\Keil\VMS Controller\ICON V1.1\Network\TCPIP Stack\TCP.c
                  __pa_46   0x0072b6    program     static E:\Working\VMS\Source\Keil\VMS Controller\ICON V1.1\Network\TCPIP Stack\TCP.c
                  __pa_46   0x0105d4    program     static E:\Working\VMS\Source\Keil\VMS Controller\ICON V1.1\Network\TCPIP Stack\UDP.c
                  __pa_46   0x0096c8    program     static E:\Working\VMS\Source\Keil\VMS Controller\ICON V1.1\Network\TCPIP Stack\HTTP2.c
                  __pa_46   0x00c146    program     static E:\Working\VMS\Source\Keil\VMS Controller\ICON V1.1\Network\CustomHTTPApp.c
                  __pa_46   0x00d0b6    program     static E:\Working\VMS\Source\Keil\VMS Controller\ICON V1.1\Network\TCPIP Stack\BerkeleyAPI.c
                  __pa_46   0x00dfc8    program     static E:\Working\VMS\Source\Keil\VMS Controller\ICON V1.1\Network\gprs.c
                  __pa_46   0x00f9fc    program     static E:\Working\VMS\Source\Keil\VMS Controller\ICON V1.1\Network\TCPIP Stack\MPFS2.c
                  __pa_46   0x00afda    program     static E:\Working\VMS\Source\Keil\VMS Controller\ICON V1.1\Network\main.c
                  __pa_47   0x00c176    program     static E:\Working\VMS\Source\Keil\VMS Controller\ICON V1.1\Network\CustomHTTPApp.c
                  __pa_47   0x0096d8    program     static E:\Working\VMS\Source\Keil\VMS Controller\ICON V1.1\Network\TCPIP Stack\HTTP2.c
                  __pa_47   0x00d0c0    program     static E:\Working\VMS\Source\Keil\VMS Controller\ICON V1.1\Network\TCPIP Stack\BerkeleyAPI.c
                  __pa_47   0x00dfd2    program     static E:\Working\VMS\Source\Keil\VMS Controller\ICON V1.1\Network\gprs.c
                  __pa_47   0x0105e2    program     static E:\Working\VMS\Source\Keil\VMS Controller\ICON V1.1\Network\TCPIP Stack\UDP.c
                  __pa_47   0x00afe8    program     static E:\Working\VMS\Source\Keil\VMS Controller\ICON V1.1\Network\main.c
                  __pa_47   0x00fa04    program     static E:\Working\VMS\Source\Keil\VMS Controller\ICON V1.1\Network\TCPIP Stack\MPFS2.c
                  __pa_47   0x0072c0    program     static E:\Working\VMS\Source\Keil\VMS Controller\ICON V1.1\Network\TCPIP Stack\TCP.c
                  __pa_48   0x00d0ca    program     static E:\Working\VMS\Source\Keil\VMS Controller\ICON V1.1\Network\TCPIP Stack\BerkeleyAPI.c
                  __pa_48   0x0072d2    program     static E:\Working\VMS\Source\Keil\VMS Controller\ICON V1.1\Network\TCPIP Stack\TCP.c
                  __pa_48   0x00c184    program     static E:\Working\VMS\Source\Keil\VMS Controller\ICON V1.1\Network\CustomHTTPApp.c
                  __pa_48   0x00fa0c    program     static E:\Working\VMS\Source\Keil\VMS Controller\ICON V1.1\Network\TCPIP Stack\MPFS2.c
                  __pa_48   0x00affa    program     static E:\Working\VMS\Source\Keil\VMS Controller\ICON V1.1\Network\main.c
                  __pa_48   0x0105f0    program     static E:\Working\VMS\Source\Keil\VMS Controller\ICON V1.1\Network\TCPIP Stack\UDP.c
                  __pa_48   0x00dfe0    program     static E:\Working\VMS\Source\Keil\VMS Controller\ICON V1.1\Network\gprs.c
                  __pa_48   0x0096ee    program     static E:\Working\VMS\Source\Keil\VMS Controller\ICON V1.1\Network\TCPIP Stack\HTTP2.c
                  __pa_49   0x0072f8    program     static E:\Working\VMS\Source\Keil\VMS Controller\ICON V1.1\Network\TCPIP Stack\TCP.c
                  __pa_49   0x00c190    program     static E:\Working\VMS\Source\Keil\VMS Controller\ICON V1.1\Network\CustomHTTPApp.c
                  __pa_49   0x00d0d4    program     static E:\Working\VMS\Source\Keil\VMS Controller\ICON V1.1\Network\TCPIP Stack\BerkeleyAPI.c
                  __pa_49   0x00dfee    program     static E:\Working\VMS\Source\Keil\VMS Controller\ICON V1.1\Network\gprs.c
                  __pa_49   0x00b004    program     static E:\Working\VMS\Source\Keil\VMS Controller\ICON V1.1\Network\main.c
                  __pa_49   0x0105fa    program     static E:\Working\VMS\Source\Keil\VMS Controller\ICON V1.1\Network\TCPIP Stack\UDP.c
                  __pa_49   0x0096f8    program     static E:\Working\VMS\Source\Keil\VMS Controller\ICON V1.1\Network\TCPIP Stack\HTTP2.c
                  __pa_49   0x00fa16    program     static E:\Working\VMS\Source\Keil\VMS Controller\ICON V1.1\Network\TCPIP Stack\MPFS2.c
                   __pa_5   0x012a52    program     static E:\Working\VMS\Source\Keil\VMS Controller\ICON V1.1\Network\TCPIP Stack\ARP.c
                   __pa_5   0x01101e    program     static E:\Working\VMS\Source\Keil\VMS Controller\ICON V1.1\Network\TCPIP Stack\ETH97J60.c
                   __pa_5   0x00ebbe    program     static E:\Working\VMS\Source\Keil\VMS Controller\ICON V1.1\Network\TCPIP Stack\Helpers.c
                   __pa_5   0x00ce8e    program     static E:\Working\VMS\Source\Keil\VMS Controller\ICON V1.1\Network\TCPIP Stack\BerkeleyAPI.c
                   __pa_5   0x00ad5e    program     static E:\Working\VMS\Source\Keil\VMS Controller\ICON V1.1\Network\main.c
                   __pa_5   0x00bedc    program     static E:\Working\VMS\Source\Keil\VMS Controller\ICON V1.1\Network\CustomHTTPApp.c
                   __pa_5   0x00f6d4    program     static E:\Working\VMS\Source\Keil\VMS Controller\ICON V1.1\Network\TCPIP Stack\MPFS2.c
                   __pa_5   0x012d76    program     static E:\Working\VMS\Source\Keil\VMS Controller\ICON V1.1\Network\TCPIP Stack\IP.c
                   __pa_5   0x00703e    program     static E:\Working\VMS\Source\Keil\VMS Controller\ICON V1.1\Network\TCPIP Stack\TCP.c
                   __pa_5   0x010386    program     static E:\Working\VMS\Source\Keil\VMS Controller\ICON V1.1\Network\TCPIP Stack\UDP.c
                   __pa_5   0x011818    program     static E:\Working\VMS\Source\Keil\VMS Controller\ICON V1.1\Network\TCPIP Stack\DHCP.c
                   __pa_5   0x00dda6    program     static E:\Working\VMS\Source\Keil\VMS Controller\ICON V1.1\Network\gprs.c
                   __pa_5   0x0094a0    program     static E:\Working\VMS\Source\Keil\VMS Controller\ICON V1.1\Network\TCPIP Stack\HTTP2.c
                  __pa_50   0x00dff8    program     static E:\Working\VMS\Source\Keil\VMS Controller\ICON V1.1\Network\gprs.c
                  __pa_50   0x007318    program     static E:\Working\VMS\Source\Keil\VMS Controller\ICON V1.1\Network\TCPIP Stack\TCP.c
                  __pa_50   0x00b020    program     static E:\Working\VMS\Source\Keil\VMS Controller\ICON V1.1\Network\main.c
                  __pa_50   0x009706    program     static E:\Working\VMS\Source\Keil\VMS Controller\ICON V1.1\Network\TCPIP Stack\HTTP2.c
                  __pa_50   0x010604    program     static E:\Working\VMS\Source\Keil\VMS Controller\ICON V1.1\Network\TCPIP Stack\UDP.c
                  __pa_50   0x00c1ae    program     static E:\Working\VMS\Source\Keil\VMS Controller\ICON V1.1\Network\CustomHTTPApp.c
                  __pa_50   0x00fa20    program     static E:\Working\VMS\Source\Keil\VMS Controller\ICON V1.1\Network\TCPIP Stack\MPFS2.c
                  __pa_50   0x00d0de    program     static E:\Working\VMS\Source\Keil\VMS Controller\ICON V1.1\Network\TCPIP Stack\BerkeleyAPI.c
                  __pa_51   0x00c1b8    program     static E:\Working\VMS\Source\Keil\VMS Controller\ICON V1.1\Network\CustomHTTPApp.c
                  __pa_51   0x00fa2c    program     static E:\Working\VMS\Source\Keil\VMS Controller\ICON V1.1\Network\TCPIP Stack\MPFS2.c
                  __pa_51   0x009714    program     static E:\Working\VMS\Source\Keil\VMS Controller\ICON V1.1\Network\TCPIP Stack\HTTP2.c
                  __pa_51   0x007330    program     static E:\Working\VMS\Source\Keil\VMS Controller\ICON V1.1\Network\TCPIP Stack\TCP.c
                  __pa_51   0x00d0e6    program     static E:\Working\VMS\Source\Keil\VMS Controller\ICON V1.1\Network\TCPIP Stack\BerkeleyAPI.c
                  __pa_51   0x00e002    program     static E:\Working\VMS\Source\Keil\VMS Controller\ICON V1.1\Network\gprs.c
                  __pa_51   0x00b02a    program     static E:\Working\VMS\Source\Keil\VMS Controller\ICON V1.1\Network\main.c
                  __pa_52   0x00fa3a    program     static E:\Working\VMS\Source\Keil\VMS Controller\ICON V1.1\Network\TCPIP Stack\MPFS2.c
                  __pa_52   0x009722    program     static E:\Working\VMS\Source\Keil\VMS Controller\ICON V1.1\Network\TCPIP Stack\HTTP2.c
                  __pa_52   0x00d0ee    program     static E:\Working\VMS\Source\Keil\VMS Controller\ICON V1.1\Network\TCPIP Stack\BerkeleyAPI.c
                  __pa_52   0x007346    program     static E:\Working\VMS\Source\Keil\VMS Controller\ICON V1.1\Network\TCPIP Stack\TCP.c
                  __pa_52   0x00b030    program     static E:\Working\VMS\Source\Keil\VMS Controller\ICON V1.1\Network\main.c
                  __pa_52   0x00e008    program     static E:\Working\VMS\Source\Keil\VMS Controller\ICON V1.1\Network\gprs.c
                  __pa_52   0x00c1c2    program     static E:\Working\VMS\Source\Keil\VMS Controller\ICON V1.1\Network\CustomHTTPApp.c
                  __pa_53   0x00735c    program     static E:\Working\VMS\Source\Keil\VMS Controller\ICON V1.1\Network\TCPIP Stack\TCP.c
                  __pa_53   0x00c1cc    program     static E:\Working\VMS\Source\Keil\VMS Controller\ICON V1.1\Network\CustomHTTPApp.c
                  __pa_53   0x00d0f8    program     static E:\Working\VMS\Source\Keil\VMS Controller\ICON V1.1\Network\TCPIP Stack\BerkeleyAPI.c
                  __pa_53   0x009730    program     static E:\Working\VMS\Source\Keil\VMS Controller\ICON V1.1\Network\TCPIP Stack\HTTP2.c
                  __pa_53   0x00e014    program     static E:\Working\VMS\Source\Keil\VMS Controller\ICON V1.1\Network\gprs.c
                  __pa_53   0x00fa44    program     static E:\Working\VMS\Source\Keil\VMS Controller\ICON V1.1\Network\TCPIP Stack\MPFS2.c
                  __pa_53   0x00b03e    program     static E:\Working\VMS\Source\Keil\VMS Controller\ICON V1.1\Network\main.c
                  __pa_54   0x007368    program     static E:\Working\VMS\Source\Keil\VMS Controller\ICON V1.1\Network\TCPIP Stack\TCP.c
                  __pa_54   0x00d100    program     static E:\Working\VMS\Source\Keil\VMS Controller\ICON V1.1\Network\TCPIP Stack\BerkeleyAPI.c
                  __pa_54   0x00b04c    program     static E:\Working\VMS\Source\Keil\VMS Controller\ICON V1.1\Network\main.c
                  __pa_54   0x00fa4a    program     static E:\Working\VMS\Source\Keil\VMS Controller\ICON V1.1\Network\TCPIP Stack\MPFS2.c
                  __pa_54   0x00973e    program     static E:\Working\VMS\Source\Keil\VMS Controller\ICON V1.1\Network\TCPIP Stack\HTTP2.c
                  __pa_54   0x00e01a    program     static E:\Working\VMS\Source\Keil\VMS Controller\ICON V1.1\Network\gprs.c
                  __pa_54   0x00c1de    program     static E:\Working\VMS\Source\Keil\VMS Controller\ICON V1.1\Network\CustomHTTPApp.c
                  __pa_55   0x00974e    program     static E:\Working\VMS\Source\Keil\VMS Controller\ICON V1.1\Network\TCPIP Stack\HTTP2.c
                  __pa_55   0x00e026    program     static E:\Working\VMS\Source\Keil\VMS Controller\ICON V1.1\Network\gprs.c
                  __pa_55   0x00d10c    program     static E:\Working\VMS\Source\Keil\VMS Controller\ICON V1.1\Network\TCPIP Stack\BerkeleyAPI.c
                  __pa_55   0x00c1ea    program     static E:\Working\VMS\Source\Keil\VMS Controller\ICON V1.1\Network\CustomHTTPApp.c
                  __pa_55   0x00fa52    program     static E:\Working\VMS\Source\Keil\VMS Controller\ICON V1.1\Network\TCPIP Stack\MPFS2.c
                  __pa_55   0x00b05a    program     static E:\Working\VMS\Source\Keil\VMS Controller\ICON V1.1\Network\main.c
                  __pa_55   0x007376    program     static E:\Working\VMS\Source\Keil\VMS Controller\ICON V1.1\Network\TCPIP Stack\TCP.c
                  __pa_56   0x00c1f4    program     static E:\Working\VMS\Source\Keil\VMS Controller\ICON V1.1\Network\CustomHTTPApp.c
                  __pa_56   0x00b062    program     static E:\Working\VMS\Source\Keil\VMS Controller\ICON V1.1\Network\main.c
                  __pa_56   0x00d118    program     static E:\Working\VMS\Source\Keil\VMS Controller\ICON V1.1\Network\TCPIP Stack\BerkeleyAPI.c
                  __pa_56   0x007384    program     static E:\Working\VMS\Source\Keil\VMS Controller\ICON V1.1\Network\TCPIP Stack\TCP.c
                  __pa_56   0x00975c    program     static E:\Working\VMS\Source\Keil\VMS Controller\ICON V1.1\Network\TCPIP Stack\HTTP2.c
                  __pa_56   0x00fa58    program     static E:\Working\VMS\Source\Keil\VMS Controller\ICON V1.1\Network\TCPIP Stack\MPFS2.c
                  __pa_56   0x00e02c    program     static E:\Working\VMS\Source\Keil\VMS Controller\ICON V1.1\Network\gprs.c
                  __pa_57   0x00b068    program     static E:\Working\VMS\Source\Keil\VMS Controller\ICON V1.1\Network\main.c
                  __pa_57   0x00e036    program     static E:\Working\VMS\Source\Keil\VMS Controller\ICON V1.1\Network\gprs.c
                  __pa_57   0x00d128    program     static E:\Working\VMS\Source\Keil\VMS Controller\ICON V1.1\Network\TCPIP Stack\BerkeleyAPI.c
                  __pa_57   0x00976c    program     static E:\Working\VMS\Source\Keil\VMS Controller\ICON V1.1\Network\TCPIP Stack\HTTP2.c
                  __pa_57   0x007392    program     static E:\Working\VMS\Source\Keil\VMS Controller\ICON V1.1\Network\TCPIP Stack\TCP.c
                  __pa_57   0x00fa5e    program     static E:\Working\VMS\Source\Keil\VMS Controller\ICON V1.1\Network\TCPIP Stack\MPFS2.c
                  __pa_57   0x00c1fa    program     static E:\Working\VMS\Source\Keil\VMS Controller\ICON V1.1\Network\CustomHTTPApp.c
                  __pa_58   0x00d130    program     static E:\Working\VMS\Source\Keil\VMS Controller\ICON V1.1\Network\TCPIP Stack\BerkeleyAPI.c
                  __pa_58   0x00977a    program     static E:\Working\VMS\Source\Keil\VMS Controller\ICON V1.1\Network\TCPIP Stack\HTTP2.c
                  __pa_58   0x00e03c    program     static E:\Working\VMS\Source\Keil\VMS Controller\ICON V1.1\Network\gprs.c
                  __pa_58   0x00b070    program     static E:\Working\VMS\Source\Keil\VMS Controller\ICON V1.1\Network\main.c
                  __pa_58   0x00c208    program     static E:\Working\VMS\Source\Keil\VMS Controller\ICON V1.1\Network\CustomHTTPApp.c
                  __pa_58   0x00739c    program     static E:\Working\VMS\Source\Keil\VMS Controller\ICON V1.1\Network\TCPIP Stack\TCP.c
                  __pa_58   0x00fa64    program     static E:\Working\VMS\Source\Keil\VMS Controller\ICON V1.1\Network\TCPIP Stack\MPFS2.c
                  __pa_59   0x00d136    program     static E:\Working\VMS\Source\Keil\VMS Controller\ICON V1.1\Network\TCPIP Stack\BerkeleyAPI.c
                  __pa_59   0x00fa6c    program     static E:\Working\VMS\Source\Keil\VMS Controller\ICON V1.1\Network\TCPIP Stack\MPFS2.c
                  __pa_59   0x00c210    program     static E:\Working\VMS\Source\Keil\VMS Controller\ICON V1.1\Network\CustomHTTPApp.c
                  __pa_59   0x0073ba    program     static E:\Working\VMS\Source\Keil\VMS Controller\ICON V1.1\Network\TCPIP Stack\TCP.c
                  __pa_59   0x00e044    program     static E:\Working\VMS\Source\Keil\VMS Controller\ICON V1.1\Network\gprs.c
                  __pa_59   0x00b07c    program     static E:\Working\VMS\Source\Keil\VMS Controller\ICON V1.1\Network\main.c
                  __pa_59   0x00978e    program     static E:\Working\VMS\Source\Keil\VMS Controller\ICON V1.1\Network\TCPIP Stack\HTTP2.c
                   __pa_6   0x00f6de    program     static E:\Working\VMS\Source\Keil\VMS Controller\ICON V1.1\Network\TCPIP Stack\MPFS2.c
                   __pa_6   0x00ddac    program     static E:\Working\VMS\Source\Keil\VMS Controller\ICON V1.1\Network\gprs.c
                   __pa_6   0x011826    program     static E:\Working\VMS\Source\Keil\VMS Controller\ICON V1.1\Network\TCPIP Stack\DHCP.c
                   __pa_6   0x01038e    program     static E:\Working\VMS\Source\Keil\VMS Controller\ICON V1.1\Network\TCPIP Stack\UDP.c
                   __pa_6   0x007044    program     static E:\Working\VMS\Source\Keil\VMS Controller\ICON V1.1\Network\TCPIP Stack\TCP.c
                   __pa_6   0x012d7e    program     static E:\Working\VMS\Source\Keil\VMS Controller\ICON V1.1\Network\TCPIP Stack\IP.c
                   __pa_6   0x00bf12    program     static E:\Working\VMS\Source\Keil\VMS Controller\ICON V1.1\Network\CustomHTTPApp.c
                   __pa_6   0x0094c4    program     static E:\Working\VMS\Source\Keil\VMS Controller\ICON V1.1\Network\TCPIP Stack\HTTP2.c
                   __pa_6   0x00ad6c    program     static E:\Working\VMS\Source\Keil\VMS Controller\ICON V1.1\Network\main.c
                   __pa_6   0x00cea8    program     static E:\Working\VMS\Source\Keil\VMS Controller\ICON V1.1\Network\TCPIP Stack\BerkeleyAPI.c
                   __pa_6   0x012a62    program     static E:\Working\VMS\Source\Keil\VMS Controller\ICON V1.1\Network\TCPIP Stack\ARP.c
                   __pa_6   0x00ebe4    program     static E:\Working\VMS\Source\Keil\VMS Controller\ICON V1.1\Network\TCPIP Stack\Helpers.c
                   __pa_6   0x011022    program     static E:\Working\VMS\Source\Keil\VMS Controller\ICON V1.1\Network\TCPIP Stack\ETH97J60.c
                  __pa_60   0x00c218    program     static E:\Working\VMS\Source\Keil\VMS Controller\ICON V1.1\Network\CustomHTTPApp.c
                  __pa_60   0x00b088    program     static E:\Working\VMS\Source\Keil\VMS Controller\ICON V1.1\Network\main.c
                  __pa_60   0x0073de    program     static E:\Working\VMS\Source\Keil\VMS Controller\ICON V1.1\Network\TCPIP Stack\TCP.c
                  __pa_60   0x00e04a    program     static E:\Working\VMS\Source\Keil\VMS Controller\ICON V1.1\Network\gprs.c
                  __pa_60   0x00d14e    program     static E:\Working\VMS\Source\Keil\VMS Controller\ICON V1.1\Network\TCPIP Stack\BerkeleyAPI.c
                  __pa_60   0x00fa76    program     static E:\Working\VMS\Source\Keil\VMS Controller\ICON V1.1\Network\TCPIP Stack\MPFS2.c
                  __pa_60   0x009796    program     static E:\Working\VMS\Source\Keil\VMS Controller\ICON V1.1\Network\TCPIP Stack\HTTP2.c
                  __pa_61   0x00d15c    program     static E:\Working\VMS\Source\Keil\VMS Controller\ICON V1.1\Network\TCPIP Stack\BerkeleyAPI.c
                  __pa_61   0x00fa7e    program     static E:\Working\VMS\Source\Keil\VMS Controller\ICON V1.1\Network\TCPIP Stack\MPFS2.c
                  __pa_61   0x00b09a    program     static E:\Working\VMS\Source\Keil\VMS Controller\ICON V1.1\Network\main.c
                  __pa_61   0x0097a8    program     static E:\Working\VMS\Source\Keil\VMS Controller\ICON V1.1\Network\TCPIP Stack\HTTP2.c
                  __pa_61   0x00c226    program     static E:\Working\VMS\Source\Keil\VMS Controller\ICON V1.1\Network\CustomHTTPApp.c
                  __pa_61   0x0073ea    program     static E:\Working\VMS\Source\Keil\VMS Controller\ICON V1.1\Network\TCPIP Stack\TCP.c
                  __pa_62   0x00fa84    program     static E:\Working\VMS\Source\Keil\VMS Controller\ICON V1.1\Network\TCPIP Stack\MPFS2.c
                  __pa_62   0x0097b4    program     static E:\Working\VMS\Source\Keil\VMS Controller\ICON V1.1\Network\TCPIP Stack\HTTP2.c
                  __pa_62   0x0073f4    program     static E:\Working\VMS\Source\Keil\VMS Controller\ICON V1.1\Network\TCPIP Stack\TCP.c
                  __pa_62   0x00c234    program     static E:\Working\VMS\Source\Keil\VMS Controller\ICON V1.1\Network\CustomHTTPApp.c
                  __pa_62   0x00b0a2    program     static E:\Working\VMS\Source\Keil\VMS Controller\ICON V1.1\Network\main.c
                  __pa_62   0x00d168    program     static E:\Working\VMS\Source\Keil\VMS Controller\ICON V1.1\Network\TCPIP Stack\BerkeleyAPI.c
                  __pa_63   0x0097c6    program     static E:\Working\VMS\Source\Keil\VMS Controller\ICON V1.1\Network\TCPIP Stack\HTTP2.c
                  __pa_63   0x0073fe    program     static E:\Working\VMS\Source\Keil\VMS Controller\ICON V1.1\Network\TCPIP Stack\TCP.c
                  __pa_63   0x00c23e    program     static E:\Working\VMS\Source\Keil\VMS Controller\ICON V1.1\Network\CustomHTTPApp.c
                  __pa_63   0x00b0ae    program     static E:\Working\VMS\Source\Keil\VMS Controller\ICON V1.1\Network\main.c
                  __pa_63   0x00d172    program     static E:\Working\VMS\Source\Keil\VMS Controller\ICON V1.1\Network\TCPIP Stack\BerkeleyAPI.c
                  __pa_64   0x0097cc    program     static E:\Working\VMS\Source\Keil\VMS Controller\ICON V1.1\Network\TCPIP Stack\HTTP2.c
                  __pa_64   0x007408    program     static E:\Working\VMS\Source\Keil\VMS Controller\ICON V1.1\Network\TCPIP Stack\TCP.c
                  __pa_64   0x00c246    program     static E:\Working\VMS\Source\Keil\VMS Controller\ICON V1.1\Network\CustomHTTPApp.c
                  __pa_64   0x00b0b8    program     static E:\Working\VMS\Source\Keil\VMS Controller\ICON V1.1\Network\main.c
                  __pa_64   0x00d17c    program     static E:\Working\VMS\Source\Keil\VMS Controller\ICON V1.1\Network\TCPIP Stack\BerkeleyAPI.c
                  __pa_65   0x00741a    program     static E:\Working\VMS\Source\Keil\VMS Controller\ICON V1.1\Network\TCPIP Stack\TCP.c
                  __pa_65   0x00c24c    program     static E:\Working\VMS\Source\Keil\VMS Controller\ICON V1.1\Network\CustomHTTPApp.c
                  __pa_65   0x00d186    program     static E:\Working\VMS\Source\Keil\VMS Controller\ICON V1.1\Network\TCPIP Stack\BerkeleyAPI.c
                  __pa_65   0x00b0c2    program     static E:\Working\VMS\Source\Keil\VMS Controller\ICON V1.1\Network\main.c
                  __pa_65   0x0097dc    program     static E:\Working\VMS\Source\Keil\VMS Controller\ICON V1.1\Network\TCPIP Stack\HTTP2.c
                  __pa_66   0x0097e8    program     static E:\Working\VMS\Source\Keil\VMS Controller\ICON V1.1\Network\TCPIP Stack\HTTP2.c
                  __pa_66   0x00c256    program     static E:\Working\VMS\Source\Keil\VMS Controller\ICON V1.1\Network\CustomHTTPApp.c
                  __pa_66   0x00d194    program     static E:\Working\VMS\Source\Keil\VMS Controller\ICON V1.1\Network\TCPIP Stack\BerkeleyAPI.c
                  __pa_66   0x00b0d2    program     static E:\Working\VMS\Source\Keil\VMS Controller\ICON V1.1\Network\main.c
                  __pa_66   0x00743a    program     static E:\Working\VMS\Source\Keil\VMS Controller\ICON V1.1\Network\TCPIP Stack\TCP.c
                  __pa_67   0x0097f8    program     static E:\Working\VMS\Source\Keil\VMS Controller\ICON V1.1\Network\TCPIP Stack\HTTP2.c
                  __pa_67   0x00c260    program     static E:\Working\VMS\Source\Keil\VMS Controller\ICON V1.1\Network\CustomHTTPApp.c
                  __pa_67   0x00d19e    program     static E:\Working\VMS\Source\Keil\VMS Controller\ICON V1.1\Network\TCPIP Stack\BerkeleyAPI.c
                  __pa_67   0x007458    program     static E:\Working\VMS\Source\Keil\VMS Controller\ICON V1.1\Network\TCPIP Stack\TCP.c
                  __pa_67   0x00b0de    program     static E:\Working\VMS\Source\Keil\VMS Controller\ICON V1.1\Network\main.c
                  __pa_68   0x009800    program     static E:\Working\VMS\Source\Keil\VMS Controller\ICON V1.1\Network\TCPIP Stack\HTTP2.c
                  __pa_68   0x00c26a    program     static E:\Working\VMS\Source\Keil\VMS Controller\ICON V1.1\Network\CustomHTTPApp.c
                  __pa_68   0x00b0ea    program     static E:\Working\VMS\Source\Keil\VMS Controller\ICON V1.1\Network\main.c
                  __pa_68   0x00d1aa    program     static E:\Working\VMS\Source\Keil\VMS Controller\ICON V1.1\Network\TCPIP Stack\BerkeleyAPI.c
                  __pa_68   0x00746c    program     static E:\Working\VMS\Source\Keil\VMS Controller\ICON V1.1\Network\TCPIP Stack\TCP.c
                  __pa_69   0x00d1b4    program     static E:\Working\VMS\Source\Keil\VMS Controller\ICON V1.1\Network\TCPIP Stack\BerkeleyAPI.c
                  __pa_69   0x00c278    program     static E:\Working\VMS\Source\Keil\VMS Controller\ICON V1.1\Network\CustomHTTPApp.c
                  __pa_69   0x007482    program     static E:\Working\VMS\Source\Keil\VMS Controller\ICON V1.1\Network\TCPIP Stack\TCP.c
                  __pa_69   0x009808    program     static E:\Working\VMS\Source\Keil\VMS Controller\ICON V1.1\Network\TCPIP Stack\HTTP2.c
                  __pa_69   0x00b0f8    program     static E:\Working\VMS\Source\Keil\VMS Controller\ICON V1.1\Network\main.c
                   __pa_7   0x011028    program     static E:\Working\VMS\Source\Keil\VMS Controller\ICON V1.1\Network\TCPIP Stack\ETH97J60.c
                   __pa_7   0x01185a    program     static E:\Working\VMS\Source\Keil\VMS Controller\ICON V1.1\Network\TCPIP Stack\DHCP.c
                   __pa_7   0x00ad78    program     static E:\Working\VMS\Source\Keil\VMS Controller\ICON V1.1\Network\main.c
                   __pa_7   0x00f6e6    program     static E:\Working\VMS\Source\Keil\VMS Controller\ICON V1.1\Network\TCPIP Stack\MPFS2.c
                   __pa_7   0x012d8e    program     static E:\Working\VMS\Source\Keil\VMS Controller\ICON V1.1\Network\TCPIP Stack\IP.c
                   __pa_7   0x00ddc0    program     static E:\Working\VMS\Source\Keil\VMS Controller\ICON V1.1\Network\gprs.c
                   __pa_7   0x01039c    program     static E:\Working\VMS\Source\Keil\VMS Controller\ICON V1.1\Network\TCPIP Stack\UDP.c
                   __pa_7   0x012a6e    program     static E:\Working\VMS\Source\Keil\VMS Controller\ICON V1.1\Network\TCPIP Stack\ARP.c
                   __pa_7   0x00704e    program     static E:\Working\VMS\Source\Keil\VMS Controller\ICON V1.1\Network\TCPIP Stack\TCP.c
                   __pa_7   0x00ceb6    program     static E:\Working\VMS\Source\Keil\VMS Controller\ICON V1.1\Network\TCPIP Stack\BerkeleyAPI.c
                   __pa_7   0x0094ca    program     static E:\Working\VMS\Source\Keil\VMS Controller\ICON V1.1\Network\TCPIP Stack\HTTP2.c
                   __pa_7   0x00bf1c    program     static E:\Working\VMS\Source\Keil\VMS Controller\ICON V1.1\Network\CustomHTTPApp.c
                   __pa_7   0x00ec06    program     static E:\Working\VMS\Source\Keil\VMS Controller\ICON V1.1\Network\TCPIP Stack\Helpers.c
                  __pa_70   0x00b104    program     static E:\Working\VMS\Source\Keil\VMS Controller\ICON V1.1\Network\main.c
                  __pa_70   0x009816    program     static E:\Working\VMS\Source\Keil\VMS Controller\ICON V1.1\Network\TCPIP Stack\HTTP2.c
                  __pa_70   0x0074a0    program     static E:\Working\VMS\Source\Keil\VMS Controller\ICON V1.1\Network\TCPIP Stack\TCP.c
                  __pa_70   0x00c280    program     static E:\Working\VMS\Source\Keil\VMS Controller\ICON V1.1\Network\CustomHTTPApp.c
                  __pa_70   0x00d1bc    program     static E:\Working\VMS\Source\Keil\VMS Controller\ICON V1.1\Network\TCPIP Stack\BerkeleyAPI.c
                  __pa_71   0x00b10e    program     static E:\Working\VMS\Source\Keil\VMS Controller\ICON V1.1\Network\main.c
                  __pa_71   0x0074b6    program     static E:\Working\VMS\Source\Keil\VMS Controller\ICON V1.1\Network\TCPIP Stack\TCP.c
                  __pa_71   0x00c28c    program     static E:\Working\VMS\Source\Keil\VMS Controller\ICON V1.1\Network\CustomHTTPApp.c
                  __pa_71   0x009824    program     static E:\Working\VMS\Source\Keil\VMS Controller\ICON V1.1\Network\TCPIP Stack\HTTP2.c
                  __pa_71   0x00d1c4    program     static E:\Working\VMS\Source\Keil\VMS Controller\ICON V1.1\Network\TCPIP Stack\BerkeleyAPI.c
                  __pa_72   0x0074ca    program     static E:\Working\VMS\Source\Keil\VMS Controller\ICON V1.1\Network\TCPIP Stack\TCP.c
                  __pa_72   0x00c292    program     static E:\Working\VMS\Source\Keil\VMS Controller\ICON V1.1\Network\CustomHTTPApp.c
                  __pa_72   0x00d1cc    program     static E:\Working\VMS\Source\Keil\VMS Controller\ICON V1.1\Network\TCPIP Stack\BerkeleyAPI.c
                  __pa_72   0x009832    program     static E:\Working\VMS\Source\Keil\VMS Controller\ICON V1.1\Network\TCPIP Stack\HTTP2.c
                  __pa_72   0x00b118    program     static E:\Working\VMS\Source\Keil\VMS Controller\ICON V1.1\Network\main.c
                  __pa_73   0x0074dc    program     static E:\Working\VMS\Source\Keil\VMS Controller\ICON V1.1\Network\TCPIP Stack\TCP.c
                  __pa_73   0x00d1d4    program     static E:\Working\VMS\Source\Keil\VMS Controller\ICON V1.1\Network\TCPIP Stack\BerkeleyAPI.c
                  __pa_73   0x009840    program     static E:\Working\VMS\Source\Keil\VMS Controller\ICON V1.1\Network\TCPIP Stack\HTTP2.c
                  __pa_73   0x00b122    program     static E:\Working\VMS\Source\Keil\VMS Controller\ICON V1.1\Network\main.c
                  __pa_73   0x00c29a    program     static E:\Working\VMS\Source\Keil\VMS Controller\ICON V1.1\Network\CustomHTTPApp.c
                  __pa_74   0x00b12a    program     static E:\Working\VMS\Source\Keil\VMS Controller\ICON V1.1\Network\main.c
                  __pa_74   0x00984e    program     static E:\Working\VMS\Source\Keil\VMS Controller\ICON V1.1\Network\TCPIP Stack\HTTP2.c
                  __pa_74   0x00d1dc    program     static E:\Working\VMS\Source\Keil\VMS Controller\ICON V1.1\Network\TCPIP Stack\BerkeleyAPI.c
                  __pa_74   0x0074e6    program     static E:\Working\VMS\Source\Keil\VMS Controller\ICON V1.1\Network\TCPIP Stack\TCP.c
                  __pa_74   0x00c2a4    program     static E:\Working\VMS\Source\Keil\VMS Controller\ICON V1.1\Network\CustomHTTPApp.c
                  __pa_75   0x0074f8    program     static E:\Working\VMS\Source\Keil\VMS Controller\ICON V1.1\Network\TCPIP Stack\TCP.c
                  __pa_75   0x00b138    program     static E:\Working\VMS\Source\Keil\VMS Controller\ICON V1.1\Network\main.c
                  __pa_75   0x00d1e2    program     static E:\Working\VMS\Source\Keil\VMS Controller\ICON V1.1\Network\TCPIP Stack\BerkeleyAPI.c
                  __pa_75   0x00985c    program     static E:\Working\VMS\Source\Keil\VMS Controller\ICON V1.1\Network\TCPIP Stack\HTTP2.c
                  __pa_75   0x00c2aa    program     static E:\Working\VMS\Source\Keil\VMS Controller\ICON V1.1\Network\CustomHTTPApp.c
                  __pa_76   0x00986a    program     static E:\Working\VMS\Source\Keil\VMS Controller\ICON V1.1\Network\TCPIP Stack\HTTP2.c
                  __pa_76   0x00d1f6    program     static E:\Working\VMS\Source\Keil\VMS Controller\ICON V1.1\Network\TCPIP Stack\BerkeleyAPI.c
                  __pa_76   0x00c2b2    program     static E:\Working\VMS\Source\Keil\VMS Controller\ICON V1.1\Network\CustomHTTPApp.c
                  __pa_76   0x007506    program     static E:\Working\VMS\Source\Keil\VMS Controller\ICON V1.1\Network\TCPIP Stack\TCP.c
                  __pa_76   0x00b144    program     static E:\Working\VMS\Source\Keil\VMS Controller\ICON V1.1\Network\main.c
                  __pa_77   0x00b152    program     static E:\Working\VMS\Source\Keil\VMS Controller\ICON V1.1\Network\main.c
                  __pa_77   0x00d1fe    program     static E:\Working\VMS\Source\Keil\VMS Controller\ICON V1.1\Network\TCPIP Stack\BerkeleyAPI.c
                  __pa_77   0x00c2bc    program     static E:\Working\VMS\Source\Keil\VMS Controller\ICON V1.1\Network\CustomHTTPApp.c
                  __pa_77   0x007514    program     static E:\Working\VMS\Source\Keil\VMS Controller\ICON V1.1\Network\TCPIP Stack\TCP.c
                  __pa_77   0x009878    program     static E:\Working\VMS\Source\Keil\VMS Controller\ICON V1.1\Network\TCPIP Stack\HTTP2.c
                  __pa_78   0x00d208    program     static E:\Working\VMS\Source\Keil\VMS Controller\ICON V1.1\Network\TCPIP Stack\BerkeleyAPI.c
                  __pa_78   0x00c2c2    program     static E:\Working\VMS\Source\Keil\VMS Controller\ICON V1.1\Network\CustomHTTPApp.c
                  __pa_78   0x00751e    program     static E:\Working\VMS\Source\Keil\VMS Controller\ICON V1.1\Network\TCPIP Stack\TCP.c
                  __pa_78   0x00b15c    program     static E:\Working\VMS\Source\Keil\VMS Controller\ICON V1.1\Network\main.c
                  __pa_78   0x009882    program     static E:\Working\VMS\Source\Keil\VMS Controller\ICON V1.1\Network\TCPIP Stack\HTTP2.c
                  __pa_79   0x00c2cc    program     static E:\Working\VMS\Source\Keil\VMS Controller\ICON V1.1\Network\CustomHTTPApp.c
                  __pa_79   0x00988c    program     static E:\Working\VMS\Source\Keil\VMS Controller\ICON V1.1\Network\TCPIP Stack\HTTP2.c
                  __pa_79   0x00752c    program     static E:\Working\VMS\Source\Keil\VMS Controller\ICON V1.1\Network\TCPIP Stack\TCP.c
                  __pa_79   0x00d218    program     static E:\Working\VMS\Source\Keil\VMS Controller\ICON V1.1\Network\TCPIP Stack\BerkeleyAPI.c
                   __pa_8   0x00bf24    program     static E:\Working\VMS\Source\Keil\VMS Controller\ICON V1.1\Network\CustomHTTPApp.c
                   __pa_8   0x00ec18    program     static E:\Working\VMS\Source\Keil\VMS Controller\ICON V1.1\Network\TCPIP Stack\Helpers.c
                   __pa_8   0x0094e2    program     static E:\Working\VMS\Source\Keil\VMS Controller\ICON V1.1\Network\TCPIP Stack\HTTP2.c
                   __pa_8   0x007056    program     static E:\Working\VMS\Source\Keil\VMS Controller\ICON V1.1\Network\TCPIP Stack\TCP.c
                   __pa_8   0x00ddd8    program     static E:\Working\VMS\Source\Keil\VMS Controller\ICON V1.1\Network\gprs.c
                   __pa_8   0x012d9c    program     static E:\Working\VMS\Source\Keil\VMS Controller\ICON V1.1\Network\TCPIP Stack\IP.c
                   __pa_8   0x00ad8a    program     static E:\Working\VMS\Source\Keil\VMS Controller\ICON V1.1\Network\main.c
                   __pa_8   0x012a7c    program     static E:\Working\VMS\Source\Keil\VMS Controller\ICON V1.1\Network\TCPIP Stack\ARP.c
                   __pa_8   0x0103b8    program     static E:\Working\VMS\Source\Keil\VMS Controller\ICON V1.1\Network\TCPIP Stack\UDP.c
                   __pa_8   0x00cec4    program     static E:\Working\VMS\Source\Keil\VMS Controller\ICON V1.1\Network\TCPIP Stack\BerkeleyAPI.c
                   __pa_8   0x00f6fc    program     static E:\Working\VMS\Source\Keil\VMS Controller\ICON V1.1\Network\TCPIP Stack\MPFS2.c
                   __pa_8   0x011876    program     static E:\Working\VMS\Source\Keil\VMS Controller\ICON V1.1\Network\TCPIP Stack\DHCP.c
                   __pa_8   0x011036    program     static E:\Working\VMS\Source\Keil\VMS Controller\ICON V1.1\Network\TCPIP Stack\ETH97J60.c
                  __pa_80   0x009896    program     static E:\Working\VMS\Source\Keil\VMS Controller\ICON V1.1\Network\TCPIP Stack\HTTP2.c
                  __pa_80   0x00c2d6    program     static E:\Working\VMS\Source\Keil\VMS Controller\ICON V1.1\Network\CustomHTTPApp.c
                  __pa_80   0x00753a    program     static E:\Working\VMS\Source\Keil\VMS Controller\ICON V1.1\Network\TCPIP Stack\TCP.c
                  __pa_80   0x00d222    program     static E:\Working\VMS\Source\Keil\VMS Controller\ICON V1.1\Network\TCPIP Stack\BerkeleyAPI.c
                  __pa_81   0x0098a0    program     static E:\Working\VMS\Source\Keil\VMS Controller\ICON V1.1\Network\TCPIP Stack\HTTP2.c
                  __pa_81   0x00c2de    program     static E:\Working\VMS\Source\Keil\VMS Controller\ICON V1.1\Network\CustomHTTPApp.c
                  __pa_81   0x007548    program     static E:\Working\VMS\Source\Keil\VMS Controller\ICON V1.1\Network\TCPIP Stack\TCP.c
                  __pa_81   0x00d22e    program     static E:\Working\VMS\Source\Keil\VMS Controller\ICON V1.1\Network\TCPIP Stack\BerkeleyAPI.c
                  __pa_82   0x00c2e4    program     static E:\Working\VMS\Source\Keil\VMS Controller\ICON V1.1\Network\CustomHTTPApp.c
                  __pa_82   0x0098b6    program     static E:\Working\VMS\Source\Keil\VMS Controller\ICON V1.1\Network\TCPIP Stack\HTTP2.c
                  __pa_82   0x007556    program     static E:\Working\VMS\Source\Keil\VMS Controller\ICON V1.1\Network\TCPIP Stack\TCP.c
                  __pa_82   0x00d238    program     static E:\Working\VMS\Source\Keil\VMS Controller\ICON V1.1\Network\TCPIP Stack\BerkeleyAPI.c
                  __pa_83   0x00d23e    program     static E:\Working\VMS\Source\Keil\VMS Controller\ICON V1.1\Network\TCPIP Stack\BerkeleyAPI.c
                  __pa_83   0x00c2f2    program     static E:\Working\VMS\Source\Keil\VMS Controller\ICON V1.1\Network\CustomHTTPApp.c
                  __pa_83   0x0098bc    program     static E:\Working\VMS\Source\Keil\VMS Controller\ICON V1.1\Network\TCPIP Stack\HTTP2.c
                  __pa_83   0x007562    program     static E:\Working\VMS\Source\Keil\VMS Controller\ICON V1.1\Network\TCPIP Stack\TCP.c
                  __pa_84   0x00c2f8    program     static E:\Working\VMS\Source\Keil\VMS Controller\ICON V1.1\Network\CustomHTTPApp.c
                  __pa_84   0x00d246    program     static E:\Working\VMS\Source\Keil\VMS Controller\ICON V1.1\Network\TCPIP Stack\BerkeleyAPI.c
                  __pa_84   0x0098ca    program     static E:\Working\VMS\Source\Keil\VMS Controller\ICON V1.1\Network\TCPIP Stack\HTTP2.c
                  __pa_84   0x00756c    program     static E:\Working\VMS\Source\Keil\VMS Controller\ICON V1.1\Network\TCPIP Stack\TCP.c
                  __pa_85   0x0098d4    program     static E:\Working\VMS\Source\Keil\VMS Controller\ICON V1.1\Network\TCPIP Stack\HTTP2.c
                  __pa_85   0x007576    program     static E:\Working\VMS\Source\Keil\VMS Controller\ICON V1.1\Network\TCPIP Stack\TCP.c
                  __pa_85   0x00d24c    program     static E:\Working\VMS\Source\Keil\VMS Controller\ICON V1.1\Network\TCPIP Stack\BerkeleyAPI.c
                  __pa_86   0x0098de    program     static E:\Working\VMS\Source\Keil\VMS Controller\ICON V1.1\Network\TCPIP Stack\HTTP2.c
                  __pa_86   0x00d252    program     static E:\Working\VMS\Source\Keil\VMS Controller\ICON V1.1\Network\TCPIP Stack\BerkeleyAPI.c
                  __pa_86   0x007580    program     static E:\Working\VMS\Source\Keil\VMS Controller\ICON V1.1\Network\TCPIP Stack\TCP.c
                  __pa_87   0x00758a    program     static E:\Working\VMS\Source\Keil\VMS Controller\ICON V1.1\Network\TCPIP Stack\TCP.c
                  __pa_87   0x0098ec    program     static E:\Working\VMS\Source\Keil\VMS Controller\ICON V1.1\Network\TCPIP Stack\HTTP2.c
                  __pa_87   0x00d258    program     static E:\Working\VMS\Source\Keil\VMS Controller\ICON V1.1\Network\TCPIP Stack\BerkeleyAPI.c
                  __pa_88   0x00d25e    program     static E:\Working\VMS\Source\Keil\VMS Controller\ICON V1.1\Network\TCPIP Stack\BerkeleyAPI.c
                  __pa_88   0x007594    program     static E:\Working\VMS\Source\Keil\VMS Controller\ICON V1.1\Network\TCPIP Stack\TCP.c
                  __pa_88   0x0098f6    program     static E:\Working\VMS\Source\Keil\VMS Controller\ICON V1.1\Network\TCPIP Stack\HTTP2.c
                  __pa_89   0x0075b0    program     static E:\Working\VMS\Source\Keil\VMS Controller\ICON V1.1\Network\TCPIP Stack\TCP.c
                  __pa_89   0x009900    program     static E:\Working\VMS\Source\Keil\VMS Controller\ICON V1.1\Network\TCPIP Stack\HTTP2.c
                   __pa_9   0x00ec22    program     static E:\Working\VMS\Source\Keil\VMS Controller\ICON V1.1\Network\TCPIP Stack\Helpers.c
                   __pa_9   0x00ad94    program     static E:\Working\VMS\Source\Keil\VMS Controller\ICON V1.1\Network\main.c
                   __pa_9   0x012daa    program     static E:\Working\VMS\Source\Keil\VMS Controller\ICON V1.1\Network\TCPIP Stack\IP.c
                   __pa_9   0x007082    program     static E:\Working\VMS\Source\Keil\VMS Controller\ICON V1.1\Network\TCPIP Stack\TCP.c
                   __pa_9   0x009508    program     static E:\Working\VMS\Source\Keil\VMS Controller\ICON V1.1\Network\TCPIP Stack\HTTP2.c
                   __pa_9   0x00bf44    program     static E:\Working\VMS\Source\Keil\VMS Controller\ICON V1.1\Network\CustomHTTPApp.c
                   __pa_9   0x011048    program     static E:\Working\VMS\Source\Keil\VMS Controller\ICON V1.1\Network\TCPIP Stack\ETH97J60.c
                   __pa_9   0x0103ce    program     static E:\Working\VMS\Source\Keil\VMS Controller\ICON V1.1\Network\TCPIP Stack\UDP.c
                   __pa_9   0x01187e    program     static E:\Working\VMS\Source\Keil\VMS Controller\ICON V1.1\Network\TCPIP Stack\DHCP.c
                   __pa_9   0x00f706    program     static E:\Working\VMS\Source\Keil\VMS Controller\ICON V1.1\Network\TCPIP Stack\MPFS2.c
                   __pa_9   0x012a98    program     static E:\Working\VMS\Source\Keil\VMS Controller\ICON V1.1\Network\TCPIP Stack\ARP.c
                   __pa_9   0x00ddde    program     static E:\Working\VMS\Source\Keil\VMS Controller\ICON V1.1\Network\gprs.c
                   __pa_9   0x00ced0    program     static E:\Working\VMS\Source\Keil\VMS Controller\ICON V1.1\Network\TCPIP Stack\BerkeleyAPI.c
                  __pa_90   0x0075be    program     static E:\Working\VMS\Source\Keil\VMS Controller\ICON V1.1\Network\TCPIP Stack\TCP.c
                  __pa_90   0x009908    program     static E:\Working\VMS\Source\Keil\VMS Controller\ICON V1.1\Network\TCPIP Stack\HTTP2.c
                  __pa_91   0x0075d8    program     static E:\Working\VMS\Source\Keil\VMS Controller\ICON V1.1\Network\TCPIP Stack\TCP.c
                  __pa_91   0x00991e    program     static E:\Working\VMS\Source\Keil\VMS Controller\ICON V1.1\Network\TCPIP Stack\HTTP2.c
                  __pa_92   0x009928    program     static E:\Working\VMS\Source\Keil\VMS Controller\ICON V1.1\Network\TCPIP Stack\HTTP2.c
                  __pa_92   0x0075f2    program     static E:\Working\VMS\Source\Keil\VMS Controller\ICON V1.1\Network\TCPIP Stack\TCP.c
                  __pa_93   0x0075fa    program     static E:\Working\VMS\Source\Keil\VMS Controller\ICON V1.1\Network\TCPIP Stack\TCP.c
                  __pa_93   0x009932    program     static E:\Working\VMS\Source\Keil\VMS Controller\ICON V1.1\Network\TCPIP Stack\HTTP2.c
                  __pa_94   0x00760a    program     static E:\Working\VMS\Source\Keil\VMS Controller\ICON V1.1\Network\TCPIP Stack\TCP.c
                  __pa_94   0x009940    program     static E:\Working\VMS\Source\Keil\VMS Controller\ICON V1.1\Network\TCPIP Stack\HTTP2.c
                  __pa_95   0x007614    program     static E:\Working\VMS\Source\Keil\VMS Controller\ICON V1.1\Network\TCPIP Stack\TCP.c
                  __pa_95   0x00994e    program     static E:\Working\VMS\Source\Keil\VMS Controller\ICON V1.1\Network\TCPIP Stack\HTTP2.c
                  __pa_96   0x00761e    program     static E:\Working\VMS\Source\Keil\VMS Controller\ICON V1.1\Network\TCPIP Stack\TCP.c
                  __pa_96   0x00995c    program     static E:\Working\VMS\Source\Keil\VMS Controller\ICON V1.1\Network\TCPIP Stack\HTTP2.c
                  __pa_97   0x007628    program     static E:\Working\VMS\Source\Keil\VMS Controller\ICON V1.1\Network\TCPIP Stack\TCP.c
                  __pa_97   0x009964    program     static E:\Working\VMS\Source\Keil\VMS Controller\ICON V1.1\Network\TCPIP Stack\HTTP2.c
                  __pa_98   0x007632    program     static E:\Working\VMS\Source\Keil\VMS Controller\ICON V1.1\Network\TCPIP Stack\TCP.c
                  __pa_98   0x00996e    program     static E:\Working\VMS\Source\Keil\VMS Controller\ICON V1.1\Network\TCPIP Stack\HTTP2.c
                  __pa_99   0x00763c    program     static E:\Working\VMS\Source\Keil\VMS Controller\ICON V1.1\Network\TCPIP Stack\TCP.c
                  __pa_99   0x00997e    program     static E:\Working\VMS\Source\Keil\VMS Controller\ICON V1.1\Network\TCPIP Stack\HTTP2.c
               __string_0   0x01204a    program     static E:\Working\VMS\Source\Keil\VMS Controller\ICON V1.1\Network\gprs.c
               __string_0   0x011988    program     static E:\Working\VMS\Source\Keil\VMS Controller\ICON V1.1\Network\TCPIP Stack\MPFS2.c
               __string_0   0x011ea4    program     static E:\Working\VMS\Source\Keil\VMS Controller\ICON V1.1\Network\CustomHTTPApp.c
               __string_0   0x011df7    program     static E:\Working\VMS\Source\Keil\VMS Controller\ICON V1.1\Network\TCPIP Stack\HTTP2.c
               __string_1   0x011e97    program     static E:\Working\VMS\Source\Keil\VMS Controller\ICON V1.1\Network\CustomHTTPApp.c
               __string_1   0x011de6    program     static E:\Working\VMS\Source\Keil\VMS Controller\ICON V1.1\Network\TCPIP Stack\HTTP2.c
               __string_1   0x012047    program     static E:\Working\VMS\Source\Keil\VMS Controller\ICON V1.1\Network\gprs.c
              __string_10   0x011e62    program     static E:\Working\VMS\Source\Keil\VMS Controller\ICON V1.1\Network\CustomHTTPApp.c
              __string_10   0x011dbd    program     static E:\Working\VMS\Source\Keil\VMS Controller\ICON V1.1\Network\TCPIP Stack\HTTP2.c
              __string_10   0x011faf    program     static E:\Working\VMS\Source\Keil\VMS Controller\ICON V1.1\Network\gprs.c
              __string_11   0x011e5d    program     static E:\Working\VMS\Source\Keil\VMS Controller\ICON V1.1\Network\CustomHTTPApp.c
              __string_11   0x011db9    program     static E:\Working\VMS\Source\Keil\VMS Controller\ICON V1.1\Network\TCPIP Stack\HTTP2.c
              __string_11   0x011fa3    program     static E:\Working\VMS\Source\Keil\VMS Controller\ICON V1.1\Network\gprs.c
              __string_12   0x011e58    program     static E:\Working\VMS\Source\Keil\VMS Controller\ICON V1.1\Network\CustomHTTPApp.c
              __string_12   0x011db5    program     static E:\Working\VMS\Source\Keil\VMS Controller\ICON V1.1\Network\TCPIP Stack\HTTP2.c
              __string_12   0x011f99    program     static E:\Working\VMS\Source\Keil\VMS Controller\ICON V1.1\Network\gprs.c
              __string_13   0x011e4b    program     static E:\Working\VMS\Source\Keil\VMS Controller\ICON V1.1\Network\CustomHTTPApp.c
              __string_13   0x011db1    program     static E:\Working\VMS\Source\Keil\VMS Controller\ICON V1.1\Network\TCPIP Stack\HTTP2.c
              __string_13   0x011f8d    program     static E:\Working\VMS\Source\Keil\VMS Controller\ICON V1.1\Network\gprs.c
              __string_14   0x011f81    program     static E:\Working\VMS\Source\Keil\VMS Controller\ICON V1.1\Network\gprs.c
              __string_14   0x011e40    program     static E:\Working\VMS\Source\Keil\VMS Controller\ICON V1.1\Network\CustomHTTPApp.c
              __string_14   0x011dad    program     static E:\Working\VMS\Source\Keil\VMS Controller\ICON V1.1\Network\TCPIP Stack\HTTP2.c
              __string_15   0x011f79    program     static E:\Working\VMS\Source\Keil\VMS Controller\ICON V1.1\Network\gprs.c
              __string_15   0x011e3b    program     static E:\Working\VMS\Source\Keil\VMS Controller\ICON V1.1\Network\CustomHTTPApp.c
              __string_15   0x011da9    program     static E:\Working\VMS\Source\Keil\VMS Controller\ICON V1.1\Network\TCPIP Stack\HTTP2.c
              __string_16   0x011f70    program     static E:\Working\VMS\Source\Keil\VMS Controller\ICON V1.1\Network\gprs.c
              __string_16   0x011e39    program     static E:\Working\VMS\Source\Keil\VMS Controller\ICON V1.1\Network\CustomHTTPApp.c
              __string_16   0x011da5    program     static E:\Working\VMS\Source\Keil\VMS Controller\ICON V1.1\Network\TCPIP Stack\HTTP2.c
              __string_17   0x011e37    program     static E:\Working\VMS\Source\Keil\VMS Controller\ICON V1.1\Network\CustomHTTPApp.c
              __string_17   0x011f65    program     static E:\Working\VMS\Source\Keil\VMS Controller\ICON V1.1\Network\gprs.c
              __string_17   0x011d9a    program     static E:\Working\VMS\Source\Keil\VMS Controller\ICON V1.1\Network\TCPIP Stack\HTTP2.c
              __string_18   0x011d90    program     static E:\Working\VMS\Source\Keil\VMS Controller\ICON V1.1\Network\TCPIP Stack\HTTP2.c
              __string_18   0x011f58    program     static E:\Working\VMS\Source\Keil\VMS Controller\ICON V1.1\Network\gprs.c
              __string_18   0x011e32    program     static E:\Working\VMS\Source\Keil\VMS Controller\ICON V1.1\Network\CustomHTTPApp.c
              __string_19   0x011e2d    program     static E:\Working\VMS\Source\Keil\VMS Controller\ICON V1.1\Network\CustomHTTPApp.c
              __string_19   0x011f4f    program     static E:\Working\VMS\Source\Keil\VMS Controller\ICON V1.1\Network\gprs.c
              __string_19   0x011d87    program     static E:\Working\VMS\Source\Keil\VMS Controller\ICON V1.1\Network\TCPIP Stack\HTTP2.c
               __string_2   0x011e8a    program     static E:\Working\VMS\Source\Keil\VMS Controller\ICON V1.1\Network\CustomHTTPApp.c
               __string_2   0x012041    program     static E:\Working\VMS\Source\Keil\VMS Controller\ICON V1.1\Network\gprs.c
               __string_2   0x011ddb    program     static E:\Working\VMS\Source\Keil\VMS Controller\ICON V1.1\Network\TCPIP Stack\HTTP2.c
              __string_20   0x011e28    program     static E:\Working\VMS\Source\Keil\VMS Controller\ICON V1.1\Network\CustomHTTPApp.c
              __string_20   0x011f4b    program     static E:\Working\VMS\Source\Keil\VMS Controller\ICON V1.1\Network\gprs.c
              __string_20   0x011d7e    program     static E:\Working\VMS\Source\Keil\VMS Controller\ICON V1.1\Network\TCPIP Stack\HTTP2.c
              __string_21   0x011e23    program     static E:\Working\VMS\Source\Keil\VMS Controller\ICON V1.1\Network\CustomHTTPApp.c
              __string_21   0x011f47    program     static E:\Working\VMS\Source\Keil\VMS Controller\ICON V1.1\Network\gprs.c
              __string_21   0x011d74    program     static E:\Working\VMS\Source\Keil\VMS Controller\ICON V1.1\Network\TCPIP Stack\HTTP2.c
              __string_22   0x011d6a    program     static E:\Working\VMS\Source\Keil\VMS Controller\ICON V1.1\Network\TCPIP Stack\HTTP2.c
              __string_22   0x011e1e    program     static E:\Working\VMS\Source\Keil\VMS Controller\ICON V1.1\Network\CustomHTTPApp.c
              __string_22   0x011f3a    program     static E:\Working\VMS\Source\Keil\VMS Controller\ICON V1.1\Network\gprs.c
              __string_23   0x011e16    program     static E:\Working\VMS\Source\Keil\VMS Controller\ICON V1.1\Network\CustomHTTPApp.c
              __string_23   0x011d5f    program     static E:\Working\VMS\Source\Keil\VMS Controller\ICON V1.1\Network\TCPIP Stack\HTTP2.c
              __string_23   0x011f2f    program     static E:\Working\VMS\Source\Keil\VMS Controller\ICON V1.1\Network\gprs.c
              __string_24   0x011d4b    program     static E:\Working\VMS\Source\Keil\VMS Controller\ICON V1.1\Network\TCPIP Stack\HTTP2.c
              __string_24   0x011f1f    program     static E:\Working\VMS\Source\Keil\VMS Controller\ICON V1.1\Network\gprs.c
              __string_24   0x011e14    program     static E:\Working\VMS\Source\Keil\VMS Controller\ICON V1.1\Network\CustomHTTPApp.c
              __string_25   0x011f13    program     static E:\Working\VMS\Source\Keil\VMS Controller\ICON V1.1\Network\gprs.c
              __string_25   0x011d3e    program     static E:\Working\VMS\Source\Keil\VMS Controller\ICON V1.1\Network\TCPIP Stack\HTTP2.c
              __string_25   0x011e0b    program     static E:\Working\VMS\Source\Keil\VMS Controller\ICON V1.1\Network\CustomHTTPApp.c
              __string_26   0x011e02    program     static E:\Working\VMS\Source\Keil\VMS Controller\ICON V1.1\Network\CustomHTTPApp.c
              __string_26   0x011f11    program     static E:\Working\VMS\Source\Keil\VMS Controller\ICON V1.1\Network\gprs.c
              __string_26   0x011d3d    program     static E:\Working\VMS\Source\Keil\VMS Controller\ICON V1.1\Network\TCPIP Stack\HTTP2.c
              __string_27   0x011d18    program     static E:\Working\VMS\Source\Keil\VMS Controller\ICON V1.1\Network\TCPIP Stack\HTTP2.c
              __string_27   0x011f0f    program     static E:\Working\VMS\Source\Keil\VMS Controller\ICON V1.1\Network\gprs.c
              __string_28   0x011f06    program     static E:\Working\VMS\Source\Keil\VMS Controller\ICON V1.1\Network\gprs.c
              __string_28   0x011cba    program     static E:\Working\VMS\Source\Keil\VMS Controller\ICON V1.1\Network\TCPIP Stack\HTTP2.c
              __string_29   0x011ef9    program     static E:\Working\VMS\Source\Keil\VMS Controller\ICON V1.1\Network\gprs.c
              __string_29   0x011c39    program     static E:\Working\VMS\Source\Keil\VMS Controller\ICON V1.1\Network\TCPIP Stack\HTTP2.c
               __string_3   0x011dd6    program     static E:\Working\VMS\Source\Keil\VMS Controller\ICON V1.1\Network\TCPIP Stack\HTTP2.c
               __string_3   0x01203c    program     static E:\Working\VMS\Source\Keil\VMS Controller\ICON V1.1\Network\gprs.c
               __string_3   0x012074    program     static E:\Working\VMS\Source\Keil\VMS Controller\ICON V1.1\Network\main.c
               __string_3   0x011e7d    program     static E:\Working\VMS\Source\Keil\VMS Controller\ICON V1.1\Network\CustomHTTPApp.c
              __string_30   0x011eec    program     static E:\Working\VMS\Source\Keil\VMS Controller\ICON V1.1\Network\gprs.c
              __string_30   0x011bf6    program     static E:\Working\VMS\Source\Keil\VMS Controller\ICON V1.1\Network\TCPIP Stack\HTTP2.c
              __string_31   0x011edf    program     static E:\Working\VMS\Source\Keil\VMS Controller\ICON V1.1\Network\gprs.c
              __string_31   0x011b89    program     static E:\Working\VMS\Source\Keil\VMS Controller\ICON V1.1\Network\TCPIP Stack\HTTP2.c
              __string_32   0x011ed2    program     static E:\Working\VMS\Source\Keil\VMS Controller\ICON V1.1\Network\gprs.c
              __string_32   0x011b19    program     static E:\Working\VMS\Source\Keil\VMS Controller\ICON V1.1\Network\TCPIP Stack\HTTP2.c
              __string_33   0x011ec5    program     static E:\Working\VMS\Source\Keil\VMS Controller\ICON V1.1\Network\gprs.c
              __string_33   0x011ab3    program     static E:\Working\VMS\Source\Keil\VMS Controller\ICON V1.1\Network\TCPIP Stack\HTTP2.c
              __string_34   0x011ec2    program     static E:\Working\VMS\Source\Keil\VMS Controller\ICON V1.1\Network\gprs.c
              __string_34   0x011a81    program     static E:\Working\VMS\Source\Keil\VMS Controller\ICON V1.1\Network\TCPIP Stack\HTTP2.c
              __string_35   0x011eb1    program     static E:\Working\VMS\Source\Keil\VMS Controller\ICON V1.1\Network\gprs.c
              __string_35   0x011a2a    program     static E:\Working\VMS\Source\Keil\VMS Controller\ICON V1.1\Network\TCPIP Stack\HTTP2.c
              __string_36   0x011a22    program     static E:\Working\VMS\Source\Keil\VMS Controller\ICON V1.1\Network\TCPIP Stack\HTTP2.c
              __string_37   0x011a13    program     static E:\Working\VMS\Source\Keil\VMS Controller\ICON V1.1\Network\TCPIP Stack\HTTP2.c
              __string_38   0x011a03    program     static E:\Working\VMS\Source\Keil\VMS Controller\ICON V1.1\Network\TCPIP Stack\HTTP2.c
              __string_39   0x0119ff    program     static E:\Working\VMS\Source\Keil\VMS Controller\ICON V1.1\Network\TCPIP Stack\HTTP2.c
               __string_4   0x012037    program     static E:\Working\VMS\Source\Keil\VMS Controller\ICON V1.1\Network\gprs.c
               __string_4   0x012071    program     static E:\Working\VMS\Source\Keil\VMS Controller\ICON V1.1\Network\main.c
               __string_4   0x011e7a    program     static E:\Working\VMS\Source\Keil\VMS Controller\ICON V1.1\Network\CustomHTTPApp.c
              __string_40   0x0119fa    program     static E:\Working\VMS\Source\Keil\VMS Controller\ICON V1.1\Network\TCPIP Stack\HTTP2.c
              __string_41   0x0119f0    program     static E:\Working\VMS\Source\Keil\VMS Controller\ICON V1.1\Network\TCPIP Stack\HTTP2.c
              __string_42   0x0119dd    program     static E:\Working\VMS\Source\Keil\VMS Controller\ICON V1.1\Network\TCPIP Stack\HTTP2.c
              __string_43   0x0119ce    program     static E:\Working\VMS\Source\Keil\VMS Controller\ICON V1.1\Network\TCPIP Stack\HTTP2.c
              __string_44   0x0119b5    program     static E:\Working\VMS\Source\Keil\VMS Controller\ICON V1.1\Network\TCPIP Stack\HTTP2.c
              __string_45   0x0119a5    program     static E:\Working\VMS\Source\Keil\VMS Controller\ICON V1.1\Network\TCPIP Stack\HTTP2.c
              __string_46   0x01199c    program     static E:\Working\VMS\Source\Keil\VMS Controller\ICON V1.1\Network\TCPIP Stack\HTTP2.c
              __string_47   0x011993    program     static E:\Working\VMS\Source\Keil\VMS Controller\ICON V1.1\Network\TCPIP Stack\HTTP2.c
              __string_48   0x01198f    program     static E:\Working\VMS\Source\Keil\VMS Controller\ICON V1.1\Network\TCPIP Stack\HTTP2.c
               __string_5   0x01206b    program     static E:\Working\VMS\Source\Keil\VMS Controller\ICON V1.1\Network\main.c
               __string_5   0x011e77    program     static E:\Working\VMS\Source\Keil\VMS Controller\ICON V1.1\Network\CustomHTTPApp.c
               __string_5   0x012025    program     static E:\Working\VMS\Source\Keil\VMS Controller\ICON V1.1\Network\gprs.c
               __string_5   0x011dd2    program     static E:\Working\VMS\Source\Keil\VMS Controller\ICON V1.1\Network\TCPIP Stack\HTTP2.c
               __string_6   0x012061    program     static E:\Working\VMS\Source\Keil\VMS Controller\ICON V1.1\Network\main.c
               __string_6   0x011e73    program     static E:\Working\VMS\Source\Keil\VMS Controller\ICON V1.1\Network\CustomHTTPApp.c
               __string_6   0x01201d    program     static E:\Working\VMS\Source\Keil\VMS Controller\ICON V1.1\Network\gprs.c
               __string_6   0x011dce    program     static E:\Working\VMS\Source\Keil\VMS Controller\ICON V1.1\Network\TCPIP Stack\HTTP2.c
               __string_7   0x012001    program     static E:\Working\VMS\Source\Keil\VMS Controller\ICON V1.1\Network\gprs.c
               __string_7   0x011dc9    program     static E:\Working\VMS\Source\Keil\VMS Controller\ICON V1.1\Network\TCPIP Stack\HTTP2.c
               __string_7   0x012057    program     static E:\Working\VMS\Source\Keil\VMS Controller\ICON V1.1\Network\main.c
               __string_7   0x011e6f    program     static E:\Working\VMS\Source\Keil\VMS Controller\ICON V1.1\Network\CustomHTTPApp.c
               __string_8   0x011fdd    program     static E:\Working\VMS\Source\Keil\VMS Controller\ICON V1.1\Network\gprs.c
               __string_8   0x01204d    program     static E:\Working\VMS\Source\Keil\VMS Controller\ICON V1.1\Network\main.c
               __string_8   0x011e6a    program     static E:\Working\VMS\Source\Keil\VMS Controller\ICON V1.1\Network\CustomHTTPApp.c
               __string_8   0x011dc5    program     static E:\Working\VMS\Source\Keil\VMS Controller\ICON V1.1\Network\TCPIP Stack\HTTP2.c
               __string_9   0x011e66    program     static E:\Working\VMS\Source\Keil\VMS Controller\ICON V1.1\Network\CustomHTTPApp.c
               __string_9   0x011fbc    program     static E:\Working\VMS\Source\Keil\VMS Controller\ICON V1.1\Network\gprs.c
               __string_9   0x011dc1    program     static E:\Working\VMS\Source\Keil\VMS Controller\ICON V1.1\Network\TCPIP Stack\HTTP2.c
               __tmplbl_0   0x00e13e    program     static                          
              __tmplbl_10   0x01090a    program     static                          
              __tmplbl_10   0x00a098    program     static                          
             __tmplbl_101   0x00704e    program     static                          
             __tmplbl_102   0x00704e    program     static                          
             __tmplbl_103   0x00704e    program     static                          
             __tmplbl_104   0x00704e    program     static                          
             __tmplbl_105   0x00704e    program     static                          
             __tmplbl_106   0x00704e    program     static                          
             __tmplbl_108   0x00951c    program     static                          
             __tmplbl_108   0x00704e    program     static                          
              __tmplbl_11   0x00a100    program     static                          
              __tmplbl_11   0x010908    program     static                          
              __tmplbl_11   0x00dfc0    program     static                          
             __tmplbl_110   0x00704e    program     static                          
             __tmplbl_111   0x00704e    program     static                          
             __tmplbl_112   0x00704e    program     static                          
             __tmplbl_113   0x00704e    program     static                          
             __tmplbl_116   0x00704e    program     static                          
             __tmplbl_119   0x00704e    program     static                          
              __tmplbl_12   0x00a12a    program     static                          
              __tmplbl_12   0x0109d4    program     static                          
              __tmplbl_12   0x00dfc0    program     static                          
             __tmplbl_120   0x00704e    program     static                          
              __tmplbl_13   0x00a120    program     static                          
              __tmplbl_13   0x0109c6    program     static                          
              __tmplbl_13   0x00dfc0    program     static                          
              __tmplbl_13   0x01035c    program     static                          
             __tmplbl_132   0x00704e    program     static                          
             __tmplbl_133   0x00704e    program     static                          
              __tmplbl_14   0x0109cc    program     static                          
              __tmplbl_14   0x00a1c6    program     static                          
              __tmplbl_15   0x00a1ac    program     static                          
             __tmplbl_150   0x00704e    program     static                          
             __tmplbl_153   0x00704e    program     static                          
             __tmplbl_154   0x00704e    program     static                          
             __tmplbl_155   0x00704e    program     static                          
             __tmplbl_158   0x006c26    program     static                          
              __tmplbl_16   0x00a1c4    program     static                          
              __tmplbl_16   0x00cf2c    program     static                          
             __tmplbl_160   0x006c26    program     static                          
             __tmplbl_161   0x006c34    program     static                          
             __tmplbl_167   0x006c34    program     static                          
             __tmplbl_169   0x006c34    program     static                          
              __tmplbl_17   0x00a29a    program     static                          
              __tmplbl_17   0x00cfd8    program     static                          
             __tmplbl_170   0x006c34    program     static                          
              __tmplbl_18   0x00a294    program     static                          
              __tmplbl_18   0x00cf2c    program     static                          
             __tmplbl_215   0x007fec    program     static                          
             __tmplbl_216   0x007cfc    program     static                          
             __tmplbl_217   0x007bf2    program     static                          
             __tmplbl_218   0x007bf2    program     static                          
             __tmplbl_219   0x007da4    program     static                          
              __tmplbl_24   0x00cf2c    program     static                          
              __tmplbl_25   0x010fee    program     static                          
              __tmplbl_27   0x00cfd8    program     static                          
              __tmplbl_27   0x00a500    program     static                          
              __tmplbl_28   0x00a538    program     static                          
              __tmplbl_29   0x00a51c    program     static                          
               __tmplbl_3   0x009d48    program     static                          
              __tmplbl_30   0x00a536    program     static                          
              __tmplbl_31   0x00a59a    program     static                          
              __tmplbl_32   0x00a600    program     static                          
              __tmplbl_33   0x00bf1c    program     static                          
              __tmplbl_33   0x00a5fa    program     static                          
              __tmplbl_34   0x00a636    program     static                          
              __tmplbl_34   0x00bf1c    program     static                          
              __tmplbl_35   0x00a62e    program     static                          
              __tmplbl_35   0x00bf1c    program     static                          
              __tmplbl_36   0x00bf1c    program     static                          
              __tmplbl_37   0x00bf1c    program     static                          
              __tmplbl_38   0x00bf1c    program     static                          
              __tmplbl_38   0x00ad8a    program     static                          
              __tmplbl_39   0x00e0ba    program     static                          
              __tmplbl_39   0x00bf1c    program     static                          
               __tmplbl_4   0x009d9e    program     static                          
              __tmplbl_40   0x00e15a    program     static                          
              __tmplbl_40   0x00bf1c    program     static                          
              __tmplbl_41   0x00e19a    program     static                          
              __tmplbl_41   0x009f74    program     static                          
              __tmplbl_42   0x009fdc    program     static                          
              __tmplbl_42   0x00e1fe    program     static                          
              __tmplbl_44   0x00ad8a    program     static                          
              __tmplbl_46   0x00ad8a    program     static                          
              __tmplbl_47   0x00ad8a    program     static                          
              __tmplbl_49   0x00ad8a    program     static                          
               __tmplbl_5   0x009dfa    program     static                          
               __tmplbl_5   0x01096c    program     static                          
              __tmplbl_51   0x00ad8a    program     static                          
              __tmplbl_52   0x00ad8a    program     static                          
              __tmplbl_53   0x00bf1c    program     static                          
              __tmplbl_58   0x00f6de    program     static                          
               __tmplbl_6   0x010958    program     static                          
               __tmplbl_6   0x009df4    program     static                          
               __tmplbl_7   0x010942    program     static                          
               __tmplbl_7   0x009e12    program     static                          
               __tmplbl_8   0x01092e    program     static                          
               __tmplbl_8   0x009ec8    program     static                          
              __tmplbl_81   0x00704e    program     static                          
              __tmplbl_82   0x00951c    program     static                          
              __tmplbl_83   0x00704e    program     static                          
              __tmplbl_83   0x00951c    program     static                          
              __tmplbl_84   0x00951c    program     static                          
              __tmplbl_85   0x00951c    program     static                          
              __tmplbl_87   0x00704e    program     static                          
              __tmplbl_89   0x00704e    program     static                          
               __tmplbl_9   0x010918    program     static                          
               __tmplbl_9   0x009ec0    program     static                          
              __tmplbl_90   0x00704e    program     static                          
              __tmplbl_91   0x00704e    program     static                          
              __tmplbl_92   0x00704e    program     static                          
              __tmplbl_93   0x00704e    program     static                          
              __tmplbl_94   0x00704e    program     static                          
              __tmplbl_95   0x00704e    program     static                          
              __tmplbl_97   0x00704e    program     static                          
              __tmplbl_99   0x00704e    program     static                          
            __zero_memory   0x013cd0    program     extern C:\MCC18\src\traditional\proc\p18F97J60.asm
                   _addBI   0x012080    program     extern TCPIP Stack\BigInt_helper.asm
                _addBIROM   0x012104    program     extern TCPIP Stack\BigInt_helper.asm
                  _copyBI   0x0125e6    program     extern TCPIP Stack\BigInt_helper.asm
                _do_cinit   0x013b4c    program     extern C:\MCC18\src\traditional\startup\c018i.c
                   _entry   0x000000    program     extern C:\MCC18\src\traditional\startup\c018i.c
                   _false   0x013c9e    program     static                          
                   _masBI   0x01247c    program     extern TCPIP Stack\BigInt_helper.asm
                _masBIROM   0x012536    program     extern TCPIP Stack\BigInt_helper.asm
                   _msbBI   0x0122a8    program     extern TCPIP Stack\BigInt_helper.asm
                   _mulBI   0x0122c8    program     extern TCPIP Stack\BigInt_helper.asm
                _mulBIROM   0x01233c    program     extern TCPIP Stack\BigInt_helper.asm
                   _sqrBI   0x0123b0    program     extern TCPIP Stack\BigInt_helper.asm
                 _startup   0x013d1c    program     extern C:\MCC18\src\traditional\startup\c018i.c
                   _subBI   0x012186    program     extern TCPIP Stack\BigInt_helper.asm
                _subBIROM   0x01220a    program     extern TCPIP Stack\BigInt_helper.asm
                  _zeroBI   0x01228c    program     extern TCPIP Stack\BigInt_helper.asm
                  aDo8Add   0x0120b0    program     static TCPIP Stack\BigInt_helper.asm
            aDoFinalCarry   0x0120e8    program     static TCPIP Stack\BigInt_helper.asm
           aDoResidualAdd   0x0120dc    program     static TCPIP Stack\BigInt_helper.asm
                    aDone   0x0120f2    program     static TCPIP Stack\BigInt_helper.asm
                 aRDo8Add   0x012130    program     static TCPIP Stack\BigInt_helper.asm
           aRDoFinalCarry   0x01217a    program     static TCPIP Stack\BigInt_helper.asm
          aRDoResidualAdd   0x01216c    program     static TCPIP Stack\BigInt_helper.asm
                   aRDone   0x012184    program     static TCPIP Stack\BigInt_helper.asm
               aRTest8Add   0x012164    program     static TCPIP Stack\BigInt_helper.asm
        aRTestResidualAdd   0x012172    program     static TCPIP Stack\BigInt_helper.asm
                aTest8Add   0x0120d4    program     static TCPIP Stack\BigInt_helper.asm
         aTestResidualAdd   0x0120e0    program     static TCPIP Stack\BigInt_helper.asm
                   accept   0x00c61a    program     extern E:\Working\VMS\Source\Keil\VMS Controller\ICON V1.1\Network\TCPIP Stack\BerkeleyAPI.c
                     atol   0x01361e    program     extern C:\MCC18\src\traditional\stdclib\atol.asm
                     bind   0x00c422    program     extern E:\Working\VMS\Source\Keil\VMS Controller\ICON V1.1\Network\TCPIP Stack\BerkeleyAPI.c
             btohexa_high   0x00e792    program     extern E:\Working\VMS\Source\Keil\VMS Controller\ICON V1.1\Network\TCPIP Stack\Helpers.c
              btohexa_low   0x00e7ba    program     extern E:\Working\VMS\Source\Keil\VMS Controller\ICON V1.1\Network\TCPIP Stack\Helpers.c
                    cLoop   0x012604    program     static TCPIP Stack\BigInt_helper.asm
                    cZero   0x01261c    program     static TCPIP Stack\BigInt_helper.asm
                cZeroTest   0x01261e    program     static TCPIP Stack\BigInt_helper.asm
              closesocket   0x00ccd8    program     extern E:\Working\VMS\Source\Keil\VMS Controller\ICON V1.1\Network\TCPIP Stack\BerkeleyAPI.c
         compareByteArray   0x00b28c    program     extern E:\Working\VMS\Source\Keil\VMS Controller\ICON V1.1\Network\CustomHTTPApp.c
                compare_l   0x013cf2    program     static C:\MCC18\src\traditional\proc\p18F97J60.asm
                configSIM   0x00d264    program     extern E:\Working\VMS\Source\Keil\VMS Controller\ICON V1.1\Network\gprs.c
                  connect   0x00c770    program     extern E:\Working\VMS\Source\Keil\VMS Controller\ICON V1.1\Network\TCPIP Stack\BerkeleyAPI.c
                  convert   0x00dc4c    program     static E:\Working\VMS\Source\Keil\VMS Controller\ICON V1.1\Network\gprs.c
                copy_loop   0x013bbe    program     static                          
            copy_one_byte   0x013bc4    program     static                          
             deinit_uart1   0x013314    program     extern E:\Working\VMS\Source\Keil\VMS Controller\ICON V1.1\Network\uart.c
             deinit_uart2   0x0133dc    program     extern E:\Working\VMS\Source\Keil\VMS Controller\ICON V1.1\Network\uart.c
                     done   0x013be8    program     static                          
             done_copying   0x013bd2    program     static                          
                  endloop   0x013cca    program     static                          
                  endloop   0x013d4e    program     static                          
             factoryReset   0x00a6d8    program     extern E:\Working\VMS\Source\Keil\VMS Controller\ICON V1.1\Network\main.c
          flashEraseBlock   0x01387c    program     extern E:\Working\VMS\Source\Keil\VMS Controller\ICON V1.1\Network\flash.c
           flashReadBlock   0x0137e2    program     extern E:\Working\VMS\Source\Keil\VMS Controller\ICON V1.1\Network\flash.c
            flashReadByte   0x0137b0    program     extern E:\Working\VMS\Source\Keil\VMS Controller\ICON V1.1\Network\flash.c
          flashWriteBlock   0x0138b2    program     extern E:\Working\VMS\Source\Keil\VMS Controller\ICON V1.1\Network\flash.c
              gethostname   0x00cbfe    program     extern E:\Working\VMS\Source\Keil\VMS Controller\ICON V1.1\Network\TCPIP Stack\BerkeleyAPI.c
                  hexatob   0x00e748    program     extern E:\Working\VMS\Source\Keil\VMS Controller\ICON V1.1\Network\TCPIP Stack\Helpers.c
         httpContentTypes   0x013c11    program     static E:\Working\VMS\Source\Keil\VMS Controller\ICON V1.1\Network\TCPIP Stack\HTTP2.c
       httpFileExtensions   0x013bed    program     static E:\Working\VMS\Source\Keil\VMS Controller\ICON V1.1\Network\TCPIP Stack\HTTP2.c
               init_board   0x00a4a6    program     extern E:\Working\VMS\Source\Keil\VMS Controller\ICON V1.1\Network\main.c
               init_uart1   0x0132a6    program     extern E:\Working\VMS\Source\Keil\VMS Controller\ICON V1.1\Network\uart.c
               init_uart2   0x013370    program     extern E:\Working\VMS\Source\Keil\VMS Controller\ICON V1.1\Network\uart.c
                     jEnd   0x01303c    program     static C:\MCC18\src\traditional\stdclib\strupr.asm
                     jEnd   0x012f3a    program     static C:\MCC18\src\traditional\stdclib\strcmp.asm
                     jEnd   0x012e92    program     static C:\MCC18\src\traditional\stdclib\mcpyp2r.asm
                     jEnd   0x012df6    program     static C:\MCC18\src\traditional\stdclib\mcmpp2r.asm
                     jEnd   0x012f7a    program     static C:\MCC18\src\traditional\stdclib\scmpp2r.asm
                     jEnd   0x012ec6    program     static C:\MCC18\src\traditional\stdclib\memset.asm
                     jEnd   0x012fac    program     static C:\MCC18\src\traditional\stdclib\scpyp2r.asm
                     jEnd   0x012e3c    program     static C:\MCC18\src\traditional\stdclib\memcpy.asm
                     jEnd   0x01373c    program     static C:\MCC18\src\traditional\stdclib\atol.asm
                     jEnd   0x013000    program     static C:\MCC18\src\traditional\stdclib\slenpgm.asm
                     jEnd   0x012fc8    program     static C:\MCC18\src\traditional\stdclib\strlen.asm
                 jEndLoop   0x01370c    program     static C:\MCC18\src\traditional\stdclib\atol.asm
                    jLoop   0x012e74    program     static C:\MCC18\src\traditional\stdclib\mcpyp2r.asm
                    jLoop   0x012e20    program     static C:\MCC18\src\traditional\stdclib\memcpy.asm
                    jLoop   0x01367e    program     static C:\MCC18\src\traditional\stdclib\atol.asm
                    jLoop   0x012dd8    program     static C:\MCC18\src\traditional\stdclib\mcmpp2r.asm
                    jLoop   0x012ea8    program     static C:\MCC18\src\traditional\stdclib\memset.asm
                    jLoop   0x013028    program     static C:\MCC18\src\traditional\stdclib\strupr.asm
                    jLoop   0x012fe8    program     static C:\MCC18\src\traditional\stdclib\slenpgm.asm
                    jLoop   0x012fbe    program     static C:\MCC18\src\traditional\stdclib\strlen.asm
                    jLoop   0x012ef6    program     static C:\MCC18\src\traditional\stdclib\strcat.asm
                    jLoop   0x012fa2    program     static C:\MCC18\src\traditional\stdclib\scpyp2r.asm
                    jLoop   0x012f6e    program     static C:\MCC18\src\traditional\stdclib\scmpp2r.asm
                    jLoop   0x012f30    program     static C:\MCC18\src\traditional\stdclib\strcmp.asm
                jNullLoop   0x012ef0    program     static C:\MCC18\src\traditional\stdclib\strcat.asm
                    jSkip   0x013038    program     static C:\MCC18\src\traditional\stdclib\strupr.asm
                  jSkipWS   0x013654    program     static C:\MCC18\src\traditional\stdclib\atol.asm
                 jSkipWS1   0x013666    program     static C:\MCC18\src\traditional\stdclib\atol.asm
                 jTstSign   0x01366a    program     static C:\MCC18\src\traditional\stdclib\atol.asm
                jTstSign1   0x013676    program     static C:\MCC18\src\traditional\stdclib\atol.asm
                jTstSign2   0x01367c    program     static C:\MCC18\src\traditional\stdclib\atol.asm
                jTstSign3   0x01367e    program     static C:\MCC18\src\traditional\stdclib\atol.asm
          leftRotateDWORD   0x00ea4c    program     extern E:\Working\VMS\Source\Keil\VMS Controller\ICON V1.1\Network\TCPIP Stack\Helpers.c
                   listen   0x00c4c8    program     extern E:\Working\VMS\Source\Keil\VMS Controller\ICON V1.1\Network\TCPIP Stack\BerkeleyAPI.c
                     loop   0x013c6a    program     static                          
                     loop   0x013d2c    program     static                          
                     loop   0x013cae    program     static                          
                     loop   0x013d40    program     static                          
                   loop_h   0x013cea    program     static C:\MCC18\src\traditional\proc\p18F97J60.asm
                   loop_l   0x013cf4    program     static C:\MCC18\src\traditional\proc\p18F97J60.asm
                    mDone   0x01232a    program     static TCPIP Stack\BigInt_helper.asm
                   mLoadB   0x0122dc    program     static TCPIP Stack\BigInt_helper.asm
              mLoadBAgain   0x0122e6    program     static TCPIP Stack\BigInt_helper.asm
                   mLoopA   0x012306    program     static TCPIP Stack\BigInt_helper.asm
                   mRDone   0x01239e    program     static TCPIP Stack\BigInt_helper.asm
                  mRLoadB   0x01235a    program     static TCPIP Stack\BigInt_helper.asm
             mRLoadBAgain   0x01235c    program     static TCPIP Stack\BigInt_helper.asm
                  mRLoopA   0x01237a    program     static TCPIP Stack\BigInt_helper.asm
                 m_memcpy   0x009aec    program     extern E:\Working\VMS\Source\Keil\VMS Controller\ICON V1.1\Network\main.c
                     main   0x009cf4    program     extern E:\Working\VMS\Source\Keil\VMS Controller\ICON V1.1\Network\main.c
           masFinalBorrow   0x012522    program     static TCPIP Stack\BigInt_helper.asm
                  masLoop   0x01250a    program     static TCPIP Stack\BigInt_helper.asm
                 masLoop4   0x0124b2    program     static TCPIP Stack\BigInt_helper.asm
             masLoop4Init   0x012498    program     static TCPIP Stack\BigInt_helper.asm
              masLoopInit   0x012506    program     static TCPIP Stack\BigInt_helper.asm
          masRFinalBorrow   0x0125e2    program     static TCPIP Stack\BigInt_helper.asm
                 masRLoop   0x0125c8    program     static TCPIP Stack\BigInt_helper.asm
                masRLoop4   0x012568    program     static TCPIP Stack\BigInt_helper.asm
            masRLoop4Init   0x01254e    program     static TCPIP Stack\BigInt_helper.asm
             masRLoopInit   0x0125c4    program     static TCPIP Stack\BigInt_helper.asm
            memcmppgm2ram   0x012dba    program     extern C:\MCC18\src\traditional\stdclib\mcmpp2r.asm
                   memcpy   0x012df8    program     extern C:\MCC18\src\traditional\stdclib\memcpy.asm
            memcpypgm2ram   0x012e4e    program     extern C:\MCC18\src\traditional\stdclib\mcpyp2r.asm
                   memset   0x012e94    program     extern C:\MCC18\src\traditional\stdclib\memset.asm
                 msbFound   0x0122be    program     static TCPIP Stack\BigInt_helper.asm
                  msbLoop   0x0122b2    program     static TCPIP Stack\BigInt_helper.asm
                  my_atoi   0x00b166    program     static E:\Working\VMS\Source\Keil\VMS Controller\ICON V1.1\Network\CustomHTTPApp.c
                    qDone   0x01246a    program     static TCPIP Stack\BigInt_helper.asm
               qInnerByte   0x012436    program     static TCPIP Stack\BigInt_helper.asm
               qInnerDone   0x012460    program     static TCPIP Stack\BigInt_helper.asm
               qInnerLoop   0x01242a    program     static TCPIP Stack\BigInt_helper.asm
                 qNextOut   0x0123fc    program     static TCPIP Stack\BigInt_helper.asm
               qOuterLoop   0x0123d0    program     static TCPIP Stack\BigInt_helper.asm
                     rand   0x013782    program     extern C:\MCC18\src\traditional\stdclib\rand.asm
                     recv   0x00cb12    program     extern E:\Working\VMS\Source\Keil\VMS Controller\ICON V1.1\Network\TCPIP Stack\BerkeleyAPI.c
                 recvfrom   0x00cb68    program     extern E:\Working\VMS\Source\Keil\VMS Controller\ICON V1.1\Network\TCPIP Stack\BerkeleyAPI.c
             sDo8Subtract   0x0121b6    program     static TCPIP Stack\BigInt_helper.asm
            sDoFinalCarry   0x0121ee    program     static TCPIP Stack\BigInt_helper.asm
      sDoResidualSubtract   0x0121e2    program     static TCPIP Stack\BigInt_helper.asm
                    sDone   0x0121f8    program     static TCPIP Stack\BigInt_helper.asm
            sRDo8Subtract   0x012236    program     static TCPIP Stack\BigInt_helper.asm
           sRDoFinalCarry   0x012280    program     static TCPIP Stack\BigInt_helper.asm
     sRDoResidualSubtract   0x012272    program     static TCPIP Stack\BigInt_helper.asm
                   sRDone   0x01228a    program     static TCPIP Stack\BigInt_helper.asm
          sRTest8Subtract   0x01226a    program     static TCPIP Stack\BigInt_helper.asm
   sRTestResidualSubtract   0x012278    program     static TCPIP Stack\BigInt_helper.asm
           sTest8Subtract   0x0121da    program     static TCPIP Stack\BigInt_helper.asm
    sTestResidualSubtract   0x0121e6    program     static TCPIP Stack\BigInt_helper.asm
                     send   0x00c8e0    program     extern E:\Working\VMS\Source\Keil\VMS Controller\ICON V1.1\Network\TCPIP Stack\BerkeleyAPI.c
                   sendto   0x00c908    program     extern E:\Working\VMS\Source\Keil\VMS Controller\ICON V1.1\Network\TCPIP Stack\BerkeleyAPI.c
                   socket   0x00c364    program     extern E:\Working\VMS\Source\Keil\VMS Controller\ICON V1.1\Network\TCPIP Stack\BerkeleyAPI.c
                    srand   0x013774    program     extern C:\MCC18\src\traditional\stdclib\rand.asm
            start_connect   0x00ab88    program     extern E:\Working\VMS\Source\Keil\VMS Controller\ICON V1.1\Network\main.c
                 str_cmpx   0x00db28    program     extern E:\Working\VMS\Source\Keil\VMS Controller\ICON V1.1\Network\gprs.c
                   strcat   0x012ec8    program     extern C:\MCC18\src\traditional\stdclib\strcat.asm
                   strcmp   0x012f10    program     extern C:\MCC18\src\traditional\stdclib\strcmp.asm
            strcmppgm2ram   0x012f50    program     extern C:\MCC18\src\traditional\stdclib\scmpp2r.asm
            strcpypgm2ram   0x012f7c    program     extern C:\MCC18\src\traditional\stdclib\scpyp2r.asm
           stricmppgm2ram   0x00e7de    program     extern E:\Working\VMS\Source\Keil\VMS Controller\ICON V1.1\Network\TCPIP Stack\Helpers.c
             stringToDate   0x00b1fa    program     extern E:\Working\VMS\Source\Keil\VMS Controller\ICON V1.1\Network\CustomHTTPApp.c
             stringToTime   0x00b222    program     extern E:\Working\VMS\Source\Keil\VMS Controller\ICON V1.1\Network\CustomHTTPApp.c
                   strlen   0x012fae    program     extern C:\MCC18\src\traditional\stdclib\strlen.asm
                strlenpgm   0x012fca    program     extern C:\MCC18\src\traditional\stdclib\slenpgm.asm
                  strnchr   0x00eb20    program     extern E:\Working\VMS\Source\Keil\VMS Controller\ICON V1.1\Network\TCPIP Stack\Helpers.c
                   strupr   0x013014    program     extern C:\MCC18\src\traditional\stdclib\strupr.asm
                    swapl   0x00e8e4    program     extern E:\Working\VMS\Source\Keil\VMS Controller\ICON V1.1\Network\TCPIP Stack\Helpers.c
                    swaps   0x00e89e    program     extern E:\Working\VMS\Source\Keil\VMS Controller\ICON V1.1\Network\TCPIP Stack\Helpers.c
                     test   0x013b66    program     static                          
                  testSIM   0x00d99e    program     extern E:\Working\VMS\Source\Keil\VMS Controller\ICON V1.1\Network\gprs.c
             transferData   0x00a692    program     extern E:\Working\VMS\Source\Keil\VMS Controller\ICON V1.1\Network\main.c
               uart1_getc   0x01336c    program     extern E:\Working\VMS\Source\Keil\VMS Controller\ICON V1.1\Network\uart.c
       uart1_putROMString   0x01332e    program     extern E:\Working\VMS\Source\Keil\VMS Controller\ICON V1.1\Network\uart.c
          uart1_putString   0x013348    program     extern E:\Working\VMS\Source\Keil\VMS Controller\ICON V1.1\Network\uart.c
               uart1_putc   0x013320    program     extern E:\Working\VMS\Source\Keil\VMS Controller\ICON V1.1\Network\uart.c
               uart2_getc   0x013434    program     extern E:\Working\VMS\Source\Keil\VMS Controller\ICON V1.1\Network\uart.c
       uart2_putROMString   0x0133f6    program     extern E:\Working\VMS\Source\Keil\VMS Controller\ICON V1.1\Network\uart.c
          uart2_putString   0x013410    program     extern E:\Working\VMS\Source\Keil\VMS Controller\ICON V1.1\Network\uart.c
               uart2_putc   0x0133e8    program     extern E:\Working\VMS\Source\Keil\VMS Controller\ICON V1.1\Network\uart.c
                    uitoa   0x00e652    program     extern E:\Working\VMS\Source\Keil\VMS Controller\ICON V1.1\Network\TCPIP Stack\Helpers.c
                    zLoop   0x012298    program     static TCPIP Stack\BigInt_helper.asm
               zero_block   0x013cea    program     static C:\MCC18\src\traditional\proc\p18F97J60.asm
                   ADCON0   0x000fc2       data     extern C:\MCC18\src\traditional\proc\p18F97J60.asm
               ADCON0bits   0x000fc2       data     extern C:\MCC18\src\traditional\proc\p18F97J60.asm
                   ADCON1   0x000fc1       data     extern C:\MCC18\src\traditional\proc\p18F97J60.asm
               ADCON1bits   0x000fc1       data     extern C:\MCC18\src\traditional\proc\p18F97J60.asm
                   ADCON2   0x000fc0       data     extern C:\MCC18\src\traditional\proc\p18F97J60.asm
               ADCON2bits   0x000fc0       data     extern C:\MCC18\src\traditional\proc\p18F97J60.asm
                    ADRES   0x000fc3       data     extern C:\MCC18\src\traditional\proc\p18F97J60.asm
                   ADRESH   0x000fc4       data     extern C:\MCC18\src\traditional\proc\p18F97J60.asm
                   ADRESL   0x000fc3       data     extern C:\MCC18\src\traditional\proc\p18F97J60.asm
                AppConfig   0x000600       data     extern E:\Working\VMS\Source\Keil\VMS Controller\ICON V1.1\Network\main.c
                  BAUDCON   0x000f7e       data     extern C:\MCC18\src\traditional\proc\p18F97J60.asm
                 BAUDCON1   0x000f7e       data     extern C:\MCC18\src\traditional\proc\p18F97J60.asm
             BAUDCON1bits   0x000f7e       data     extern C:\MCC18\src\traditional\proc\p18F97J60.asm
                 BAUDCON2   0x000f7c       data     extern C:\MCC18\src\traditional\proc\p18F97J60.asm
             BAUDCON2bits   0x000f7c       data     extern C:\MCC18\src\traditional\proc\p18F97J60.asm
              BAUDCONbits   0x000f7e       data     extern C:\MCC18\src\traditional\proc\p18F97J60.asm
                  BAUDCTL   0x000f7e       data     extern C:\MCC18\src\traditional\proc\p18F97J60.asm
                 BAUDCTL1   0x000f7e       data     extern C:\MCC18\src\traditional\proc\p18F97J60.asm
             BAUDCTL1bits   0x000f7e       data     extern C:\MCC18\src\traditional\proc\p18F97J60.asm
                 BAUDCTL2   0x000f7c       data     extern C:\MCC18\src\traditional\proc\p18F97J60.asm
             BAUDCTL2bits   0x000f7c       data     extern C:\MCC18\src\traditional\proc\p18F97J60.asm
              BAUDCTLbits   0x000f7e       data     extern C:\MCC18\src\traditional\proc\p18F97J60.asm
           BSDClientState   0x000296       data     extern E:\Working\VMS\Source\Keil\VMS Controller\ICON V1.1\Network\BerkeleyTCPClient.c
           BSDSocketArray   0x0003cd       data     extern E:\Working\VMS\Source\Keil\VMS Controller\ICON V1.1\Network\TCPIP Stack\BerkeleyAPI.c
                      BSR   0x000fe0       data     extern C:\MCC18\src\traditional\proc\p18F97J60.asm
                  CCP1CON   0x000fbd       data     extern C:\MCC18\src\traditional\proc\p18F97J60.asm
              CCP1CONbits   0x000fbd       data     extern C:\MCC18\src\traditional\proc\p18F97J60.asm
                  CCP2CON   0x000fba       data     extern C:\MCC18\src\traditional\proc\p18F97J60.asm
              CCP2CONbits   0x000fba       data     extern C:\MCC18\src\traditional\proc\p18F97J60.asm
                  CCP3CON   0x000fb7       data     extern C:\MCC18\src\traditional\proc\p18F97J60.asm
              CCP3CONbits   0x000fb7       data     extern C:\MCC18\src\traditional\proc\p18F97J60.asm
                  CCP4CON   0x000f73       data     extern C:\MCC18\src\traditional\proc\p18F97J60.asm
              CCP4CONbits   0x000f73       data     extern C:\MCC18\src\traditional\proc\p18F97J60.asm
                  CCP5CON   0x000f70       data     extern C:\MCC18\src\traditional\proc\p18F97J60.asm
              CCP5CONbits   0x000f70       data     extern C:\MCC18\src\traditional\proc\p18F97J60.asm
                    CCPR1   0x000fbe       data     extern C:\MCC18\src\traditional\proc\p18F97J60.asm
                   CCPR1H   0x000fbf       data     extern C:\MCC18\src\traditional\proc\p18F97J60.asm
                   CCPR1L   0x000fbe       data     extern C:\MCC18\src\traditional\proc\p18F97J60.asm
                    CCPR2   0x000fbb       data     extern C:\MCC18\src\traditional\proc\p18F97J60.asm
                   CCPR2H   0x000fbc       data     extern C:\MCC18\src\traditional\proc\p18F97J60.asm
                   CCPR2L   0x000fbb       data     extern C:\MCC18\src\traditional\proc\p18F97J60.asm
                    CCPR3   0x000fb8       data     extern C:\MCC18\src\traditional\proc\p18F97J60.asm
                   CCPR3H   0x000fb9       data     extern C:\MCC18\src\traditional\proc\p18F97J60.asm
                   CCPR3L   0x000fb8       data     extern C:\MCC18\src\traditional\proc\p18F97J60.asm
                    CCPR4   0x000f74       data     extern C:\MCC18\src\traditional\proc\p18F97J60.asm
                   CCPR4H   0x000f75       data     extern C:\MCC18\src\traditional\proc\p18F97J60.asm
                   CCPR4L   0x000f74       data     extern C:\MCC18\src\traditional\proc\p18F97J60.asm
                    CCPR5   0x000f71       data     extern C:\MCC18\src\traditional\proc\p18F97J60.asm
                   CCPR5H   0x000f72       data     extern C:\MCC18\src\traditional\proc\p18F97J60.asm
                   CCPR5L   0x000f71       data     extern C:\MCC18\src\traditional\proc\p18F97J60.asm
                    CMCON   0x000fb4       data     extern C:\MCC18\src\traditional\proc\p18F97J60.asm
                CMCONbits   0x000fb4       data     extern C:\MCC18\src\traditional\proc\p18F97J60.asm
                   CVRCON   0x000fb5       data     extern C:\MCC18\src\traditional\proc\p18F97J60.asm
               CVRCONbits   0x000fb5       data     extern C:\MCC18\src\traditional\proc\p18F97J60.asm
                    Cache   0x0003eb       data     static E:\Working\VMS\Source\Keil\VMS Controller\ICON V1.1\Network\TCPIP Stack\ARP.c
                CarryByte   0x0000fe       data     static TCPIP Stack\BigInt_helper.asm
                   CarryH   0x0000ff       data     static TCPIP Stack\BigInt_helper.asm
    CurrentPacketLocation   0x000f59       data     static E:\Working\VMS\Source\Keil\VMS Controller\ICON V1.1\Network\TCPIP Stack\ETH97J60.c
                     DDRA   0x000f92       data     extern C:\MCC18\src\traditional\proc\p18F97J60.asm
                 DDRAbits   0x000f92       data     extern C:\MCC18\src\traditional\proc\p18F97J60.asm
                     DDRB   0x000f93       data     extern C:\MCC18\src\traditional\proc\p18F97J60.asm
                 DDRBbits   0x000f93       data     extern C:\MCC18\src\traditional\proc\p18F97J60.asm
                     DDRC   0x000f94       data     extern C:\MCC18\src\traditional\proc\p18F97J60.asm
                 DDRCbits   0x000f94       data     extern C:\MCC18\src\traditional\proc\p18F97J60.asm
                     DDRD   0x000f95       data     extern C:\MCC18\src\traditional\proc\p18F97J60.asm
                 DDRDbits   0x000f95       data     extern C:\MCC18\src\traditional\proc\p18F97J60.asm
                     DDRE   0x000f96       data     extern C:\MCC18\src\traditional\proc\p18F97J60.asm
                 DDREbits   0x000f96       data     extern C:\MCC18\src\traditional\proc\p18F97J60.asm
                     DDRF   0x000f97       data     extern C:\MCC18\src\traditional\proc\p18F97J60.asm
                 DDRFbits   0x000f97       data     extern C:\MCC18\src\traditional\proc\p18F97J60.asm
                     DDRG   0x000f98       data     extern C:\MCC18\src\traditional\proc\p18F97J60.asm
                 DDRGbits   0x000f98       data     extern C:\MCC18\src\traditional\proc\p18F97J60.asm
                     DDRH   0x000f99       data     extern C:\MCC18\src\traditional\proc\p18F97J60.asm
                 DDRHbits   0x000f99       data     extern C:\MCC18\src\traditional\proc\p18F97J60.asm
                     DDRJ   0x000f9a       data     extern C:\MCC18\src\traditional\proc\p18F97J60.asm
                 DDRJbits   0x000f9a       data     extern C:\MCC18\src\traditional\proc\p18F97J60.asm
               DHCPClient   0x000100       data     static E:\Working\VMS\Source\Keil\VMS Controller\ICON V1.1\Network\TCPIP Stack\DHCP.c
DHCPClientInitializedOnce   0x0002b1       data     extern E:\Working\VMS\Source\Keil\VMS Controller\ICON V1.1\Network\TCPIP Stack\DHCP.c
            DelayCounter1   0x000024       data     extern C:\MCC18\src\traditional\delays\delayd1.asm
                  ECCP1AS   0x000fb6       data     extern C:\MCC18\src\traditional\proc\p18F97J60.asm
              ECCP1ASbits   0x000fb6       data     extern C:\MCC18\src\traditional\proc\p18F97J60.asm
                 ECCP1CON   0x000fbd       data     extern C:\MCC18\src\traditional\proc\p18F97J60.asm
             ECCP1CONbits   0x000fbd       data     extern C:\MCC18\src\traditional\proc\p18F97J60.asm
                 ECCP1DEL   0x000f79       data     extern C:\MCC18\src\traditional\proc\p18F97J60.asm
             ECCP1DELbits   0x000f79       data     extern C:\MCC18\src\traditional\proc\p18F97J60.asm
                  ECCP2AS   0x000f68       data     extern C:\MCC18\src\traditional\proc\p18F97J60.asm
              ECCP2ASbits   0x000f68       data     extern C:\MCC18\src\traditional\proc\p18F97J60.asm
                 ECCP2CON   0x000fba       data     extern C:\MCC18\src\traditional\proc\p18F97J60.asm
             ECCP2CONbits   0x000fba       data     extern C:\MCC18\src\traditional\proc\p18F97J60.asm
                 ECCP2DEL   0x000f67       data     extern C:\MCC18\src\traditional\proc\p18F97J60.asm
             ECCP2DELbits   0x000f67       data     extern C:\MCC18\src\traditional\proc\p18F97J60.asm
                  ECCP3AS   0x000f6a       data     extern C:\MCC18\src\traditional\proc\p18F97J60.asm
              ECCP3ASbits   0x000f6a       data     extern C:\MCC18\src\traditional\proc\p18F97J60.asm
                 ECCP3CON   0x000fb7       data     extern C:\MCC18\src\traditional\proc\p18F97J60.asm
             ECCP3CONbits   0x000fb7       data     extern C:\MCC18\src\traditional\proc\p18F97J60.asm
                 ECCP3DEL   0x000f69       data     extern C:\MCC18\src\traditional\proc\p18F97J60.asm
             ECCP3DELbits   0x000f69       data     extern C:\MCC18\src\traditional\proc\p18F97J60.asm
                    ECON1   0x000fd2       data     extern C:\MCC18\src\traditional\proc\p18F97J60.asm
                ECON1bits   0x000fd2       data     extern C:\MCC18\src\traditional\proc\p18F97J60.asm
                    ECON2   0x000efe       data     extern C:\MCC18\src\traditional\proc\p18F97J60.asm
                ECON2bits   0x000efe       data     extern C:\MCC18\src\traditional\proc\p18F97J60.asm
                    EDATA   0x000f61       data     extern C:\MCC18\src\traditional\proc\p18F97J60.asm
                EDATAbits   0x000f61       data     extern C:\MCC18\src\traditional\proc\p18F97J60.asm
                   EDMACS   0x000ef6       data     extern C:\MCC18\src\traditional\proc\p18F97J60.asm
                  EDMACSH   0x000ef7       data     extern C:\MCC18\src\traditional\proc\p18F97J60.asm
                  EDMACSL   0x000ef6       data     extern C:\MCC18\src\traditional\proc\p18F97J60.asm
                  EDMADST   0x000ef4       data     extern C:\MCC18\src\traditional\proc\p18F97J60.asm
                 EDMADSTH   0x000ef5       data     extern C:\MCC18\src\traditional\proc\p18F97J60.asm
                 EDMADSTL   0x000ef4       data     extern C:\MCC18\src\traditional\proc\p18F97J60.asm
                   EDMAND   0x000ef2       data     extern C:\MCC18\src\traditional\proc\p18F97J60.asm
                  EDMANDH   0x000ef3       data     extern C:\MCC18\src\traditional\proc\p18F97J60.asm
                  EDMANDL   0x000ef2       data     extern C:\MCC18\src\traditional\proc\p18F97J60.asm
                   EDMAST   0x000ef0       data     extern C:\MCC18\src\traditional\proc\p18F97J60.asm
                  EDMASTH   0x000ef1       data     extern C:\MCC18\src\traditional\proc\p18F97J60.asm
                  EDMASTL   0x000ef0       data     extern C:\MCC18\src\traditional\proc\p18F97J60.asm
                   EECON1   0x000fa6       data     extern C:\MCC18\src\traditional\proc\p18F97J60.asm
               EECON1bits   0x000fa6       data     extern C:\MCC18\src\traditional\proc\p18F97J60.asm
                   EECON2   0x000fa7       data     extern C:\MCC18\src\traditional\proc\p18F97J60.asm
                  EFLOCON   0x000e97       data     extern C:\MCC18\src\traditional\proc\p18F97J60.asm
              EFLOCONbits   0x000e97       data     extern C:\MCC18\src\traditional\proc\p18F97J60.asm
                     EHT0   0x000ec0       data     extern C:\MCC18\src\traditional\proc\p18F97J60.asm
                     EHT1   0x000ec1       data     extern C:\MCC18\src\traditional\proc\p18F97J60.asm
                     EHT2   0x000ec2       data     extern C:\MCC18\src\traditional\proc\p18F97J60.asm
                     EHT3   0x000ec3       data     extern C:\MCC18\src\traditional\proc\p18F97J60.asm
                     EHT4   0x000ec4       data     extern C:\MCC18\src\traditional\proc\p18F97J60.asm
                     EHT5   0x000ec5       data     extern C:\MCC18\src\traditional\proc\p18F97J60.asm
                     EHT6   0x000ec6       data     extern C:\MCC18\src\traditional\proc\p18F97J60.asm
                     EHT7   0x000ec7       data     extern C:\MCC18\src\traditional\proc\p18F97J60.asm
                      EIE   0x000efb       data     extern C:\MCC18\src\traditional\proc\p18F97J60.asm
                  EIEbits   0x000efb       data     extern C:\MCC18\src\traditional\proc\p18F97J60.asm
                      EIR   0x000f60       data     extern C:\MCC18\src\traditional\proc\p18F97J60.asm
                  EIRbits   0x000f60       data     extern C:\MCC18\src\traditional\proc\p18F97J60.asm
                    EPAUS   0x000e98       data     extern C:\MCC18\src\traditional\proc\p18F97J60.asm
                   EPAUSH   0x000e99       data     extern C:\MCC18\src\traditional\proc\p18F97J60.asm
                   EPAUSL   0x000e98       data     extern C:\MCC18\src\traditional\proc\p18F97J60.asm
                  EPKTCNT   0x000ed9       data     extern C:\MCC18\src\traditional\proc\p18F97J60.asm
                    EPMCS   0x000ed0       data     extern C:\MCC18\src\traditional\proc\p18F97J60.asm
                   EPMCSH   0x000ed1       data     extern C:\MCC18\src\traditional\proc\p18F97J60.asm
                   EPMCSL   0x000ed0       data     extern C:\MCC18\src\traditional\proc\p18F97J60.asm
                    EPMM0   0x000ec8       data     extern C:\MCC18\src\traditional\proc\p18F97J60.asm
                    EPMM1   0x000ec9       data     extern C:\MCC18\src\traditional\proc\p18F97J60.asm
                    EPMM2   0x000eca       data     extern C:\MCC18\src\traditional\proc\p18F97J60.asm
                    EPMM3   0x000ecb       data     extern C:\MCC18\src\traditional\proc\p18F97J60.asm
                    EPMM4   0x000ecc       data     extern C:\MCC18\src\traditional\proc\p18F97J60.asm
                    EPMM5   0x000ecd       data     extern C:\MCC18\src\traditional\proc\p18F97J60.asm
                    EPMM6   0x000ece       data     extern C:\MCC18\src\traditional\proc\p18F97J60.asm
                    EPMM7   0x000ecf       data     extern C:\MCC18\src\traditional\proc\p18F97J60.asm
                     EPMO   0x000ed4       data     extern C:\MCC18\src\traditional\proc\p18F97J60.asm
                    EPMOH   0x000ed5       data     extern C:\MCC18\src\traditional\proc\p18F97J60.asm
                    EPMOL   0x000ed4       data     extern C:\MCC18\src\traditional\proc\p18F97J60.asm
                    ERDPT   0x000f7a       data     extern C:\MCC18\src\traditional\proc\p18F97J60.asm
                   ERDPTH   0x000f7b       data     extern C:\MCC18\src\traditional\proc\p18F97J60.asm
                   ERDPTL   0x000f7a       data     extern C:\MCC18\src\traditional\proc\p18F97J60.asm
                  ERXFCON   0x000ed8       data     extern C:\MCC18\src\traditional\proc\p18F97J60.asm
              ERXFCONbits   0x000ed8       data     extern C:\MCC18\src\traditional\proc\p18F97J60.asm
                    ERXND   0x000eea       data     extern C:\MCC18\src\traditional\proc\p18F97J60.asm
                   ERXNDH   0x000eeb       data     extern C:\MCC18\src\traditional\proc\p18F97J60.asm
                   ERXNDL   0x000eea       data     extern C:\MCC18\src\traditional\proc\p18F97J60.asm
                  ERXRDPT   0x000eec       data     extern C:\MCC18\src\traditional\proc\p18F97J60.asm
                 ERXRDPTH   0x000eed       data     extern C:\MCC18\src\traditional\proc\p18F97J60.asm
                 ERXRDPTL   0x000eec       data     extern C:\MCC18\src\traditional\proc\p18F97J60.asm
                    ERXST   0x000ee8       data     extern C:\MCC18\src\traditional\proc\p18F97J60.asm
                   ERXSTH   0x000ee9       data     extern C:\MCC18\src\traditional\proc\p18F97J60.asm
                   ERXSTL   0x000ee8       data     extern C:\MCC18\src\traditional\proc\p18F97J60.asm
                  ERXWRPT   0x000eee       data     extern C:\MCC18\src\traditional\proc\p18F97J60.asm
                 ERXWRPTH   0x000eef       data     extern C:\MCC18\src\traditional\proc\p18F97J60.asm
                 ERXWRPTL   0x000eee       data     extern C:\MCC18\src\traditional\proc\p18F97J60.asm
                    ESTAT   0x000efd       data     extern C:\MCC18\src\traditional\proc\p18F97J60.asm
                ESTATbits   0x000efd       data     extern C:\MCC18\src\traditional\proc\p18F97J60.asm
                    ETXND   0x000ee6       data     extern C:\MCC18\src\traditional\proc\p18F97J60.asm
                   ETXNDH   0x000ee7       data     extern C:\MCC18\src\traditional\proc\p18F97J60.asm
                   ETXNDL   0x000ee6       data     extern C:\MCC18\src\traditional\proc\p18F97J60.asm
                    ETXST   0x000ee4       data     extern C:\MCC18\src\traditional\proc\p18F97J60.asm
                   ETXSTH   0x000ee5       data     extern C:\MCC18\src\traditional\proc\p18F97J60.asm
                   ETXSTL   0x000ee4       data     extern C:\MCC18\src\traditional\proc\p18F97J60.asm
                    EWRPT   0x000ee2       data     extern C:\MCC18\src\traditional\proc\p18F97J60.asm
                   EWRPTH   0x000ee3       data     extern C:\MCC18\src\traditional\proc\p18F97J60.asm
                   EWRPTL   0x000ee2       data     extern C:\MCC18\src\traditional\proc\p18F97J60.asm
                     FSR0   0x000fe9       data     extern C:\MCC18\src\traditional\proc\p18F97J60.asm
                    FSR0H   0x000fea       data     extern C:\MCC18\src\traditional\proc\p18F97J60.asm
                    FSR0L   0x000fe9       data     extern C:\MCC18\src\traditional\proc\p18F97J60.asm
                     FSR1   0x000fe1       data     extern C:\MCC18\src\traditional\proc\p18F97J60.asm
                    FSR1H   0x000fe2       data     extern C:\MCC18\src\traditional\proc\p18F97J60.asm
                    FSR1L   0x000fe1       data     extern C:\MCC18\src\traditional\proc\p18F97J60.asm
                     FSR2   0x000fd9       data     extern C:\MCC18\src\traditional\proc\p18F97J60.asm
                    FSR2H   0x000fda       data     extern C:\MCC18\src\traditional\proc\p18F97J60.asm
                    FSR2L   0x000fd9       data     extern C:\MCC18\src\traditional\proc\p18F97J60.asm
                    Flags   0x000133       data     static E:\Working\VMS\Source\Keil\VMS Controller\ICON V1.1\Network\TCPIP Stack\UDP.c
                    INDF0   0x000fef       data     extern C:\MCC18\src\traditional\proc\p18F97J60.asm
                    INDF1   0x000fe7       data     extern C:\MCC18\src\traditional\proc\p18F97J60.asm
                    INDF2   0x000fdf       data     extern C:\MCC18\src\traditional\proc\p18F97J60.asm
                   INTCON   0x000ff2       data     extern C:\MCC18\src\traditional\proc\p18F97J60.asm
                  INTCON2   0x000ff1       data     extern C:\MCC18\src\traditional\proc\p18F97J60.asm
              INTCON2bits   0x000ff1       data     extern C:\MCC18\src\traditional\proc\p18F97J60.asm
                  INTCON3   0x000ff0       data     extern C:\MCC18\src\traditional\proc\p18F97J60.asm
              INTCON3bits   0x000ff0       data     extern C:\MCC18\src\traditional\proc\p18F97J60.asm
               INTCONbits   0x000ff2       data     extern C:\MCC18\src\traditional\proc\p18F97J60.asm
              IPHeaderLen   0x00029f       data     static E:\Working\VMS\Source\Keil\VMS Controller\ICON V1.1\Network\TCPIP Stack\IP.c
                     IPR1   0x000f9f       data     extern C:\MCC18\src\traditional\proc\p18F97J60.asm
                 IPR1bits   0x000f9f       data     extern C:\MCC18\src\traditional\proc\p18F97J60.asm
                     IPR2   0x000fa2       data     extern C:\MCC18\src\traditional\proc\p18F97J60.asm
                 IPR2bits   0x000fa2       data     extern C:\MCC18\src\traditional\proc\p18F97J60.asm
                     IPR3   0x000fa5       data     extern C:\MCC18\src\traditional\proc\p18F97J60.asm
                 IPR3bits   0x000fa5       data     extern C:\MCC18\src\traditional\proc\p18F97J60.asm
                 IPServer   0x000a53       data     extern E:\Working\VMS\Source\Keil\VMS Controller\ICON V1.1\Network\main.c
                     LATA   0x000f89       data     extern C:\MCC18\src\traditional\proc\p18F97J60.asm
                 LATAbits   0x000f89       data     extern C:\MCC18\src\traditional\proc\p18F97J60.asm
                     LATB   0x000f8a       data     extern C:\MCC18\src\traditional\proc\p18F97J60.asm
                 LATBbits   0x000f8a       data     extern C:\MCC18\src\traditional\proc\p18F97J60.asm
                     LATC   0x000f8b       data     extern C:\MCC18\src\traditional\proc\p18F97J60.asm
                 LATCbits   0x000f8b       data     extern C:\MCC18\src\traditional\proc\p18F97J60.asm
                     LATD   0x000f8c       data     extern C:\MCC18\src\traditional\proc\p18F97J60.asm
                 LATDbits   0x000f8c       data     extern C:\MCC18\src\traditional\proc\p18F97J60.asm
                     LATE   0x000f8d       data     extern C:\MCC18\src\traditional\proc\p18F97J60.asm
                 LATEbits   0x000f8d       data     extern C:\MCC18\src\traditional\proc\p18F97J60.asm
                     LATF   0x000f8e       data     extern C:\MCC18\src\traditional\proc\p18F97J60.asm
                 LATFbits   0x000f8e       data     extern C:\MCC18\src\traditional\proc\p18F97J60.asm
                     LATG   0x000f8f       data     extern C:\MCC18\src\traditional\proc\p18F97J60.asm
                 LATGbits   0x000f8f       data     extern C:\MCC18\src\traditional\proc\p18F97J60.asm
                     LATH   0x000f90       data     extern C:\MCC18\src\traditional\proc\p18F97J60.asm
                 LATHbits   0x000f90       data     extern C:\MCC18\src\traditional\proc\p18F97J60.asm
                     LATJ   0x000f91       data     extern C:\MCC18\src\traditional\proc\p18F97J60.asm
                 LATJbits   0x000f91       data     extern C:\MCC18\src\traditional\proc\p18F97J60.asm
            LastPutSocket   0x0002a8       data     static E:\Working\VMS\Source\Keil\VMS Controller\ICON V1.1\Network\TCPIP Stack\UDP.c
                   MAADR1   0x000e84       data     extern C:\MCC18\src\traditional\proc\p18F97J60.asm
                   MAADR2   0x000e85       data     extern C:\MCC18\src\traditional\proc\p18F97J60.asm
                   MAADR3   0x000e82       data     extern C:\MCC18\src\traditional\proc\p18F97J60.asm
                   MAADR4   0x000e83       data     extern C:\MCC18\src\traditional\proc\p18F97J60.asm
                   MAADR5   0x000e80       data     extern C:\MCC18\src\traditional\proc\p18F97J60.asm
                   MAADR6   0x000e81       data     extern C:\MCC18\src\traditional\proc\p18F97J60.asm
                  MABBIPG   0x000ea4       data     extern C:\MCC18\src\traditional\proc\p18F97J60.asm
                   MACON1   0x000ea0       data     extern C:\MCC18\src\traditional\proc\p18F97J60.asm
               MACON1bits   0x000ea0       data     extern C:\MCC18\src\traditional\proc\p18F97J60.asm
                   MACON3   0x000ea2       data     extern C:\MCC18\src\traditional\proc\p18F97J60.asm
               MACON3bits   0x000ea2       data     extern C:\MCC18\src\traditional\proc\p18F97J60.asm
                   MACON4   0x000ea3       data     extern C:\MCC18\src\traditional\proc\p18F97J60.asm
               MACON4bits   0x000ea3       data     extern C:\MCC18\src\traditional\proc\p18F97J60.asm
                    MAIPG   0x000ea6       data     extern C:\MCC18\src\traditional\proc\p18F97J60.asm
                   MAIPGH   0x000ea7       data     extern C:\MCC18\src\traditional\proc\p18F97J60.asm
                   MAIPGL   0x000ea6       data     extern C:\MCC18\src\traditional\proc\p18F97J60.asm
                   MAMXFL   0x000eaa       data     extern C:\MCC18\src\traditional\proc\p18F97J60.asm
                  MAMXFLH   0x000eab       data     extern C:\MCC18\src\traditional\proc\p18F97J60.asm
                  MAMXFLL   0x000eaa       data     extern C:\MCC18\src\traditional\proc\p18F97J60.asm
                   MEMCON   0x000f9c       data     extern C:\MCC18\src\traditional\proc\p18F97J60.asm
               MEMCONbits   0x000f9c       data     extern C:\MCC18\src\traditional\proc\p18F97J60.asm
                    MICMD   0x000eb2       data     extern C:\MCC18\src\traditional\proc\p18F97J60.asm
                MICMDbits   0x000eb2       data     extern C:\MCC18\src\traditional\proc\p18F97J60.asm
                     MIRD   0x000eb8       data     extern C:\MCC18\src\traditional\proc\p18F97J60.asm
                    MIRDH   0x000eb9       data     extern C:\MCC18\src\traditional\proc\p18F97J60.asm
                    MIRDL   0x000eb8       data     extern C:\MCC18\src\traditional\proc\p18F97J60.asm
                 MIREGADR   0x000eb4       data     extern C:\MCC18\src\traditional\proc\p18F97J60.asm
                   MISTAT   0x000e8a       data     extern C:\MCC18\src\traditional\proc\p18F97J60.asm
               MISTATbits   0x000e8a       data     extern C:\MCC18\src\traditional\proc\p18F97J60.asm
                     MIWR   0x000eb6       data     extern C:\MCC18\src\traditional\proc\p18F97J60.asm
                    MIWRH   0x000eb7       data     extern C:\MCC18\src\traditional\proc\p18F97J60.asm
                    MIWRL   0x000eb6       data     extern C:\MCC18\src\traditional\proc\p18F97J60.asm
                MPFSStubs   0x000f00       data     static E:\Working\VMS\Source\Keil\VMS Controller\ICON V1.1\Network\TCPIP Stack\MPFS2.c
                    MyTCB   0x000062       data     static E:\Working\VMS\Source\Keil\VMS Controller\ICON V1.1\Network\TCPIP Stack\TCP.c
                MyTCBStub   0x000089       data     static E:\Working\VMS\Source\Keil\VMS Controller\ICON V1.1\Network\TCPIP Stack\TCP.c
       NextPacketLocation   0x000f57       data     static E:\Working\VMS\Source\Keil\VMS Controller\ICON V1.1\Network\TCPIP Stack\ETH97J60.c
                 NextPort   0x000060       data     static E:\Working\VMS\Source\Keil\VMS Controller\ICON V1.1\Network\TCPIP Stack\TCP.c
                 NextPort   0x000134       data     static E:\Working\VMS\Source\Keil\VMS Controller\ICON V1.1\Network\TCPIP Stack\UDP.c
                   OSCCON   0x000fd3       data     extern C:\MCC18\src\traditional\proc\p18F97J60.asm
               OSCCONbits   0x000fd3       data     extern C:\MCC18\src\traditional\proc\p18F97J60.asm
                  OSCTUNE   0x000f9b       data     extern C:\MCC18\src\traditional\proc\p18F97J60.asm
              OSCTUNEbits   0x000f9b       data     extern C:\MCC18\src\traditional\proc\p18F97J60.asm
                       PC   0x000ff9       data     extern C:\MCC18\src\traditional\proc\p18F97J60.asm
                      PCL   0x000ff9       data     extern C:\MCC18\src\traditional\proc\p18F97J60.asm
                   PCLATH   0x000ffa       data     extern C:\MCC18\src\traditional\proc\p18F97J60.asm
                   PCLATU   0x000ffb       data     extern C:\MCC18\src\traditional\proc\p18F97J60.asm
                     PIE1   0x000f9d       data     extern C:\MCC18\src\traditional\proc\p18F97J60.asm
                 PIE1bits   0x000f9d       data     extern C:\MCC18\src\traditional\proc\p18F97J60.asm
                     PIE2   0x000fa0       data     extern C:\MCC18\src\traditional\proc\p18F97J60.asm
                 PIE2bits   0x000fa0       data     extern C:\MCC18\src\traditional\proc\p18F97J60.asm
                     PIE3   0x000fa3       data     extern C:\MCC18\src\traditional\proc\p18F97J60.asm
                 PIE3bits   0x000fa3       data     extern C:\MCC18\src\traditional\proc\p18F97J60.asm
                     PIR1   0x000f9e       data     extern C:\MCC18\src\traditional\proc\p18F97J60.asm
                 PIR1bits   0x000f9e       data     extern C:\MCC18\src\traditional\proc\p18F97J60.asm
                     PIR2   0x000fa1       data     extern C:\MCC18\src\traditional\proc\p18F97J60.asm
                 PIR2bits   0x000fa1       data     extern C:\MCC18\src\traditional\proc\p18F97J60.asm
                     PIR3   0x000fa4       data     extern C:\MCC18\src\traditional\proc\p18F97J60.asm
                 PIR3bits   0x000fa4       data     extern C:\MCC18\src\traditional\proc\p18F97J60.asm
                   PLUSW0   0x000feb       data     extern C:\MCC18\src\traditional\proc\p18F97J60.asm
                   PLUSW1   0x000fe3       data     extern C:\MCC18\src\traditional\proc\p18F97J60.asm
                   PLUSW2   0x000fdb       data     extern C:\MCC18\src\traditional\proc\p18F97J60.asm
                    PORTA   0x000f80       data     extern C:\MCC18\src\traditional\proc\p18F97J60.asm
                PORTAbits   0x000f80       data     extern C:\MCC18\src\traditional\proc\p18F97J60.asm
                    PORTB   0x000f81       data     extern C:\MCC18\src\traditional\proc\p18F97J60.asm
                PORTBbits   0x000f81       data     extern C:\MCC18\src\traditional\proc\p18F97J60.asm
                    PORTC   0x000f82       data     extern C:\MCC18\src\traditional\proc\p18F97J60.asm
                PORTCbits   0x000f82       data     extern C:\MCC18\src\traditional\proc\p18F97J60.asm
                    PORTD   0x000f83       data     extern C:\MCC18\src\traditional\proc\p18F97J60.asm
                PORTDbits   0x000f83       data     extern C:\MCC18\src\traditional\proc\p18F97J60.asm
                    PORTE   0x000f84       data     extern C:\MCC18\src\traditional\proc\p18F97J60.asm
                PORTEbits   0x000f84       data     extern C:\MCC18\src\traditional\proc\p18F97J60.asm
                    PORTF   0x000f85       data     extern C:\MCC18\src\traditional\proc\p18F97J60.asm
                PORTFbits   0x000f85       data     extern C:\MCC18\src\traditional\proc\p18F97J60.asm
                    PORTG   0x000f86       data     extern C:\MCC18\src\traditional\proc\p18F97J60.asm
                PORTGbits   0x000f86       data     extern C:\MCC18\src\traditional\proc\p18F97J60.asm
                    PORTH   0x000f87       data     extern C:\MCC18\src\traditional\proc\p18F97J60.asm
                PORTHbits   0x000f87       data     extern C:\MCC18\src\traditional\proc\p18F97J60.asm
                    PORTJ   0x000f88       data     extern C:\MCC18\src\traditional\proc\p18F97J60.asm
                PORTJbits   0x000f88       data     extern C:\MCC18\src\traditional\proc\p18F97J60.asm
                 POSTDEC0   0x000fed       data     extern C:\MCC18\src\traditional\proc\p18F97J60.asm
                 POSTDEC1   0x000fe5       data     extern C:\MCC18\src\traditional\proc\p18F97J60.asm
                 POSTDEC2   0x000fdd       data     extern C:\MCC18\src\traditional\proc\p18F97J60.asm
                 POSTINC0   0x000fee       data     extern C:\MCC18\src\traditional\proc\p18F97J60.asm
                 POSTINC1   0x000fe6       data     extern C:\MCC18\src\traditional\proc\p18F97J60.asm
                 POSTINC2   0x000fde       data     extern C:\MCC18\src\traditional\proc\p18F97J60.asm
                      PR2   0x000fcb       data     extern C:\MCC18\src\traditional\proc\p18F97J60.asm
                      PR4   0x000f77       data     extern C:\MCC18\src\traditional\proc\p18F97J60.asm
                  PREINC0   0x000fec       data     extern C:\MCC18\src\traditional\proc\p18F97J60.asm
                  PREINC1   0x000fe4       data     extern C:\MCC18\src\traditional\proc\p18F97J60.asm
                  PREINC2   0x000fdc       data     extern C:\MCC18\src\traditional\proc\p18F97J60.asm
                     PROD   0x000ff3       data     extern C:\MCC18\src\traditional\proc\p18F97J60.asm
                    PRODH   0x000ff4       data     extern C:\MCC18\src\traditional\proc\p18F97J60.asm
                    PRODL   0x000ff3       data     extern C:\MCC18\src\traditional\proc\p18F97J60.asm
                   PSPCON   0x000fb0       data     extern C:\MCC18\src\traditional\proc\p18F97J60.asm
               PSPCONbits   0x000fb0       data     extern C:\MCC18\src\traditional\proc\p18F97J60.asm
                     RCON   0x000fd0       data     extern C:\MCC18\src\traditional\proc\p18F97J60.asm
                 RCONbits   0x000fd0       data     extern C:\MCC18\src\traditional\proc\p18F97J60.asm
                    RCREG   0x000fae       data     extern C:\MCC18\src\traditional\proc\p18F97J60.asm
                   RCREG1   0x000fae       data     extern C:\MCC18\src\traditional\proc\p18F97J60.asm
                   RCREG2   0x000f6e       data     extern C:\MCC18\src\traditional\proc\p18F97J60.asm
                    RCSTA   0x000fab       data     extern C:\MCC18\src\traditional\proc\p18F97J60.asm
                   RCSTA1   0x000fab       data     extern C:\MCC18\src\traditional\proc\p18F97J60.asm
               RCSTA1bits   0x000fab       data     extern C:\MCC18\src\traditional\proc\p18F97J60.asm
                   RCSTA2   0x000f6b       data     extern C:\MCC18\src\traditional\proc\p18F97J60.asm
               RCSTA2bits   0x000f6b       data     extern C:\MCC18\src\traditional\proc\p18F97J60.asm
                RCSTAbits   0x000fab       data     extern C:\MCC18\src\traditional\proc\p18F97J60.asm
               RemoteInfo   0x0000a5       data     static E:\Working\VMS\Source\Keil\VMS Controller\ICON V1.1\Network\TCPIP Stack\TCP.c
                     SIGN   0x000000       data     extern C:\MCC18\src\traditional\math\cmath18.asm
                    SPBRG   0x000faf       data     extern C:\MCC18\src\traditional\proc\p18F97J60.asm
                   SPBRG1   0x000faf       data     extern C:\MCC18\src\traditional\proc\p18F97J60.asm
                   SPBRG2   0x000f6f       data     extern C:\MCC18\src\traditional\proc\p18F97J60.asm
                   SPBRGH   0x000f7f       data     extern C:\MCC18\src\traditional\proc\p18F97J60.asm
                  SPBRGH1   0x000f7f       data     extern C:\MCC18\src\traditional\proc\p18F97J60.asm
                  SPBRGH2   0x000f7d       data     extern C:\MCC18\src\traditional\proc\p18F97J60.asm
                  SSP1ADD   0x000fc8       data     extern C:\MCC18\src\traditional\proc\p18F97J60.asm
                  SSP1BUF   0x000fc9       data     extern C:\MCC18\src\traditional\proc\p18F97J60.asm
                 SSP1CON1   0x000fc6       data     extern C:\MCC18\src\traditional\proc\p18F97J60.asm
             SSP1CON1bits   0x000fc6       data     extern C:\MCC18\src\traditional\proc\p18F97J60.asm
                 SSP1CON2   0x000fc5       data     extern C:\MCC18\src\traditional\proc\p18F97J60.asm
             SSP1CON2bits   0x000fc5       data     extern C:\MCC18\src\traditional\proc\p18F97J60.asm
                 SSP1STAT   0x000fc7       data     extern C:\MCC18\src\traditional\proc\p18F97J60.asm
             SSP1STATbits   0x000fc7       data     extern C:\MCC18\src\traditional\proc\p18F97J60.asm
                  SSP2ADD   0x000f65       data     extern C:\MCC18\src\traditional\proc\p18F97J60.asm
                  SSP2BUF   0x000f66       data     extern C:\MCC18\src\traditional\proc\p18F97J60.asm
                 SSP2CON1   0x000f63       data     extern C:\MCC18\src\traditional\proc\p18F97J60.asm
             SSP2CON1bits   0x000f63       data     extern C:\MCC18\src\traditional\proc\p18F97J60.asm
                 SSP2CON2   0x000f62       data     extern C:\MCC18\src\traditional\proc\p18F97J60.asm
             SSP2CON2bits   0x000f62       data     extern C:\MCC18\src\traditional\proc\p18F97J60.asm
                 SSP2STAT   0x000f64       data     extern C:\MCC18\src\traditional\proc\p18F97J60.asm
             SSP2STATbits   0x000f64       data     extern C:\MCC18\src\traditional\proc\p18F97J60.asm
                   SSPADD   0x000fc8       data     extern C:\MCC18\src\traditional\proc\p18F97J60.asm
                   SSPBUF   0x000fc9       data     extern C:\MCC18\src\traditional\proc\p18F97J60.asm
                  SSPCON1   0x000fc6       data     extern C:\MCC18\src\traditional\proc\p18F97J60.asm
              SSPCON1bits   0x000fc6       data     extern C:\MCC18\src\traditional\proc\p18F97J60.asm
                  SSPCON2   0x000fc5       data     extern C:\MCC18\src\traditional\proc\p18F97J60.asm
              SSPCON2bits   0x000fc5       data     extern C:\MCC18\src\traditional\proc\p18F97J60.asm
                  SSPSTAT   0x000fc7       data     extern C:\MCC18\src\traditional\proc\p18F97J60.asm
              SSPSTATbits   0x000fc7       data     extern C:\MCC18\src\traditional\proc\p18F97J60.asm
                   STATUS   0x000fd8       data     extern C:\MCC18\src\traditional\proc\p18F97J60.asm
               STATUSbits   0x000fd8       data     extern C:\MCC18\src\traditional\proc\p18F97J60.asm
                   STKPTR   0x000ffc       data     extern C:\MCC18\src\traditional\proc\p18F97J60.asm
               STKPTRbits   0x000ffc       data     extern C:\MCC18\src\traditional\proc\p18F97J60.asm
                 SYNQueue   0x0000b1       data     static E:\Working\VMS\Source\Keil\VMS Controller\ICON V1.1\Network\TCPIP Stack\TCP.c
                     Seed   0x000f5e       data     static C:\MCC18\src\traditional\stdclib\rand.asm
         SocketWithRxData   0x0002a9       data     static E:\Working\VMS\Source\Keil\VMS Controller\ICON V1.1\Network\TCPIP Stack\UDP.c
                    T0CON   0x000fd5       data     extern C:\MCC18\src\traditional\proc\p18F97J60.asm
                T0CONbits   0x000fd5       data     extern C:\MCC18\src\traditional\proc\p18F97J60.asm
                    T1CON   0x000fcd       data     extern C:\MCC18\src\traditional\proc\p18F97J60.asm
                T1CONbits   0x000fcd       data     extern C:\MCC18\src\traditional\proc\p18F97J60.asm
                    T2CON   0x000fca       data     extern C:\MCC18\src\traditional\proc\p18F97J60.asm
                T2CONbits   0x000fca       data     extern C:\MCC18\src\traditional\proc\p18F97J60.asm
                    T3CON   0x000fb1       data     extern C:\MCC18\src\traditional\proc\p18F97J60.asm
                T3CONbits   0x000fb1       data     extern C:\MCC18\src\traditional\proc\p18F97J60.asm
                    T4CON   0x000f76       data     extern C:\MCC18\src\traditional\proc\p18F97J60.asm
                T4CONbits   0x000f76       data     extern C:\MCC18\src\traditional\proc\p18F97J60.asm
                   TABLAT   0x000ff5       data     extern C:\MCC18\src\traditional\proc\p18F97J60.asm
                   TBLPTR   0x000ff6       data     extern C:\MCC18\src\traditional\proc\p18F97J60.asm
                  TBLPTRH   0x000ff7       data     extern C:\MCC18\src\traditional\proc\p18F97J60.asm
                  TBLPTRL   0x000ff6       data     extern C:\MCC18\src\traditional\proc\p18F97J60.asm
                  TBLPTRU   0x000ff8       data     extern C:\MCC18\src\traditional\proc\p18F97J60.asm
                 TCBStubs   0x000e00       data     static E:\Working\VMS\Source\Keil\VMS Controller\ICON V1.1\Network\TCPIP Stack\TCP.c
                    TMR0H   0x000fd7       data     extern C:\MCC18\src\traditional\proc\p18F97J60.asm
                    TMR0L   0x000fd6       data     extern C:\MCC18\src\traditional\proc\p18F97J60.asm
                    TMR1H   0x000fcf       data     extern C:\MCC18\src\traditional\proc\p18F97J60.asm
                    TMR1L   0x000fce       data     extern C:\MCC18\src\traditional\proc\p18F97J60.asm
                     TMR2   0x000fcc       data     extern C:\MCC18\src\traditional\proc\p18F97J60.asm
                    TMR3H   0x000fb3       data     extern C:\MCC18\src\traditional\proc\p18F97J60.asm
                    TMR3L   0x000fb2       data     extern C:\MCC18\src\traditional\proc\p18F97J60.asm
                     TMR4   0x000f78       data     extern C:\MCC18\src\traditional\proc\p18F97J60.asm
                      TOS   0x000ffd       data     extern C:\MCC18\src\traditional\proc\p18F97J60.asm
                     TOSH   0x000ffe       data     extern C:\MCC18\src\traditional\proc\p18F97J60.asm
                     TOSL   0x000ffd       data     extern C:\MCC18\src\traditional\proc\p18F97J60.asm
                     TOSU   0x000fff       data     extern C:\MCC18\src\traditional\proc\p18F97J60.asm
                    TRISA   0x000f92       data     extern C:\MCC18\src\traditional\proc\p18F97J60.asm
                TRISAbits   0x000f92       data     extern C:\MCC18\src\traditional\proc\p18F97J60.asm
                    TRISB   0x000f93       data     extern C:\MCC18\src\traditional\proc\p18F97J60.asm
                TRISBbits   0x000f93       data     extern C:\MCC18\src\traditional\proc\p18F97J60.asm
                    TRISC   0x000f94       data     extern C:\MCC18\src\traditional\proc\p18F97J60.asm
                TRISCbits   0x000f94       data     extern C:\MCC18\src\traditional\proc\p18F97J60.asm
                    TRISD   0x000f95       data     extern C:\MCC18\src\traditional\proc\p18F97J60.asm
                TRISDbits   0x000f95       data     extern C:\MCC18\src\traditional\proc\p18F97J60.asm
                    TRISE   0x000f96       data     extern C:\MCC18\src\traditional\proc\p18F97J60.asm
                TRISEbits   0x000f96       data     extern C:\MCC18\src\traditional\proc\p18F97J60.asm
                    TRISF   0x000f97       data     extern C:\MCC18\src\traditional\proc\p18F97J60.asm
                TRISFbits   0x000f97       data     extern C:\MCC18\src\traditional\proc\p18F97J60.asm
                    TRISG   0x000f98       data     extern C:\MCC18\src\traditional\proc\p18F97J60.asm
                TRISGbits   0x000f98       data     extern C:\MCC18\src\traditional\proc\p18F97J60.asm
                    TRISH   0x000f99       data     extern C:\MCC18\src\traditional\proc\p18F97J60.asm
                TRISHbits   0x000f99       data     extern C:\MCC18\src\traditional\proc\p18F97J60.asm
                    TRISJ   0x000f9a       data     extern C:\MCC18\src\traditional\proc\p18F97J60.asm
                TRISJbits   0x000f9a       data     extern C:\MCC18\src\traditional\proc\p18F97J60.asm
                    TXREG   0x000fad       data     extern C:\MCC18\src\traditional\proc\p18F97J60.asm
                   TXREG1   0x000fad       data     extern C:\MCC18\src\traditional\proc\p18F97J60.asm
                   TXREG2   0x000f6d       data     extern C:\MCC18\src\traditional\proc\p18F97J60.asm
                    TXSTA   0x000fac       data     extern C:\MCC18\src\traditional\proc\p18F97J60.asm
                   TXSTA1   0x000fac       data     extern C:\MCC18\src\traditional\proc\p18F97J60.asm
               TXSTA1bits   0x000fac       data     extern C:\MCC18\src\traditional\proc\p18F97J60.asm
                   TXSTA2   0x000f6c       data     extern C:\MCC18\src\traditional\proc\p18F97J60.asm
               TXSTA2bits   0x000f6c       data     extern C:\MCC18\src\traditional\proc\p18F97J60.asm
                TXSTAbits   0x000fac       data     extern C:\MCC18\src\traditional\proc\p18F97J60.asm
                   Target   0x0003f5       data     static E:\Working\VMS\Source\Keil\VMS Controller\ICON V1.1\Network\TCPIP Stack\ARP.c
               UDPRxCount   0x00012d       data     extern E:\Working\VMS\Source\Keil\VMS Controller\ICON V1.1\Network\TCPIP Stack\UDP.c
            UDPSocketInfo   0x00011c       data     extern E:\Working\VMS\Source\Keil\VMS Controller\ICON V1.1\Network\TCPIP Stack\UDP.c
               UDPTxCount   0x00012b       data     extern E:\Working\VMS\Source\Keil\VMS Controller\ICON V1.1\Network\TCPIP Stack\UDP.c
                   WDTCON   0x000fd1       data     extern C:\MCC18\src\traditional\proc\p18F97J60.asm
               WDTCONbits   0x000fd1       data     extern C:\MCC18\src\traditional\proc\p18F97J60.asm
                     WREG   0x000fe8       data     extern C:\MCC18\src\traditional\proc\p18F97J60.asm
             WasDiscarded   0x000f5b       data     static E:\Working\VMS\Source\Keil\VMS Controller\ICON V1.1\Network\TCPIP Stack\ETH97J60.c
              _Identifier   0x0002ac       data     static E:\Working\VMS\Source\Keil\VMS Controller\ICON V1.1\Network\TCPIP Stack\IP.c
                 __AARGB0   0x000009       data     extern C:\MCC18\src\traditional\math\aarg.asm
                 __AARGB1   0x000008       data     extern C:\MCC18\src\traditional\math\aarg.asm
                 __AARGB2   0x000007       data     extern C:\MCC18\src\traditional\math\aarg.asm
                 __AARGB3   0x000006       data     extern C:\MCC18\src\traditional\math\aarg.asm
                 __AARGB4   0x000005       data     extern C:\MCC18\src\traditional\math\aarg.asm
                 __AARGB5   0x000004       data     extern C:\MCC18\src\traditional\math\aarg.asm
                 __AARGB6   0x000003       data     extern C:\MCC18\src\traditional\math\aarg.asm
                 __AARGB7   0x000002       data     extern C:\MCC18\src\traditional\math\aarg.asm
                   __AEXP   0x00000a       data     extern C:\MCC18\src\traditional\math\aarg.asm
                 __BARGB0   0x00000e       data     extern C:\MCC18\src\traditional\math\barg.asm
                 __BARGB1   0x00000d       data     extern C:\MCC18\src\traditional\math\barg.asm
                 __BARGB2   0x00000c       data     extern C:\MCC18\src\traditional\math\barg.asm
                 __BARGB3   0x00000b       data     extern C:\MCC18\src\traditional\math\barg.asm
                   __BEXP   0x00000f       data     extern C:\MCC18\src\traditional\math\barg.asm
                __FPFLAGS   0x000001       data     extern C:\MCC18\src\traditional\math\cmath18.asm
            __FPFLAGSbits   0x000001       data     extern C:\MCC18\src\traditional\math\cmath18.asm
                  __REMB0   0x000005       data     extern C:\MCC18\src\traditional\math\aarg.asm
                  __REMB1   0x000004       data     extern C:\MCC18\src\traditional\math\aarg.asm
                  __REMB2   0x000003       data     extern C:\MCC18\src\traditional\math\aarg.asm
                  __REMB3   0x000002       data     extern C:\MCC18\src\traditional\math\aarg.asm
                   __TEMP   0x000013       data     extern C:\MCC18\src\traditional\math\temparg.asm
                 __TEMPB0   0x000013       data     extern C:\MCC18\src\traditional\math\temparg.asm
                 __TEMPB1   0x000012       data     extern C:\MCC18\src\traditional\math\temparg.asm
                 __TEMPB2   0x000011       data     extern C:\MCC18\src\traditional\math\temparg.asm
                 __TEMPB3   0x000010       data     extern C:\MCC18\src\traditional\math\temparg.asm
                  __tmp_0   0x000014       data     static E:\Working\VMS\Source\Keil\VMS Controller\ICON V1.1\Network\TCPIP Stack\DHCP.c
                  __tmp_0   0x000014       data     static E:\Working\VMS\Source\Keil\VMS Controller\ICON V1.1\Network\TCPIP Stack\BerkeleyAPI.c
                  __tmp_0   0x000014       data     static E:\Working\VMS\Source\Keil\VMS Controller\ICON V1.1\Network\TCPIP Stack\StackTsk.c
                  __tmp_0   0x000014       data     static E:\Working\VMS\Source\Keil\VMS Controller\ICON V1.1\Network\TCPIP Stack\MPFS2.c
                  __tmp_0   0x000014       data     static E:\Working\VMS\Source\Keil\VMS Controller\ICON V1.1\Network\TCPIP Stack\HTTP2.c
                  __tmp_0   0x000014       data     static E:\Working\VMS\Source\Keil\VMS Controller\ICON V1.1\Network\TCPIP Stack\UDP.c
                  __tmp_0   0x000014       data     static E:\Working\VMS\Source\Keil\VMS Controller\ICON V1.1\Network\TCPIP Stack\TCP.c
                  __tmp_0   0x000014       data     static E:\Working\VMS\Source\Keil\VMS Controller\ICON V1.1\Network\TCPIP Stack\IP.c
                  __tmp_0   0x000014       data     static E:\Working\VMS\Source\Keil\VMS Controller\ICON V1.1\Network\TCPIP Stack\Helpers.c
                  __tmp_0   0x000014       data     static E:\Working\VMS\Source\Keil\VMS Controller\ICON V1.1\Network\TCPIP Stack\ETH97J60.c
                  __tmp_0   0x000014       data     static E:\Working\VMS\Source\Keil\VMS Controller\ICON V1.1\Network\TCPIP Stack\ARP.c
                  __tmp_0   0x000014       data     static E:\Working\VMS\Source\Keil\VMS Controller\ICON V1.1\Network\BerkeleyTCPClient.c
                  __tmp_0   0x000014       data     static E:\Working\VMS\Source\Keil\VMS Controller\ICON V1.1\Network\uart.c
                  __tmp_0   0x000014       data     static E:\Working\VMS\Source\Keil\VMS Controller\ICON V1.1\Network\gprs.c
                  __tmp_0   0x000014       data     static E:\Working\VMS\Source\Keil\VMS Controller\ICON V1.1\Network\CustomHTTPApp.c
                  __tmp_0   0x000014       data     static E:\Working\VMS\Source\Keil\VMS Controller\ICON V1.1\Network\flash.c
                  __tmp_0   0x000014       data     static E:\Working\VMS\Source\Keil\VMS Controller\ICON V1.1\Network\main.c
                  __tmp_2   0x000022       data     static E:\Working\VMS\Source\Keil\VMS Controller\ICON V1.1\Network\main.c
                      _iA   0x0000ed       data     extern TCPIP Stack\BigInt_helper.asm
                      _iB   0x0000f1       data     extern TCPIP Stack\BigInt_helper.asm
                     _iBr   0x0000f5       data     extern TCPIP Stack\BigInt_helper.asm
                      _iR   0x0000fb       data     extern TCPIP Stack\BigInt_helper.asm
                      _wC   0x0000fd       data     extern TCPIP Stack\BigInt_helper.asm
                      _xA   0x0000ef       data     extern TCPIP Stack\BigInt_helper.asm
                      _xB   0x0000f3       data     extern TCPIP Stack\BigInt_helper.asm
                     _xBr   0x0000f8       data     extern TCPIP Stack\BigInt_helper.asm
          activeUDPSocket   0x00012a       data     extern E:\Working\VMS\Source\Keil\VMS Controller\ICON V1.1\Network\TCPIP Stack\UDP.c
                     addr   0x000c59       data     static E:\Working\VMS\Source\Keil\VMS Controller\ICON V1.1\Network\BerkeleyTCPClient.c
           bLastLinkState   0x0002b0       data     static E:\Working\VMS\Source\Keil\VMS Controller\ICON V1.1\Network\TCPIP Stack\StackTsk.c
           bsdEventSocket   0x000a58       data     extern E:\Working\VMS\Source\Keil\VMS Controller\ICON V1.1\Network\BerkeleyTCPClient.c
         bsdOperateSocket   0x000a57       data     extern E:\Working\VMS\Source\Keil\VMS Controller\ICON V1.1\Network\BerkeleyTCPClient.c
                  curHTTP   0x000200       data     extern E:\Working\VMS\Source\Keil\VMS Controller\ICON V1.1\Network\TCPIP Stack\HTTP2.c
                curHTTPID   0x000281       data     extern E:\Working\VMS\Source\Keil\VMS Controller\ICON V1.1\Network\TCPIP Stack\HTTP2.c
                curr_byte   0x000285       data     static C:\MCC18\src\traditional\startup\c018i.c
               curr_entry   0x000287       data     static C:\MCC18\src\traditional\startup\c018i.c
                 data_ptr   0x000289       data     static C:\MCC18\src\traditional\startup\c018i.c
               dplVersion   0x0003c7       data     extern E:\Working\VMS\Source\Keil\VMS Controller\ICON V1.1\Network\main.c
          dwInternalTicks   0x0002a0       data     static E:\Working\VMS\Source\Keil\VMS Controller\ICON V1.1\Network\TCPIP Stack\Tick.c
                  fConfig   0x00031d       data     extern E:\Working\VMS\Source\Keil\VMS Controller\ICON V1.1\Network\main.c
               fConfigSIM   0x00031f       data     extern E:\Working\VMS\Source\Keil\VMS Controller\ICON V1.1\Network\main.c
              fFactoryRST   0x00031e       data     extern E:\Working\VMS\Source\Keil\VMS Controller\ICON V1.1\Network\main.c
                 fGetIMEI   0x0002a4       data     extern E:\Working\VMS\Source\Keil\VMS Controller\ICON V1.1\Network\CustomHTTPApp.c
     fIshwConfigRequested   0x000320       data     extern E:\Working\VMS\Source\Keil\VMS Controller\ICON V1.1\Network\main.c
                 fReceive   0x00031b       data     extern E:\Working\VMS\Source\Keil\VMS Controller\ICON V1.1\Network\main.c
                 fSendCmd   0x0003ff       data     extern E:\Working\VMS\Source\Keil\VMS Controller\ICON V1.1\Network\gprs.c
                fSendData   0x00031c       data     extern E:\Working\VMS\Source\Keil\VMS Controller\ICON V1.1\Network\main.c
               fSendState   0x00031a       data     extern E:\Working\VMS\Source\Keil\VMS Controller\ICON V1.1\Network\main.c
                 fatCache   0x000f3d       data     static E:\Working\VMS\Source\Keil\VMS Controller\ICON V1.1\Network\TCPIP Stack\MPFS2.c
               fatCacheID   0x000f53       data     static E:\Working\VMS\Source\Keil\VMS Controller\ICON V1.1\Network\TCPIP Stack\MPFS2.c
          gAutoPortNumber   0x0002ae       data     static E:\Working\VMS\Source\Keil\VMS Controller\ICON V1.1\Network\TCPIP Stack\BerkeleyAPI.c
              hCurrentTCP   0x0002aa       data     static E:\Working\VMS\Source\Keil\VMS Controller\ICON V1.1\Network\TCPIP Stack\TCP.c
                 hLastTCB   0x0002ab       data     static E:\Working\VMS\Source\Keil\VMS Controller\ICON V1.1\Network\TCPIP Stack\TCP.c
                httpStubs   0x00027f       data     extern E:\Working\VMS\Source\Keil\VMS Controller\ICON V1.1\Network\TCPIP Stack\HTTP2.c
                 hwConfig   0x00063d       data     extern E:\Working\VMS\Source\Keil\VMS Controller\ICON V1.1\Network\main.c
             isMPFSLocked   0x000f3c       data     static E:\Working\VMS\Source\Keil\VMS Controller\ICON V1.1\Network\TCPIP Stack\MPFS2.c
              lastFailure   0x0002a6       data     static E:\Working\VMS\Source\Keil\VMS Controller\ICON V1.1\Network\CustomHTTPApp.c
              lastSuccess   0x0002a5       data     static E:\Working\VMS\Source\Keil\VMS Controller\ICON V1.1\Network\CustomHTTPApp.c
              mainVersion   0x0003c5       data     extern E:\Working\VMS\Source\Keil\VMS Controller\ICON V1.1\Network\main.c
                 numFiles   0x000f55       data     static E:\Working\VMS\Source\Keil\VMS Controller\ICON V1.1\Network\TCPIP Stack\MPFS2.c
                  nwState   0x000323       data     extern E:\Working\VMS\Source\Keil\VMS Controller\ICON V1.1\Network\main.c
                   opPort   0x000335       data     extern E:\Working\VMS\Source\Keil\VMS Controller\ICON V1.1\Network\main.c
                 password   0x000381       data     extern E:\Working\VMS\Source\Keil\VMS Controller\ICON V1.1\Network\main.c
                     prom   0x000282       data     static C:\MCC18\src\traditional\startup\c018i.c
                 rcvCount   0x000317       data     extern E:\Working\VMS\Source\Keil\VMS Controller\ICON V1.1\Network\main.c
                  rcvData   0x000653       data     extern E:\Working\VMS\Source\Keil\VMS Controller\ICON V1.1\Network\main.c
                 read_flg   0x0002a7       data     extern E:\Working\VMS\Source\Keil\VMS Controller\ICON V1.1\Network\CustomHTTPApp.c
               recvBuffer   0x000a59       data     extern E:\Working\VMS\Source\Keil\VMS Controller\ICON V1.1\Network\BerkeleyTCPClient.c
               remoteNode   0x000e76       data     extern E:\Working\VMS\Source\Keil\VMS Controller\ICON V1.1\Network\TCPIP Stack\StackTsk.c
               reportPort   0x00033b       data     extern E:\Working\VMS\Source\Keil\VMS Controller\ICON V1.1\Network\main.c
             resetCounter   0x0003c1       data     extern E:\Working\VMS\Source\Keil\VMS Controller\ICON V1.1\Network\main.c
                      rts   0x000310       data     extern E:\Working\VMS\Source\Keil\VMS Controller\ICON V1.1\Network\main.c
                        s   0x000e54       data     static E:\Working\VMS\Source\Keil\VMS Controller\ICON V1.1\Network\gprs.c
                 serverIP   0x000325       data     extern E:\Working\VMS\Source\Keil\VMS Controller\ICON V1.1\Network\main.c
                simResCnt   0x000319       data     extern E:\Working\VMS\Source\Keil\VMS Controller\ICON V1.1\Network\main.c
                simStatus   0x000324       data     extern E:\Working\VMS\Source\Keil\VMS Controller\ICON V1.1\Network\main.c
                    smARP   0x0002b2       data     static E:\Working\VMS\Source\Keil\VMS Controller\ICON V1.1\Network\TCPIP Stack\ARP.c
                  smStack   0x000e75       data     static E:\Working\VMS\Source\Keil\VMS Controller\ICON V1.1\Network\TCPIP Stack\StackTsk.c
                startTick   0x00029b       data     static E:\Working\VMS\Source\Keil\VMS Controller\ICON V1.1\Network\TCPIP Stack\BerkeleyAPI.c
                        t   0x0003c9       data     static E:\Working\VMS\Source\Keil\VMS Controller\ICON V1.1\Network\main.c
                  tCount1   0x000297       data     static E:\Working\VMS\Source\Keil\VMS Controller\ICON V1.1\Network\BerkeleyTCPClient.c
                  tCount2   0x000299       data     static E:\Working\VMS\Source\Keil\VMS Controller\ICON V1.1\Network\BerkeleyTCPClient.c
                  timeOut   0x000321       data     extern E:\Working\VMS\Source\Keil\VMS Controller\ICON V1.1\Network\main.c
                 toRotate   0x00028c       data     extern E:\Working\VMS\Source\Keil\VMS Controller\ICON V1.1\Network\TCPIP Stack\Helpers.c
                 username   0x000341       data     extern E:\Working\VMS\Source\Keil\VMS Controller\ICON V1.1\Network\main.c
             vTickReading   0x000290       data     static E:\Working\VMS\Source\Keil\VMS Controller\ICON V1.1\Network\TCPIP Stack\Tick.c
               wGetOffset   0x000131       data     static E:\Working\VMS\Source\Keil\VMS Controller\ICON V1.1\Network\TCPIP Stack\UDP.c
               wPutOffset   0x00012f       data     static E:\Working\VMS\Source\Keil\VMS Controller\ICON V1.1\Network\TCPIP Stack\UDP.c
              wTXWatchdog   0x000f5c       data     static E:\Working\VMS\Source\Keil\VMS Controller\ICON V1.1\Network\TCPIP Stack\ETH97J60.c
                 wnConfig   0x000652       data     extern E:\Working\VMS\Source\Keil\VMS Controller\ICON V1.1\Network\main.c



                              Symbols - Sorted by Address
                     Name    Address   Location    Storage File                     
                ---------  ---------  ---------  --------- ---------                
                   _entry   0x000000    program     extern C:\MCC18\src\traditional\startup\c018i.c
       ___return_lbl00000   0x000004    program     static                          
                   __init   0x000006    program     extern C:\MCC18\src\traditional\stdclib\__init.c
               HighVector   0x000008    program     extern E:\Working\VMS\Source\Keil\VMS Controller\ICON V1.1\Network\main.c
       ___return_lbl00005   0x00000c    program     static                          
     SerializedMACAddress   0x00000e    program     static E:\Working\VMS\Source\Keil\VMS Controller\ICON V1.1\Network\main.c
                LowVector   0x000018    program     extern E:\Working\VMS\Source\Keil\VMS Controller\ICON V1.1\Network\main.c
       ___return_lbl00004   0x00001c    program     static                          
               MPFS_Start   0x0000bc    program     extern E:\Working\VMS\Source\Keil\VMS Controller\ICON V1.1\Network\MPFSImg2.c
              MPFS_000001   0x0004bc    program     extern E:\Working\VMS\Source\Keil\VMS Controller\ICON V1.1\Network\MPFSImg2.c
              MPFS_000002   0x0008bc    program     extern E:\Working\VMS\Source\Keil\VMS Controller\ICON V1.1\Network\MPFSImg2.c
              MPFS_000003   0x000cbc    program     extern E:\Working\VMS\Source\Keil\VMS Controller\ICON V1.1\Network\MPFSImg2.c
              MPFS_000004   0x0010bc    program     extern E:\Working\VMS\Source\Keil\VMS Controller\ICON V1.1\Network\MPFSImg2.c
              MPFS_000005   0x0014bc    program     extern E:\Working\VMS\Source\Keil\VMS Controller\ICON V1.1\Network\MPFSImg2.c
              MPFS_000006   0x0018bc    program     extern E:\Working\VMS\Source\Keil\VMS Controller\ICON V1.1\Network\MPFSImg2.c
              MPFS_000007   0x001cbc    program     extern E:\Working\VMS\Source\Keil\VMS Controller\ICON V1.1\Network\MPFSImg2.c
              MPFS_000008   0x0020bc    program     extern E:\Working\VMS\Source\Keil\VMS Controller\ICON V1.1\Network\MPFSImg2.c
              MPFS_000009   0x0024bc    program     extern E:\Working\VMS\Source\Keil\VMS Controller\ICON V1.1\Network\MPFSImg2.c
              MPFS_00000a   0x0028bc    program     extern E:\Working\VMS\Source\Keil\VMS Controller\ICON V1.1\Network\MPFSImg2.c
              MPFS_00000b   0x002cbc    program     extern E:\Working\VMS\Source\Keil\VMS Controller\ICON V1.1\Network\MPFSImg2.c
              MPFS_00000c   0x0030bc    program     extern E:\Working\VMS\Source\Keil\VMS Controller\ICON V1.1\Network\MPFSImg2.c
              MPFS_00000d   0x0034bc    program     extern E:\Working\VMS\Source\Keil\VMS Controller\ICON V1.1\Network\MPFSImg2.c
              MPFS_00000e   0x0038bc    program     extern E:\Working\VMS\Source\Keil\VMS Controller\ICON V1.1\Network\MPFSImg2.c
              MPFS_00000f   0x003cbc    program     extern E:\Working\VMS\Source\Keil\VMS Controller\ICON V1.1\Network\MPFSImg2.c
              MPFS_000010   0x0040bc    program     extern E:\Working\VMS\Source\Keil\VMS Controller\ICON V1.1\Network\MPFSImg2.c
              SyncTCBStub   0x00435e    program     static E:\Working\VMS\Source\Keil\VMS Controller\ICON V1.1\Network\TCPIP Stack\TCP.c
                  SyncTCB   0x0043b4    program     static E:\Working\VMS\Source\Keil\VMS Controller\ICON V1.1\Network\TCPIP Stack\TCP.c
                  TCPInit   0x004424    program     extern E:\Working\VMS\Source\Keil\VMS Controller\ICON V1.1\Network\TCPIP Stack\TCP.c
                  TCPOpen   0x0045c4    program     extern E:\Working\VMS\Source\Keil\VMS Controller\ICON V1.1\Network\TCPIP Stack\TCP.c
              TCPWasReset   0x0046f8    program     extern E:\Working\VMS\Source\Keil\VMS Controller\ICON V1.1\Network\TCPIP Stack\TCP.c
           TCPIsConnected   0x00470e    program     extern E:\Working\VMS\Source\Keil\VMS Controller\ICON V1.1\Network\TCPIP Stack\TCP.c
            TCPDisconnect   0x004724    program     extern E:\Working\VMS\Source\Keil\VMS Controller\ICON V1.1\Network\TCPIP Stack\TCP.c
                 TCPClose   0x0047b2    program     extern E:\Working\VMS\Source\Keil\VMS Controller\ICON V1.1\Network\TCPIP Stack\TCP.c
         TCPGetRemoteInfo   0x0047c6    program     extern E:\Working\VMS\Source\Keil\VMS Controller\ICON V1.1\Network\TCPIP Stack\TCP.c
                 TCPFlush   0x0047f6    program     extern E:\Working\VMS\Source\Keil\VMS Controller\ICON V1.1\Network\TCPIP Stack\TCP.c
            TCPIsPutReady   0x004812    program     extern E:\Working\VMS\Source\Keil\VMS Controller\ICON V1.1\Network\TCPIP Stack\TCP.c
                   TCPPut   0x004876    program     extern E:\Working\VMS\Source\Keil\VMS Controller\ICON V1.1\Network\TCPIP Stack\TCP.c
              TCPPutArray   0x00490c    program     extern E:\Working\VMS\Source\Keil\VMS Controller\ICON V1.1\Network\TCPIP Stack\TCP.c
           TCPPutROMArray   0x00499e    program     extern E:\Working\VMS\Source\Keil\VMS Controller\ICON V1.1\Network\TCPIP Stack\TCP.c
             TCPPutString   0x004a36    program     extern E:\Working\VMS\Source\Keil\VMS Controller\ICON V1.1\Network\TCPIP Stack\TCP.c
          TCPPutROMString   0x004a8c    program     extern E:\Working\VMS\Source\Keil\VMS Controller\ICON V1.1\Network\TCPIP Stack\TCP.c
         TCPGetTxFIFOFull   0x004aee    program     extern E:\Working\VMS\Source\Keil\VMS Controller\ICON V1.1\Network\TCPIP Stack\TCP.c
               TCPDiscard   0x004b1a    program     extern E:\Working\VMS\Source\Keil\VMS Controller\ICON V1.1\Network\TCPIP Stack\TCP.c
            TCPIsGetReady   0x004b3c    program     extern E:\Working\VMS\Source\Keil\VMS Controller\ICON V1.1\Network\TCPIP Stack\TCP.c
                   TCPGet   0x004b82    program     extern E:\Working\VMS\Source\Keil\VMS Controller\ICON V1.1\Network\TCPIP Stack\TCP.c
              TCPGetArray   0x004bf4    program     extern E:\Working\VMS\Source\Keil\VMS Controller\ICON V1.1\Network\TCPIP Stack\TCP.c
         TCPGetRxFIFOFree   0x004d04    program     extern E:\Working\VMS\Source\Keil\VMS Controller\ICON V1.1\Network\TCPIP Stack\TCP.c
             TCPPeekArray   0x004d30    program     extern E:\Working\VMS\Source\Keil\VMS Controller\ICON V1.1\Network\TCPIP Stack\TCP.c
                  TCPPeek   0x004e3a    program     extern E:\Working\VMS\Source\Keil\VMS Controller\ICON V1.1\Network\TCPIP Stack\TCP.c
           TCPFindArrayEx   0x004e62    program     extern E:\Working\VMS\Source\Keil\VMS Controller\ICON V1.1\Network\TCPIP Stack\TCP.c
        TCPFindROMArrayEx   0x0050d2    program     extern E:\Working\VMS\Source\Keil\VMS Controller\ICON V1.1\Network\TCPIP Stack\TCP.c
                TCPFindEx   0x00531c    program     extern E:\Working\VMS\Source\Keil\VMS Controller\ICON V1.1\Network\TCPIP Stack\TCP.c
                  TCPTick   0x00534c    program     extern E:\Working\VMS\Source\Keil\VMS Controller\ICON V1.1\Network\TCPIP Stack\TCP.c
               TCPProcess   0x0056e8    program     extern E:\Working\VMS\Source\Keil\VMS Controller\ICON V1.1\Network\TCPIP Stack\TCP.c
                  SendTCP   0x005844    program     static E:\Working\VMS\Source\Keil\VMS Controller\ICON V1.1\Network\TCPIP Stack\TCP.c
       FindMatchingSocket   0x005d6a    program     static E:\Working\VMS\Source\Keil\VMS Controller\ICON V1.1\Network\TCPIP Stack\TCP.c
            SwapTCPHeader   0x005fec    program     static E:\Working\VMS\Source\Keil\VMS Controller\ICON V1.1\Network\TCPIP Stack\TCP.c
              CloseSocket   0x006068    program     static E:\Working\VMS\Source\Keil\VMS Controller\ICON V1.1\Network\TCPIP Stack\TCP.c
      GetMaxSegSizeOption   0x0060e6    program     static E:\Working\VMS\Source\Keil\VMS Controller\ICON V1.1\Network\TCPIP Stack\TCP.c
             HandleTCPSeg   0x0061d0    program     static E:\Working\VMS\Source\Keil\VMS Controller\ICON V1.1\Network\TCPIP Stack\TCP.c
             __tmplbl_158   0x006c26    program     static                          
             __tmplbl_160   0x006c26    program     static                          
             __tmplbl_161   0x006c34    program     static                          
             __tmplbl_167   0x006c34    program     static                          
             __tmplbl_170   0x006c34    program     static                          
             __tmplbl_169   0x006c34    program     static                          
        TCPAdjustFIFOSize   0x006c42    program     extern E:\Working\VMS\Source\Keil\VMS Controller\ICON V1.1\Network\TCPIP Stack\TCP.c
               TCPRAMCopy   0x006df2    program     static E:\Working\VMS\Source\Keil\VMS Controller\ICON V1.1\Network\TCPIP Stack\TCP.c
            TCPRAMCopyROM   0x006e8a    program     static E:\Working\VMS\Source\Keil\VMS Controller\ICON V1.1\Network\TCPIP Stack\TCP.c
                   __pa_0   0x006f44    program     static E:\Working\VMS\Source\Keil\VMS Controller\ICON V1.1\Network\TCPIP Stack\TCP.c
                   __pa_1   0x006f6c    program     static E:\Working\VMS\Source\Keil\VMS Controller\ICON V1.1\Network\TCPIP Stack\TCP.c
                   __pa_2   0x006f7a    program     static E:\Working\VMS\Source\Keil\VMS Controller\ICON V1.1\Network\TCPIP Stack\TCP.c
                   __pa_3   0x007010    program     static E:\Working\VMS\Source\Keil\VMS Controller\ICON V1.1\Network\TCPIP Stack\TCP.c
                   __pa_4   0x00701c    program     static E:\Working\VMS\Source\Keil\VMS Controller\ICON V1.1\Network\TCPIP Stack\TCP.c
                   __pa_5   0x00703e    program     static E:\Working\VMS\Source\Keil\VMS Controller\ICON V1.1\Network\TCPIP Stack\TCP.c
                   __pa_6   0x007044    program     static E:\Working\VMS\Source\Keil\VMS Controller\ICON V1.1\Network\TCPIP Stack\TCP.c
             __tmplbl_155   0x00704e    program     static                          
             __tmplbl_133   0x00704e    program     static                          
             __tmplbl_150   0x00704e    program     static                          
             __tmplbl_116   0x00704e    program     static                          
             __tmplbl_132   0x00704e    program     static                          
              __tmplbl_97   0x00704e    program     static                          
             __tmplbl_119   0x00704e    program     static                          
              __tmplbl_87   0x00704e    program     static                          
             __tmplbl_153   0x00704e    program     static                          
             __tmplbl_154   0x00704e    program     static                          
              __tmplbl_91   0x00704e    program     static                          
                   __pa_7   0x00704e    program     static E:\Working\VMS\Source\Keil\VMS Controller\ICON V1.1\Network\TCPIP Stack\TCP.c
             __tmplbl_120   0x00704e    program     static                          
              __tmplbl_99   0x00704e    program     static                          
              __tmplbl_90   0x00704e    program     static                          
              __tmplbl_83   0x00704e    program     static                          
             __tmplbl_101   0x00704e    program     static                          
             __tmplbl_102   0x00704e    program     static                          
              __tmplbl_89   0x00704e    program     static                          
              __tmplbl_81   0x00704e    program     static                          
             __tmplbl_103   0x00704e    program     static                          
             __tmplbl_104   0x00704e    program     static                          
             __tmplbl_105   0x00704e    program     static                          
             __tmplbl_106   0x00704e    program     static                          
              __tmplbl_95   0x00704e    program     static                          
              __tmplbl_94   0x00704e    program     static                          
             __tmplbl_108   0x00704e    program     static                          
              __tmplbl_93   0x00704e    program     static                          
             __tmplbl_110   0x00704e    program     static                          
             __tmplbl_111   0x00704e    program     static                          
             __tmplbl_112   0x00704e    program     static                          
             __tmplbl_113   0x00704e    program     static                          
              __tmplbl_92   0x00704e    program     static                          
                   __pa_8   0x007056    program     static E:\Working\VMS\Source\Keil\VMS Controller\ICON V1.1\Network\TCPIP Stack\TCP.c
                   __pa_9   0x007082    program     static E:\Working\VMS\Source\Keil\VMS Controller\ICON V1.1\Network\TCPIP Stack\TCP.c
                  __pa_10   0x00708e    program     static E:\Working\VMS\Source\Keil\VMS Controller\ICON V1.1\Network\TCPIP Stack\TCP.c
                  __pa_11   0x007096    program     static E:\Working\VMS\Source\Keil\VMS Controller\ICON V1.1\Network\TCPIP Stack\TCP.c
                  __pa_12   0x00709e    program     static E:\Working\VMS\Source\Keil\VMS Controller\ICON V1.1\Network\TCPIP Stack\TCP.c
                  __pa_13   0x0070a6    program     static E:\Working\VMS\Source\Keil\VMS Controller\ICON V1.1\Network\TCPIP Stack\TCP.c
                  __pa_14   0x0070b2    program     static E:\Working\VMS\Source\Keil\VMS Controller\ICON V1.1\Network\TCPIP Stack\TCP.c
                  __pa_15   0x0070bc    program     static E:\Working\VMS\Source\Keil\VMS Controller\ICON V1.1\Network\TCPIP Stack\TCP.c
                  __pa_16   0x0070c8    program     static E:\Working\VMS\Source\Keil\VMS Controller\ICON V1.1\Network\TCPIP Stack\TCP.c
                  __pa_17   0x0070d4    program     static E:\Working\VMS\Source\Keil\VMS Controller\ICON V1.1\Network\TCPIP Stack\TCP.c
                  __pa_18   0x0070e2    program     static E:\Working\VMS\Source\Keil\VMS Controller\ICON V1.1\Network\TCPIP Stack\TCP.c
                  __pa_19   0x0070ec    program     static E:\Working\VMS\Source\Keil\VMS Controller\ICON V1.1\Network\TCPIP Stack\TCP.c
                  __pa_20   0x0070f6    program     static E:\Working\VMS\Source\Keil\VMS Controller\ICON V1.1\Network\TCPIP Stack\TCP.c
                  __pa_21   0x007112    program     static E:\Working\VMS\Source\Keil\VMS Controller\ICON V1.1\Network\TCPIP Stack\TCP.c
                  __pa_22   0x00711e    program     static E:\Working\VMS\Source\Keil\VMS Controller\ICON V1.1\Network\TCPIP Stack\TCP.c
                  __pa_23   0x00712c    program     static E:\Working\VMS\Source\Keil\VMS Controller\ICON V1.1\Network\TCPIP Stack\TCP.c
                  __pa_24   0x007144    program     static E:\Working\VMS\Source\Keil\VMS Controller\ICON V1.1\Network\TCPIP Stack\TCP.c
                  __pa_25   0x00714e    program     static E:\Working\VMS\Source\Keil\VMS Controller\ICON V1.1\Network\TCPIP Stack\TCP.c
                  __pa_26   0x007158    program     static E:\Working\VMS\Source\Keil\VMS Controller\ICON V1.1\Network\TCPIP Stack\TCP.c
                  __pa_27   0x007164    program     static E:\Working\VMS\Source\Keil\VMS Controller\ICON V1.1\Network\TCPIP Stack\TCP.c
                  __pa_28   0x00717a    program     static E:\Working\VMS\Source\Keil\VMS Controller\ICON V1.1\Network\TCPIP Stack\TCP.c
                  __pa_29   0x007188    program     static E:\Working\VMS\Source\Keil\VMS Controller\ICON V1.1\Network\TCPIP Stack\TCP.c
                  __pa_30   0x007196    program     static E:\Working\VMS\Source\Keil\VMS Controller\ICON V1.1\Network\TCPIP Stack\TCP.c
                  __pa_31   0x0071a4    program     static E:\Working\VMS\Source\Keil\VMS Controller\ICON V1.1\Network\TCPIP Stack\TCP.c
                  __pa_32   0x0071b0    program     static E:\Working\VMS\Source\Keil\VMS Controller\ICON V1.1\Network\TCPIP Stack\TCP.c
                  __pa_33   0x0071be    program     static E:\Working\VMS\Source\Keil\VMS Controller\ICON V1.1\Network\TCPIP Stack\TCP.c
                  __pa_34   0x0071e8    program     static E:\Working\VMS\Source\Keil\VMS Controller\ICON V1.1\Network\TCPIP Stack\TCP.c
                  __pa_35   0x0071fc    program     static E:\Working\VMS\Source\Keil\VMS Controller\ICON V1.1\Network\TCPIP Stack\TCP.c
                  __pa_36   0x007216    program     static E:\Working\VMS\Source\Keil\VMS Controller\ICON V1.1\Network\TCPIP Stack\TCP.c
                  __pa_37   0x007226    program     static E:\Working\VMS\Source\Keil\VMS Controller\ICON V1.1\Network\TCPIP Stack\TCP.c
                  __pa_38   0x007236    program     static E:\Working\VMS\Source\Keil\VMS Controller\ICON V1.1\Network\TCPIP Stack\TCP.c
                  __pa_39   0x007244    program     static E:\Working\VMS\Source\Keil\VMS Controller\ICON V1.1\Network\TCPIP Stack\TCP.c
                  __pa_40   0x00724e    program     static E:\Working\VMS\Source\Keil\VMS Controller\ICON V1.1\Network\TCPIP Stack\TCP.c
                  __pa_41   0x00726a    program     static E:\Working\VMS\Source\Keil\VMS Controller\ICON V1.1\Network\TCPIP Stack\TCP.c
                  __pa_42   0x007282    program     static E:\Working\VMS\Source\Keil\VMS Controller\ICON V1.1\Network\TCPIP Stack\TCP.c
                  __pa_43   0x007290    program     static E:\Working\VMS\Source\Keil\VMS Controller\ICON V1.1\Network\TCPIP Stack\TCP.c
                  __pa_44   0x0072a2    program     static E:\Working\VMS\Source\Keil\VMS Controller\ICON V1.1\Network\TCPIP Stack\TCP.c
                  __pa_45   0x0072ac    program     static E:\Working\VMS\Source\Keil\VMS Controller\ICON V1.1\Network\TCPIP Stack\TCP.c
                  __pa_46   0x0072b6    program     static E:\Working\VMS\Source\Keil\VMS Controller\ICON V1.1\Network\TCPIP Stack\TCP.c
                  __pa_47   0x0072c0    program     static E:\Working\VMS\Source\Keil\VMS Controller\ICON V1.1\Network\TCPIP Stack\TCP.c
                  __pa_48   0x0072d2    program     static E:\Working\VMS\Source\Keil\VMS Controller\ICON V1.1\Network\TCPIP Stack\TCP.c
                  __pa_49   0x0072f8    program     static E:\Working\VMS\Source\Keil\VMS Controller\ICON V1.1\Network\TCPIP Stack\TCP.c
                  __pa_50   0x007318    program     static E:\Working\VMS\Source\Keil\VMS Controller\ICON V1.1\Network\TCPIP Stack\TCP.c
                  __pa_51   0x007330    program     static E:\Working\VMS\Source\Keil\VMS Controller\ICON V1.1\Network\TCPIP Stack\TCP.c
                  __pa_52   0x007346    program     static E:\Working\VMS\Source\Keil\VMS Controller\ICON V1.1\Network\TCPIP Stack\TCP.c
                  __pa_53   0x00735c    program     static E:\Working\VMS\Source\Keil\VMS Controller\ICON V1.1\Network\TCPIP Stack\TCP.c
                  __pa_54   0x007368    program     static E:\Working\VMS\Source\Keil\VMS Controller\ICON V1.1\Network\TCPIP Stack\TCP.c
                  __pa_55   0x007376    program     static E:\Working\VMS\Source\Keil\VMS Controller\ICON V1.1\Network\TCPIP Stack\TCP.c
                  __pa_56   0x007384    program     static E:\Working\VMS\Source\Keil\VMS Controller\ICON V1.1\Network\TCPIP Stack\TCP.c
                  __pa_57   0x007392    program     static E:\Working\VMS\Source\Keil\VMS Controller\ICON V1.1\Network\TCPIP Stack\TCP.c
                  __pa_58   0x00739c    program     static E:\Working\VMS\Source\Keil\VMS Controller\ICON V1.1\Network\TCPIP Stack\TCP.c
                  __pa_59   0x0073ba    program     static E:\Working\VMS\Source\Keil\VMS Controller\ICON V1.1\Network\TCPIP Stack\TCP.c
                  __pa_60   0x0073de    program     static E:\Working\VMS\Source\Keil\VMS Controller\ICON V1.1\Network\TCPIP Stack\TCP.c
                  __pa_61   0x0073ea    program     static E:\Working\VMS\Source\Keil\VMS Controller\ICON V1.1\Network\TCPIP Stack\TCP.c
                  __pa_62   0x0073f4    program     static E:\Working\VMS\Source\Keil\VMS Controller\ICON V1.1\Network\TCPIP Stack\TCP.c
                  __pa_63   0x0073fe    program     static E:\Working\VMS\Source\Keil\VMS Controller\ICON V1.1\Network\TCPIP Stack\TCP.c
                  __pa_64   0x007408    program     static E:\Working\VMS\Source\Keil\VMS Controller\ICON V1.1\Network\TCPIP Stack\TCP.c
                  __pa_65   0x00741a    program     static E:\Working\VMS\Source\Keil\VMS Controller\ICON V1.1\Network\TCPIP Stack\TCP.c
                  __pa_66   0x00743a    program     static E:\Working\VMS\Source\Keil\VMS Controller\ICON V1.1\Network\TCPIP Stack\TCP.c
                  __pa_67   0x007458    program     static E:\Working\VMS\Source\Keil\VMS Controller\ICON V1.1\Network\TCPIP Stack\TCP.c
                  __pa_68   0x00746c    program     static E:\Working\VMS\Source\Keil\VMS Controller\ICON V1.1\Network\TCPIP Stack\TCP.c
                  __pa_69   0x007482    program     static E:\Working\VMS\Source\Keil\VMS Controller\ICON V1.1\Network\TCPIP Stack\TCP.c
                  __pa_70   0x0074a0    program     static E:\Working\VMS\Source\Keil\VMS Controller\ICON V1.1\Network\TCPIP Stack\TCP.c
                  __pa_71   0x0074b6    program     static E:\Working\VMS\Source\Keil\VMS Controller\ICON V1.1\Network\TCPIP Stack\TCP.c
                  __pa_72   0x0074ca    program     static E:\Working\VMS\Source\Keil\VMS Controller\ICON V1.1\Network\TCPIP Stack\TCP.c
                  __pa_73   0x0074dc    program     static E:\Working\VMS\Source\Keil\VMS Controller\ICON V1.1\Network\TCPIP Stack\TCP.c
                  __pa_74   0x0074e6    program     static E:\Working\VMS\Source\Keil\VMS Controller\ICON V1.1\Network\TCPIP Stack\TCP.c
                  __pa_75   0x0074f8    program     static E:\Working\VMS\Source\Keil\VMS Controller\ICON V1.1\Network\TCPIP Stack\TCP.c
                  __pa_76   0x007506    program     static E:\Working\VMS\Source\Keil\VMS Controller\ICON V1.1\Network\TCPIP Stack\TCP.c
                  __pa_77   0x007514    program     static E:\Working\VMS\Source\Keil\VMS Controller\ICON V1.1\Network\TCPIP Stack\TCP.c
                  __pa_78   0x00751e    program     static E:\Working\VMS\Source\Keil\VMS Controller\ICON V1.1\Network\TCPIP Stack\TCP.c
                  __pa_79   0x00752c    program     static E:\Working\VMS\Source\Keil\VMS Controller\ICON V1.1\Network\TCPIP Stack\TCP.c
                  __pa_80   0x00753a    program     static E:\Working\VMS\Source\Keil\VMS Controller\ICON V1.1\Network\TCPIP Stack\TCP.c
                  __pa_81   0x007548    program     static E:\Working\VMS\Source\Keil\VMS Controller\ICON V1.1\Network\TCPIP Stack\TCP.c
                  __pa_82   0x007556    program     static E:\Working\VMS\Source\Keil\VMS Controller\ICON V1.1\Network\TCPIP Stack\TCP.c
                  __pa_83   0x007562    program     static E:\Working\VMS\Source\Keil\VMS Controller\ICON V1.1\Network\TCPIP Stack\TCP.c
                  __pa_84   0x00756c    program     static E:\Working\VMS\Source\Keil\VMS Controller\ICON V1.1\Network\TCPIP Stack\TCP.c
                  __pa_85   0x007576    program     static E:\Working\VMS\Source\Keil\VMS Controller\ICON V1.1\Network\TCPIP Stack\TCP.c
                  __pa_86   0x007580    program     static E:\Working\VMS\Source\Keil\VMS Controller\ICON V1.1\Network\TCPIP Stack\TCP.c
                  __pa_87   0x00758a    program     static E:\Working\VMS\Source\Keil\VMS Controller\ICON V1.1\Network\TCPIP Stack\TCP.c
                  __pa_88   0x007594    program     static E:\Working\VMS\Source\Keil\VMS Controller\ICON V1.1\Network\TCPIP Stack\TCP.c
                  __pa_89   0x0075b0    program     static E:\Working\VMS\Source\Keil\VMS Controller\ICON V1.1\Network\TCPIP Stack\TCP.c
                  __pa_90   0x0075be    program     static E:\Working\VMS\Source\Keil\VMS Controller\ICON V1.1\Network\TCPIP Stack\TCP.c
                  __pa_91   0x0075d8    program     static E:\Working\VMS\Source\Keil\VMS Controller\ICON V1.1\Network\TCPIP Stack\TCP.c
                  __pa_92   0x0075f2    program     static E:\Working\VMS\Source\Keil\VMS Controller\ICON V1.1\Network\TCPIP Stack\TCP.c
                  __pa_93   0x0075fa    program     static E:\Working\VMS\Source\Keil\VMS Controller\ICON V1.1\Network\TCPIP Stack\TCP.c
                  __pa_94   0x00760a    program     static E:\Working\VMS\Source\Keil\VMS Controller\ICON V1.1\Network\TCPIP Stack\TCP.c
                  __pa_95   0x007614    program     static E:\Working\VMS\Source\Keil\VMS Controller\ICON V1.1\Network\TCPIP Stack\TCP.c
                  __pa_96   0x00761e    program     static E:\Working\VMS\Source\Keil\VMS Controller\ICON V1.1\Network\TCPIP Stack\TCP.c
                  __pa_97   0x007628    program     static E:\Working\VMS\Source\Keil\VMS Controller\ICON V1.1\Network\TCPIP Stack\TCP.c
                  __pa_98   0x007632    program     static E:\Working\VMS\Source\Keil\VMS Controller\ICON V1.1\Network\TCPIP Stack\TCP.c
                  __pa_99   0x00763c    program     static E:\Working\VMS\Source\Keil\VMS Controller\ICON V1.1\Network\TCPIP Stack\TCP.c
                 __pa_100   0x007654    program     static E:\Working\VMS\Source\Keil\VMS Controller\ICON V1.1\Network\TCPIP Stack\TCP.c
                 __pa_101   0x007664    program     static E:\Working\VMS\Source\Keil\VMS Controller\ICON V1.1\Network\TCPIP Stack\TCP.c
                 __pa_102   0x007670    program     static E:\Working\VMS\Source\Keil\VMS Controller\ICON V1.1\Network\TCPIP Stack\TCP.c
                 __pa_103   0x007680    program     static E:\Working\VMS\Source\Keil\VMS Controller\ICON V1.1\Network\TCPIP Stack\TCP.c
                 __pa_104   0x007696    program     static E:\Working\VMS\Source\Keil\VMS Controller\ICON V1.1\Network\TCPIP Stack\TCP.c
                 __pa_105   0x0076ac    program     static E:\Working\VMS\Source\Keil\VMS Controller\ICON V1.1\Network\TCPIP Stack\TCP.c
                 __pa_106   0x0076c2    program     static E:\Working\VMS\Source\Keil\VMS Controller\ICON V1.1\Network\TCPIP Stack\TCP.c
                 __pa_107   0x0076d4    program     static E:\Working\VMS\Source\Keil\VMS Controller\ICON V1.1\Network\TCPIP Stack\TCP.c
                 __pa_108   0x0076e2    program     static E:\Working\VMS\Source\Keil\VMS Controller\ICON V1.1\Network\TCPIP Stack\TCP.c
                 __pa_109   0x0076f0    program     static E:\Working\VMS\Source\Keil\VMS Controller\ICON V1.1\Network\TCPIP Stack\TCP.c
                 __pa_110   0x0076f8    program     static E:\Working\VMS\Source\Keil\VMS Controller\ICON V1.1\Network\TCPIP Stack\TCP.c
                 __pa_111   0x007700    program     static E:\Working\VMS\Source\Keil\VMS Controller\ICON V1.1\Network\TCPIP Stack\TCP.c
                 __pa_112   0x00770e    program     static E:\Working\VMS\Source\Keil\VMS Controller\ICON V1.1\Network\TCPIP Stack\TCP.c
                 __pa_113   0x00771c    program     static E:\Working\VMS\Source\Keil\VMS Controller\ICON V1.1\Network\TCPIP Stack\TCP.c
                 __pa_114   0x00772a    program     static E:\Working\VMS\Source\Keil\VMS Controller\ICON V1.1\Network\TCPIP Stack\TCP.c
                 __pa_115   0x007738    program     static E:\Working\VMS\Source\Keil\VMS Controller\ICON V1.1\Network\TCPIP Stack\TCP.c
                 __pa_116   0x007746    program     static E:\Working\VMS\Source\Keil\VMS Controller\ICON V1.1\Network\TCPIP Stack\TCP.c
                 __pa_117   0x007754    program     static E:\Working\VMS\Source\Keil\VMS Controller\ICON V1.1\Network\TCPIP Stack\TCP.c
                 __pa_118   0x007762    program     static E:\Working\VMS\Source\Keil\VMS Controller\ICON V1.1\Network\TCPIP Stack\TCP.c
                 __pa_119   0x00776a    program     static E:\Working\VMS\Source\Keil\VMS Controller\ICON V1.1\Network\TCPIP Stack\TCP.c
                 __pa_120   0x007774    program     static E:\Working\VMS\Source\Keil\VMS Controller\ICON V1.1\Network\TCPIP Stack\TCP.c
                 __pa_121   0x00777e    program     static E:\Working\VMS\Source\Keil\VMS Controller\ICON V1.1\Network\TCPIP Stack\TCP.c
                 __pa_122   0x007788    program     static E:\Working\VMS\Source\Keil\VMS Controller\ICON V1.1\Network\TCPIP Stack\TCP.c
                 __pa_123   0x007792    program     static E:\Working\VMS\Source\Keil\VMS Controller\ICON V1.1\Network\TCPIP Stack\TCP.c
                 __pa_124   0x00779c    program     static E:\Working\VMS\Source\Keil\VMS Controller\ICON V1.1\Network\TCPIP Stack\TCP.c
                 __pa_125   0x0077a4    program     static E:\Working\VMS\Source\Keil\VMS Controller\ICON V1.1\Network\TCPIP Stack\TCP.c
                 __pa_126   0x0077b8    program     static E:\Working\VMS\Source\Keil\VMS Controller\ICON V1.1\Network\TCPIP Stack\TCP.c
                 __pa_127   0x0077c6    program     static E:\Working\VMS\Source\Keil\VMS Controller\ICON V1.1\Network\TCPIP Stack\TCP.c
                 __pa_128   0x0077d0    program     static E:\Working\VMS\Source\Keil\VMS Controller\ICON V1.1\Network\TCPIP Stack\TCP.c
                 __pa_129   0x0077e2    program     static E:\Working\VMS\Source\Keil\VMS Controller\ICON V1.1\Network\TCPIP Stack\TCP.c
                 __pa_130   0x0077f4    program     static E:\Working\VMS\Source\Keil\VMS Controller\ICON V1.1\Network\TCPIP Stack\TCP.c
                 __pa_131   0x007806    program     static E:\Working\VMS\Source\Keil\VMS Controller\ICON V1.1\Network\TCPIP Stack\TCP.c
                 __pa_132   0x007818    program     static E:\Working\VMS\Source\Keil\VMS Controller\ICON V1.1\Network\TCPIP Stack\TCP.c
                 __pa_133   0x00782a    program     static E:\Working\VMS\Source\Keil\VMS Controller\ICON V1.1\Network\TCPIP Stack\TCP.c
                 __pa_134   0x007832    program     static E:\Working\VMS\Source\Keil\VMS Controller\ICON V1.1\Network\TCPIP Stack\TCP.c
                 __pa_135   0x007844    program     static E:\Working\VMS\Source\Keil\VMS Controller\ICON V1.1\Network\TCPIP Stack\TCP.c
                 __pa_136   0x007856    program     static E:\Working\VMS\Source\Keil\VMS Controller\ICON V1.1\Network\TCPIP Stack\TCP.c
                 __pa_137   0x007864    program     static E:\Working\VMS\Source\Keil\VMS Controller\ICON V1.1\Network\TCPIP Stack\TCP.c
                 __pa_138   0x007870    program     static E:\Working\VMS\Source\Keil\VMS Controller\ICON V1.1\Network\TCPIP Stack\TCP.c
                 __pa_139   0x00787c    program     static E:\Working\VMS\Source\Keil\VMS Controller\ICON V1.1\Network\TCPIP Stack\TCP.c
                 __pa_140   0x007888    program     static E:\Working\VMS\Source\Keil\VMS Controller\ICON V1.1\Network\TCPIP Stack\TCP.c
                 __pa_141   0x007892    program     static E:\Working\VMS\Source\Keil\VMS Controller\ICON V1.1\Network\TCPIP Stack\TCP.c
                 __pa_142   0x00789c    program     static E:\Working\VMS\Source\Keil\VMS Controller\ICON V1.1\Network\TCPIP Stack\TCP.c
                 __pa_143   0x0078ac    program     static E:\Working\VMS\Source\Keil\VMS Controller\ICON V1.1\Network\TCPIP Stack\TCP.c
                 __pa_144   0x0078bc    program     static E:\Working\VMS\Source\Keil\VMS Controller\ICON V1.1\Network\TCPIP Stack\TCP.c
                 __pa_145   0x0078cc    program     static E:\Working\VMS\Source\Keil\VMS Controller\ICON V1.1\Network\TCPIP Stack\TCP.c
                 __pa_146   0x0078dc    program     static E:\Working\VMS\Source\Keil\VMS Controller\ICON V1.1\Network\TCPIP Stack\TCP.c
                 __pa_147   0x0078ec    program     static E:\Working\VMS\Source\Keil\VMS Controller\ICON V1.1\Network\TCPIP Stack\TCP.c
                 __pa_148   0x0078f4    program     static E:\Working\VMS\Source\Keil\VMS Controller\ICON V1.1\Network\TCPIP Stack\TCP.c
                 __pa_149   0x007902    program     static E:\Working\VMS\Source\Keil\VMS Controller\ICON V1.1\Network\TCPIP Stack\TCP.c
                 __pa_150   0x007910    program     static E:\Working\VMS\Source\Keil\VMS Controller\ICON V1.1\Network\TCPIP Stack\TCP.c
                 __pa_151   0x00791e    program     static E:\Working\VMS\Source\Keil\VMS Controller\ICON V1.1\Network\TCPIP Stack\TCP.c
                 __pa_152   0x00792c    program     static E:\Working\VMS\Source\Keil\VMS Controller\ICON V1.1\Network\TCPIP Stack\TCP.c
                 __pa_153   0x00793a    program     static E:\Working\VMS\Source\Keil\VMS Controller\ICON V1.1\Network\TCPIP Stack\TCP.c
                 __pa_154   0x007948    program     static E:\Working\VMS\Source\Keil\VMS Controller\ICON V1.1\Network\TCPIP Stack\TCP.c
                 __pa_155   0x007956    program     static E:\Working\VMS\Source\Keil\VMS Controller\ICON V1.1\Network\TCPIP Stack\TCP.c
                 __pa_156   0x007964    program     static E:\Working\VMS\Source\Keil\VMS Controller\ICON V1.1\Network\TCPIP Stack\TCP.c
                 __pa_157   0x007972    program     static E:\Working\VMS\Source\Keil\VMS Controller\ICON V1.1\Network\TCPIP Stack\TCP.c
                 __pa_158   0x007980    program     static E:\Working\VMS\Source\Keil\VMS Controller\ICON V1.1\Network\TCPIP Stack\TCP.c
                 __pa_159   0x00798e    program     static E:\Working\VMS\Source\Keil\VMS Controller\ICON V1.1\Network\TCPIP Stack\TCP.c
                 __pa_160   0x00799c    program     static E:\Working\VMS\Source\Keil\VMS Controller\ICON V1.1\Network\TCPIP Stack\TCP.c
                 __pa_161   0x0079aa    program     static E:\Working\VMS\Source\Keil\VMS Controller\ICON V1.1\Network\TCPIP Stack\TCP.c
                 __pa_162   0x0079b4    program     static E:\Working\VMS\Source\Keil\VMS Controller\ICON V1.1\Network\TCPIP Stack\TCP.c
                 __pa_163   0x0079be    program     static E:\Working\VMS\Source\Keil\VMS Controller\ICON V1.1\Network\TCPIP Stack\TCP.c
                 __pa_164   0x0079c8    program     static E:\Working\VMS\Source\Keil\VMS Controller\ICON V1.1\Network\TCPIP Stack\TCP.c
                 __pa_165   0x0079d2    program     static E:\Working\VMS\Source\Keil\VMS Controller\ICON V1.1\Network\TCPIP Stack\TCP.c
                 __pa_166   0x0079dc    program     static E:\Working\VMS\Source\Keil\VMS Controller\ICON V1.1\Network\TCPIP Stack\TCP.c
                 __pa_167   0x0079e6    program     static E:\Working\VMS\Source\Keil\VMS Controller\ICON V1.1\Network\TCPIP Stack\TCP.c
                 __pa_168   0x0079f0    program     static E:\Working\VMS\Source\Keil\VMS Controller\ICON V1.1\Network\TCPIP Stack\TCP.c
                 __pa_169   0x0079fa    program     static E:\Working\VMS\Source\Keil\VMS Controller\ICON V1.1\Network\TCPIP Stack\TCP.c
                 __pa_170   0x007a02    program     static E:\Working\VMS\Source\Keil\VMS Controller\ICON V1.1\Network\TCPIP Stack\TCP.c
                 __pa_171   0x007a0a    program     static E:\Working\VMS\Source\Keil\VMS Controller\ICON V1.1\Network\TCPIP Stack\TCP.c
                 __pa_172   0x007a14    program     static E:\Working\VMS\Source\Keil\VMS Controller\ICON V1.1\Network\TCPIP Stack\TCP.c
                 __pa_173   0x007a3e    program     static E:\Working\VMS\Source\Keil\VMS Controller\ICON V1.1\Network\TCPIP Stack\TCP.c
                 __pa_174   0x007a4c    program     static E:\Working\VMS\Source\Keil\VMS Controller\ICON V1.1\Network\TCPIP Stack\TCP.c
                 __pa_175   0x007a54    program     static E:\Working\VMS\Source\Keil\VMS Controller\ICON V1.1\Network\TCPIP Stack\TCP.c
                 __pa_176   0x007a5e    program     static E:\Working\VMS\Source\Keil\VMS Controller\ICON V1.1\Network\TCPIP Stack\TCP.c
                 __pa_177   0x007a68    program     static E:\Working\VMS\Source\Keil\VMS Controller\ICON V1.1\Network\TCPIP Stack\TCP.c
                 __pa_178   0x007a76    program     static E:\Working\VMS\Source\Keil\VMS Controller\ICON V1.1\Network\TCPIP Stack\TCP.c
                 __pa_179   0x007a80    program     static E:\Working\VMS\Source\Keil\VMS Controller\ICON V1.1\Network\TCPIP Stack\TCP.c
                 __pa_180   0x007a8c    program     static E:\Working\VMS\Source\Keil\VMS Controller\ICON V1.1\Network\TCPIP Stack\TCP.c
                 __pa_181   0x007a9c    program     static E:\Working\VMS\Source\Keil\VMS Controller\ICON V1.1\Network\TCPIP Stack\TCP.c
                 __pa_182   0x007aa6    program     static E:\Working\VMS\Source\Keil\VMS Controller\ICON V1.1\Network\TCPIP Stack\TCP.c
                 __pa_183   0x007aae    program     static E:\Working\VMS\Source\Keil\VMS Controller\ICON V1.1\Network\TCPIP Stack\TCP.c
                 __pa_184   0x007acc    program     static E:\Working\VMS\Source\Keil\VMS Controller\ICON V1.1\Network\TCPIP Stack\TCP.c
                 __pa_185   0x007ae4    program     static E:\Working\VMS\Source\Keil\VMS Controller\ICON V1.1\Network\TCPIP Stack\TCP.c
                 __pa_186   0x007afa    program     static E:\Working\VMS\Source\Keil\VMS Controller\ICON V1.1\Network\TCPIP Stack\TCP.c
                 __pa_187   0x007b16    program     static E:\Working\VMS\Source\Keil\VMS Controller\ICON V1.1\Network\TCPIP Stack\TCP.c
                 __pa_188   0x007b32    program     static E:\Working\VMS\Source\Keil\VMS Controller\ICON V1.1\Network\TCPIP Stack\TCP.c
                 __pa_189   0x007b3e    program     static E:\Working\VMS\Source\Keil\VMS Controller\ICON V1.1\Network\TCPIP Stack\TCP.c
                 __pa_190   0x007b4c    program     static E:\Working\VMS\Source\Keil\VMS Controller\ICON V1.1\Network\TCPIP Stack\TCP.c
                 __pa_191   0x007b56    program     static E:\Working\VMS\Source\Keil\VMS Controller\ICON V1.1\Network\TCPIP Stack\TCP.c
                 __pa_192   0x007b60    program     static E:\Working\VMS\Source\Keil\VMS Controller\ICON V1.1\Network\TCPIP Stack\TCP.c
                 __pa_193   0x007b6a    program     static E:\Working\VMS\Source\Keil\VMS Controller\ICON V1.1\Network\TCPIP Stack\TCP.c
                 __pa_194   0x007b72    program     static E:\Working\VMS\Source\Keil\VMS Controller\ICON V1.1\Network\TCPIP Stack\TCP.c
                 __pa_195   0x007b7c    program     static E:\Working\VMS\Source\Keil\VMS Controller\ICON V1.1\Network\TCPIP Stack\TCP.c
                 __pa_196   0x007b96    program     static E:\Working\VMS\Source\Keil\VMS Controller\ICON V1.1\Network\TCPIP Stack\TCP.c
                 __pa_197   0x007b9e    program     static E:\Working\VMS\Source\Keil\VMS Controller\ICON V1.1\Network\TCPIP Stack\TCP.c
                 __pa_198   0x007ba8    program     static E:\Working\VMS\Source\Keil\VMS Controller\ICON V1.1\Network\TCPIP Stack\TCP.c
                 __pa_199   0x007bb2    program     static E:\Working\VMS\Source\Keil\VMS Controller\ICON V1.1\Network\TCPIP Stack\TCP.c
                 __pa_200   0x007bbe    program     static E:\Working\VMS\Source\Keil\VMS Controller\ICON V1.1\Network\TCPIP Stack\TCP.c
                 __pa_201   0x007bca    program     static E:\Working\VMS\Source\Keil\VMS Controller\ICON V1.1\Network\TCPIP Stack\TCP.c
                 __pa_202   0x007bde    program     static E:\Working\VMS\Source\Keil\VMS Controller\ICON V1.1\Network\TCPIP Stack\TCP.c
             __tmplbl_218   0x007bf2    program     static                          
             __tmplbl_217   0x007bf2    program     static                          
                 __pa_203   0x007bf2    program     static E:\Working\VMS\Source\Keil\VMS Controller\ICON V1.1\Network\TCPIP Stack\TCP.c
                 __pa_204   0x007c06    program     static E:\Working\VMS\Source\Keil\VMS Controller\ICON V1.1\Network\TCPIP Stack\TCP.c
                 __pa_205   0x007c14    program     static E:\Working\VMS\Source\Keil\VMS Controller\ICON V1.1\Network\TCPIP Stack\TCP.c
                 __pa_206   0x007c22    program     static E:\Working\VMS\Source\Keil\VMS Controller\ICON V1.1\Network\TCPIP Stack\TCP.c
                 __pa_207   0x007c30    program     static E:\Working\VMS\Source\Keil\VMS Controller\ICON V1.1\Network\TCPIP Stack\TCP.c
                 __pa_208   0x007c38    program     static E:\Working\VMS\Source\Keil\VMS Controller\ICON V1.1\Network\TCPIP Stack\TCP.c
                 __pa_209   0x007c42    program     static E:\Working\VMS\Source\Keil\VMS Controller\ICON V1.1\Network\TCPIP Stack\TCP.c
                 __pa_210   0x007c4c    program     static E:\Working\VMS\Source\Keil\VMS Controller\ICON V1.1\Network\TCPIP Stack\TCP.c
                 __pa_211   0x007c54    program     static E:\Working\VMS\Source\Keil\VMS Controller\ICON V1.1\Network\TCPIP Stack\TCP.c
                 __pa_212   0x007c66    program     static E:\Working\VMS\Source\Keil\VMS Controller\ICON V1.1\Network\TCPIP Stack\TCP.c
                 __pa_213   0x007c78    program     static E:\Working\VMS\Source\Keil\VMS Controller\ICON V1.1\Network\TCPIP Stack\TCP.c
                 __pa_214   0x007c8c    program     static E:\Working\VMS\Source\Keil\VMS Controller\ICON V1.1\Network\TCPIP Stack\TCP.c
                 __pa_215   0x007ca0    program     static E:\Working\VMS\Source\Keil\VMS Controller\ICON V1.1\Network\TCPIP Stack\TCP.c
                 __pa_216   0x007cac    program     static E:\Working\VMS\Source\Keil\VMS Controller\ICON V1.1\Network\TCPIP Stack\TCP.c
                 __pa_217   0x007cbe    program     static E:\Working\VMS\Source\Keil\VMS Controller\ICON V1.1\Network\TCPIP Stack\TCP.c
                 __pa_218   0x007cc4    program     static E:\Working\VMS\Source\Keil\VMS Controller\ICON V1.1\Network\TCPIP Stack\TCP.c
                 __pa_219   0x007cd2    program     static E:\Working\VMS\Source\Keil\VMS Controller\ICON V1.1\Network\TCPIP Stack\TCP.c
                 __pa_220   0x007ce2    program     static E:\Working\VMS\Source\Keil\VMS Controller\ICON V1.1\Network\TCPIP Stack\TCP.c
                 __pa_221   0x007ce8    program     static E:\Working\VMS\Source\Keil\VMS Controller\ICON V1.1\Network\TCPIP Stack\TCP.c
                 __pa_222   0x007cf2    program     static E:\Working\VMS\Source\Keil\VMS Controller\ICON V1.1\Network\TCPIP Stack\TCP.c
             __tmplbl_216   0x007cfc    program     static                          
                 __pa_223   0x007cfc    program     static E:\Working\VMS\Source\Keil\VMS Controller\ICON V1.1\Network\TCPIP Stack\TCP.c
                 __pa_224   0x007d06    program     static E:\Working\VMS\Source\Keil\VMS Controller\ICON V1.1\Network\TCPIP Stack\TCP.c
                 __pa_225   0x007d0e    program     static E:\Working\VMS\Source\Keil\VMS Controller\ICON V1.1\Network\TCPIP Stack\TCP.c
                 __pa_226   0x007d18    program     static E:\Working\VMS\Source\Keil\VMS Controller\ICON V1.1\Network\TCPIP Stack\TCP.c
                 __pa_227   0x007d22    program     static E:\Working\VMS\Source\Keil\VMS Controller\ICON V1.1\Network\TCPIP Stack\TCP.c
                 __pa_228   0x007d2a    program     static E:\Working\VMS\Source\Keil\VMS Controller\ICON V1.1\Network\TCPIP Stack\TCP.c
                 __pa_229   0x007d34    program     static E:\Working\VMS\Source\Keil\VMS Controller\ICON V1.1\Network\TCPIP Stack\TCP.c
                 __pa_230   0x007d3e    program     static E:\Working\VMS\Source\Keil\VMS Controller\ICON V1.1\Network\TCPIP Stack\TCP.c
                 __pa_231   0x007d46    program     static E:\Working\VMS\Source\Keil\VMS Controller\ICON V1.1\Network\TCPIP Stack\TCP.c
                 __pa_232   0x007d56    program     static E:\Working\VMS\Source\Keil\VMS Controller\ICON V1.1\Network\TCPIP Stack\TCP.c
                 __pa_233   0x007d66    program     static E:\Working\VMS\Source\Keil\VMS Controller\ICON V1.1\Network\TCPIP Stack\TCP.c
                 __pa_234   0x007d76    program     static E:\Working\VMS\Source\Keil\VMS Controller\ICON V1.1\Network\TCPIP Stack\TCP.c
                 __pa_235   0x007d86    program     static E:\Working\VMS\Source\Keil\VMS Controller\ICON V1.1\Network\TCPIP Stack\TCP.c
                 __pa_236   0x007d94    program     static E:\Working\VMS\Source\Keil\VMS Controller\ICON V1.1\Network\TCPIP Stack\TCP.c
             __tmplbl_219   0x007da4    program     static                          
                 __pa_237   0x007da4    program     static E:\Working\VMS\Source\Keil\VMS Controller\ICON V1.1\Network\TCPIP Stack\TCP.c
                 __pa_238   0x007db2    program     static E:\Working\VMS\Source\Keil\VMS Controller\ICON V1.1\Network\TCPIP Stack\TCP.c
                 __pa_239   0x007dbe    program     static E:\Working\VMS\Source\Keil\VMS Controller\ICON V1.1\Network\TCPIP Stack\TCP.c
                 __pa_240   0x007dca    program     static E:\Working\VMS\Source\Keil\VMS Controller\ICON V1.1\Network\TCPIP Stack\TCP.c
                 __pa_241   0x007dd6    program     static E:\Working\VMS\Source\Keil\VMS Controller\ICON V1.1\Network\TCPIP Stack\TCP.c
                 __pa_242   0x007de4    program     static E:\Working\VMS\Source\Keil\VMS Controller\ICON V1.1\Network\TCPIP Stack\TCP.c
                 __pa_243   0x007df0    program     static E:\Working\VMS\Source\Keil\VMS Controller\ICON V1.1\Network\TCPIP Stack\TCP.c
                 __pa_244   0x007dfe    program     static E:\Working\VMS\Source\Keil\VMS Controller\ICON V1.1\Network\TCPIP Stack\TCP.c
                 __pa_245   0x007e0a    program     static E:\Working\VMS\Source\Keil\VMS Controller\ICON V1.1\Network\TCPIP Stack\TCP.c
                 __pa_246   0x007e18    program     static E:\Working\VMS\Source\Keil\VMS Controller\ICON V1.1\Network\TCPIP Stack\TCP.c
                 __pa_247   0x007e26    program     static E:\Working\VMS\Source\Keil\VMS Controller\ICON V1.1\Network\TCPIP Stack\TCP.c
                 __pa_248   0x007e34    program     static E:\Working\VMS\Source\Keil\VMS Controller\ICON V1.1\Network\TCPIP Stack\TCP.c
                 __pa_249   0x007e42    program     static E:\Working\VMS\Source\Keil\VMS Controller\ICON V1.1\Network\TCPIP Stack\TCP.c
                 __pa_250   0x007e50    program     static E:\Working\VMS\Source\Keil\VMS Controller\ICON V1.1\Network\TCPIP Stack\TCP.c
                 __pa_251   0x007e5e    program     static E:\Working\VMS\Source\Keil\VMS Controller\ICON V1.1\Network\TCPIP Stack\TCP.c
                 __pa_252   0x007e6c    program     static E:\Working\VMS\Source\Keil\VMS Controller\ICON V1.1\Network\TCPIP Stack\TCP.c
                 __pa_253   0x007e7a    program     static E:\Working\VMS\Source\Keil\VMS Controller\ICON V1.1\Network\TCPIP Stack\TCP.c
                 __pa_254   0x007e86    program     static E:\Working\VMS\Source\Keil\VMS Controller\ICON V1.1\Network\TCPIP Stack\TCP.c
                 __pa_255   0x007e94    program     static E:\Working\VMS\Source\Keil\VMS Controller\ICON V1.1\Network\TCPIP Stack\TCP.c
                 __pa_256   0x007ea2    program     static E:\Working\VMS\Source\Keil\VMS Controller\ICON V1.1\Network\TCPIP Stack\TCP.c
                 __pa_257   0x007eb0    program     static E:\Working\VMS\Source\Keil\VMS Controller\ICON V1.1\Network\TCPIP Stack\TCP.c
                 __pa_258   0x007ebe    program     static E:\Working\VMS\Source\Keil\VMS Controller\ICON V1.1\Network\TCPIP Stack\TCP.c
                 __pa_259   0x007ec8    program     static E:\Working\VMS\Source\Keil\VMS Controller\ICON V1.1\Network\TCPIP Stack\TCP.c
                 __pa_260   0x007ed0    program     static E:\Working\VMS\Source\Keil\VMS Controller\ICON V1.1\Network\TCPIP Stack\TCP.c
                 __pa_261   0x007eda    program     static E:\Working\VMS\Source\Keil\VMS Controller\ICON V1.1\Network\TCPIP Stack\TCP.c
                 __pa_262   0x007ee4    program     static E:\Working\VMS\Source\Keil\VMS Controller\ICON V1.1\Network\TCPIP Stack\TCP.c
                 __pa_263   0x007eee    program     static E:\Working\VMS\Source\Keil\VMS Controller\ICON V1.1\Network\TCPIP Stack\TCP.c
                 __pa_264   0x007ef6    program     static E:\Working\VMS\Source\Keil\VMS Controller\ICON V1.1\Network\TCPIP Stack\TCP.c
                 __pa_265   0x007efe    program     static E:\Working\VMS\Source\Keil\VMS Controller\ICON V1.1\Network\TCPIP Stack\TCP.c
                 __pa_266   0x007f08    program     static E:\Working\VMS\Source\Keil\VMS Controller\ICON V1.1\Network\TCPIP Stack\TCP.c
                 __pa_267   0x007f12    program     static E:\Working\VMS\Source\Keil\VMS Controller\ICON V1.1\Network\TCPIP Stack\TCP.c
                 __pa_268   0x007f1e    program     static E:\Working\VMS\Source\Keil\VMS Controller\ICON V1.1\Network\TCPIP Stack\TCP.c
                 __pa_269   0x007f2e    program     static E:\Working\VMS\Source\Keil\VMS Controller\ICON V1.1\Network\TCPIP Stack\TCP.c
                 __pa_270   0x007f40    program     static E:\Working\VMS\Source\Keil\VMS Controller\ICON V1.1\Network\TCPIP Stack\TCP.c
                 __pa_271   0x007f50    program     static E:\Working\VMS\Source\Keil\VMS Controller\ICON V1.1\Network\TCPIP Stack\TCP.c
                 __pa_272   0x007f5e    program     static E:\Working\VMS\Source\Keil\VMS Controller\ICON V1.1\Network\TCPIP Stack\TCP.c
                 __pa_273   0x007f66    program     static E:\Working\VMS\Source\Keil\VMS Controller\ICON V1.1\Network\TCPIP Stack\TCP.c
                 __pa_274   0x007f6c    program     static E:\Working\VMS\Source\Keil\VMS Controller\ICON V1.1\Network\TCPIP Stack\TCP.c
                 __pa_275   0x007f7c    program     static E:\Working\VMS\Source\Keil\VMS Controller\ICON V1.1\Network\TCPIP Stack\TCP.c
                 __pa_276   0x007f8a    program     static E:\Working\VMS\Source\Keil\VMS Controller\ICON V1.1\Network\TCPIP Stack\TCP.c
                 __pa_277   0x007f92    program     static E:\Working\VMS\Source\Keil\VMS Controller\ICON V1.1\Network\TCPIP Stack\TCP.c
                 __pa_278   0x007f9e    program     static E:\Working\VMS\Source\Keil\VMS Controller\ICON V1.1\Network\TCPIP Stack\TCP.c
                 __pa_279   0x007faa    program     static E:\Working\VMS\Source\Keil\VMS Controller\ICON V1.1\Network\TCPIP Stack\TCP.c
                 __pa_280   0x007fb4    program     static E:\Working\VMS\Source\Keil\VMS Controller\ICON V1.1\Network\TCPIP Stack\TCP.c
                 __pa_281   0x007fbc    program     static E:\Working\VMS\Source\Keil\VMS Controller\ICON V1.1\Network\TCPIP Stack\TCP.c
                 __pa_282   0x007fc8    program     static E:\Working\VMS\Source\Keil\VMS Controller\ICON V1.1\Network\TCPIP Stack\TCP.c
                 __pa_283   0x007fd4    program     static E:\Working\VMS\Source\Keil\VMS Controller\ICON V1.1\Network\TCPIP Stack\TCP.c
                 __pa_284   0x007fe0    program     static E:\Working\VMS\Source\Keil\VMS Controller\ICON V1.1\Network\TCPIP Stack\TCP.c
                 __pa_285   0x007fec    program     static E:\Working\VMS\Source\Keil\VMS Controller\ICON V1.1\Network\TCPIP Stack\TCP.c
             __tmplbl_215   0x007fec    program     static                          
                 __pa_286   0x007ff8    program     static E:\Working\VMS\Source\Keil\VMS Controller\ICON V1.1\Network\TCPIP Stack\TCP.c
                 __pa_287   0x008000    program     static E:\Working\VMS\Source\Keil\VMS Controller\ICON V1.1\Network\TCPIP Stack\TCP.c
                 __pa_288   0x008008    program     static E:\Working\VMS\Source\Keil\VMS Controller\ICON V1.1\Network\TCPIP Stack\TCP.c
                 __pa_289   0x008010    program     static E:\Working\VMS\Source\Keil\VMS Controller\ICON V1.1\Network\TCPIP Stack\TCP.c
                 __pa_290   0x00801a    program     static E:\Working\VMS\Source\Keil\VMS Controller\ICON V1.1\Network\TCPIP Stack\TCP.c
                 __pa_291   0x008022    program     static E:\Working\VMS\Source\Keil\VMS Controller\ICON V1.1\Network\TCPIP Stack\TCP.c
                 __pa_292   0x00802c    program     static E:\Working\VMS\Source\Keil\VMS Controller\ICON V1.1\Network\TCPIP Stack\TCP.c
                 __pa_293   0x008034    program     static E:\Working\VMS\Source\Keil\VMS Controller\ICON V1.1\Network\TCPIP Stack\TCP.c
                 __pa_294   0x00803e    program     static E:\Working\VMS\Source\Keil\VMS Controller\ICON V1.1\Network\TCPIP Stack\TCP.c
                 __pa_295   0x008046    program     static E:\Working\VMS\Source\Keil\VMS Controller\ICON V1.1\Network\TCPIP Stack\TCP.c
                 __pa_296   0x008050    program     static E:\Working\VMS\Source\Keil\VMS Controller\ICON V1.1\Network\TCPIP Stack\TCP.c
                HTTPPrint   0x008058    program     extern E:\Working\VMS\Source\Keil\VMS Controller\ICON V1.1\Network\HTTPPrint.h
               HTTPPrint_   0x0083e0    program     extern E:\Working\VMS\Source\Keil\VMS Controller\ICON V1.1\Network\HTTPPrint.h
                 HTTPInit   0x0083f0    program     extern E:\Working\VMS\Source\Keil\VMS Controller\ICON V1.1\Network\TCPIP Stack\HTTP2.c
               HTTPServer   0x008452    program     extern E:\Working\VMS\Source\Keil\VMS Controller\ICON V1.1\Network\TCPIP Stack\HTTP2.c
             HTTPLoadConn   0x0084cc    program     static E:\Working\VMS\Source\Keil\VMS Controller\ICON V1.1\Network\TCPIP Stack\HTTP2.c
              HTTPProcess   0x00851c    program     static E:\Working\VMS\Source\Keil\VMS Controller\ICON V1.1\Network\TCPIP Stack\HTTP2.c
             HTTPSendFile   0x008cca    program     static E:\Working\VMS\Source\Keil\VMS Controller\ICON V1.1\Network\TCPIP Stack\HTTP2.c
    HTTPHeaderParseLookup   0x008e1e    program     static E:\Working\VMS\Source\Keil\VMS Controller\ICON V1.1\Network\TCPIP Stack\HTTP2.c
HTTPHeaderParseAuthorization   0x008e36    program     static E:\Working\VMS\Source\Keil\VMS Controller\ICON V1.1\Network\TCPIP Stack\HTTP2.c
HTTPHeaderParseContentLength   0x008f3a    program     static E:\Working\VMS\Source\Keil\VMS Controller\ICON V1.1\Network\TCPIP Stack\HTTP2.c
            HTTPURLDecode   0x008fae    program     extern E:\Working\VMS\Source\Keil\VMS Controller\ICON V1.1\Network\TCPIP Stack\HTTP2.c
               HTTPGetArg   0x0090d8    program     extern E:\Working\VMS\Source\Keil\VMS Controller\ICON V1.1\Network\TCPIP Stack\HTTP2.c
            HTTPGetROMArg   0x009114    program     extern E:\Working\VMS\Source\Keil\VMS Controller\ICON V1.1\Network\TCPIP Stack\HTTP2.c
         HTTPReadPostName   0x009164    program     extern E:\Working\VMS\Source\Keil\VMS Controller\ICON V1.1\Network\TCPIP Stack\HTTP2.c
        HTTPReadPostValue   0x009184    program     extern E:\Working\VMS\Source\Keil\VMS Controller\ICON V1.1\Network\TCPIP Stack\HTTP2.c
               HTTPReadTo   0x0091d0    program     static E:\Working\VMS\Source\Keil\VMS Controller\ICON V1.1\Network\TCPIP Stack\HTTP2.c
              HTTPIncFile   0x009320    program     extern E:\Working\VMS\Source\Keil\VMS Controller\ICON V1.1\Network\TCPIP Stack\HTTP2.c
                   __pa_0   0x009402    program     static E:\Working\VMS\Source\Keil\VMS Controller\ICON V1.1\Network\TCPIP Stack\HTTP2.c
                   __pa_1   0x00940c    program     static E:\Working\VMS\Source\Keil\VMS Controller\ICON V1.1\Network\TCPIP Stack\HTTP2.c
                   __pa_2   0x00945e    program     static E:\Working\VMS\Source\Keil\VMS Controller\ICON V1.1\Network\TCPIP Stack\HTTP2.c
                   __pa_3   0x00947c    program     static E:\Working\VMS\Source\Keil\VMS Controller\ICON V1.1\Network\TCPIP Stack\HTTP2.c
                   __pa_4   0x009484    program     static E:\Working\VMS\Source\Keil\VMS Controller\ICON V1.1\Network\TCPIP Stack\HTTP2.c
                   __pa_5   0x0094a0    program     static E:\Working\VMS\Source\Keil\VMS Controller\ICON V1.1\Network\TCPIP Stack\HTTP2.c
                   __pa_6   0x0094c4    program     static E:\Working\VMS\Source\Keil\VMS Controller\ICON V1.1\Network\TCPIP Stack\HTTP2.c
                   __pa_7   0x0094ca    program     static E:\Working\VMS\Source\Keil\VMS Controller\ICON V1.1\Network\TCPIP Stack\HTTP2.c
                   __pa_8   0x0094e2    program     static E:\Working\VMS\Source\Keil\VMS Controller\ICON V1.1\Network\TCPIP Stack\HTTP2.c
                   __pa_9   0x009508    program     static E:\Working\VMS\Source\Keil\VMS Controller\ICON V1.1\Network\TCPIP Stack\HTTP2.c
                  __pa_10   0x009512    program     static E:\Working\VMS\Source\Keil\VMS Controller\ICON V1.1\Network\TCPIP Stack\HTTP2.c
              __tmplbl_82   0x00951c    program     static                          
              __tmplbl_83   0x00951c    program     static                          
             __tmplbl_108   0x00951c    program     static                          
              __tmplbl_85   0x00951c    program     static                          
              __tmplbl_84   0x00951c    program     static                          
                  __pa_11   0x00951c    program     static E:\Working\VMS\Source\Keil\VMS Controller\ICON V1.1\Network\TCPIP Stack\HTTP2.c
                  __pa_12   0x009524    program     static E:\Working\VMS\Source\Keil\VMS Controller\ICON V1.1\Network\TCPIP Stack\HTTP2.c
                  __pa_13   0x009532    program     static E:\Working\VMS\Source\Keil\VMS Controller\ICON V1.1\Network\TCPIP Stack\HTTP2.c
                  __pa_14   0x009538    program     static E:\Working\VMS\Source\Keil\VMS Controller\ICON V1.1\Network\TCPIP Stack\HTTP2.c
                  __pa_15   0x009548    program     static E:\Working\VMS\Source\Keil\VMS Controller\ICON V1.1\Network\TCPIP Stack\HTTP2.c
                  __pa_16   0x009550    program     static E:\Working\VMS\Source\Keil\VMS Controller\ICON V1.1\Network\TCPIP Stack\HTTP2.c
                  __pa_17   0x00955e    program     static E:\Working\VMS\Source\Keil\VMS Controller\ICON V1.1\Network\TCPIP Stack\HTTP2.c
                  __pa_18   0x009568    program     static E:\Working\VMS\Source\Keil\VMS Controller\ICON V1.1\Network\TCPIP Stack\HTTP2.c
                  __pa_19   0x00957c    program     static E:\Working\VMS\Source\Keil\VMS Controller\ICON V1.1\Network\TCPIP Stack\HTTP2.c
                  __pa_20   0x009584    program     static E:\Working\VMS\Source\Keil\VMS Controller\ICON V1.1\Network\TCPIP Stack\HTTP2.c
                  __pa_21   0x00958a    program     static E:\Working\VMS\Source\Keil\VMS Controller\ICON V1.1\Network\TCPIP Stack\HTTP2.c
                  __pa_22   0x009594    program     static E:\Working\VMS\Source\Keil\VMS Controller\ICON V1.1\Network\TCPIP Stack\HTTP2.c
                  __pa_23   0x0095a2    program     static E:\Working\VMS\Source\Keil\VMS Controller\ICON V1.1\Network\TCPIP Stack\HTTP2.c
                  __pa_24   0x0095ac    program     static E:\Working\VMS\Source\Keil\VMS Controller\ICON V1.1\Network\TCPIP Stack\HTTP2.c
                  __pa_25   0x0095b2    program     static E:\Working\VMS\Source\Keil\VMS Controller\ICON V1.1\Network\TCPIP Stack\HTTP2.c
                  __pa_26   0x0095b8    program     static E:\Working\VMS\Source\Keil\VMS Controller\ICON V1.1\Network\TCPIP Stack\HTTP2.c
                  __pa_27   0x0095be    program     static E:\Working\VMS\Source\Keil\VMS Controller\ICON V1.1\Network\TCPIP Stack\HTTP2.c
                  __pa_28   0x0095c8    program     static E:\Working\VMS\Source\Keil\VMS Controller\ICON V1.1\Network\TCPIP Stack\HTTP2.c
                  __pa_29   0x0095d8    program     static E:\Working\VMS\Source\Keil\VMS Controller\ICON V1.1\Network\TCPIP Stack\HTTP2.c
                  __pa_30   0x0095ec    program     static E:\Working\VMS\Source\Keil\VMS Controller\ICON V1.1\Network\TCPIP Stack\HTTP2.c
                  __pa_31   0x009600    program     static E:\Working\VMS\Source\Keil\VMS Controller\ICON V1.1\Network\TCPIP Stack\HTTP2.c
                  __pa_32   0x009610    program     static E:\Working\VMS\Source\Keil\VMS Controller\ICON V1.1\Network\TCPIP Stack\HTTP2.c
                  __pa_33   0x00961e    program     static E:\Working\VMS\Source\Keil\VMS Controller\ICON V1.1\Network\TCPIP Stack\HTTP2.c
                  __pa_34   0x009626    program     static E:\Working\VMS\Source\Keil\VMS Controller\ICON V1.1\Network\TCPIP Stack\HTTP2.c
                  __pa_35   0x009634    program     static E:\Working\VMS\Source\Keil\VMS Controller\ICON V1.1\Network\TCPIP Stack\HTTP2.c
                  __pa_36   0x009640    program     static E:\Working\VMS\Source\Keil\VMS Controller\ICON V1.1\Network\TCPIP Stack\HTTP2.c
                  __pa_37   0x009648    program     static E:\Working\VMS\Source\Keil\VMS Controller\ICON V1.1\Network\TCPIP Stack\HTTP2.c
                  __pa_38   0x009658    program     static E:\Working\VMS\Source\Keil\VMS Controller\ICON V1.1\Network\TCPIP Stack\HTTP2.c
                  __pa_39   0x009668    program     static E:\Working\VMS\Source\Keil\VMS Controller\ICON V1.1\Network\TCPIP Stack\HTTP2.c
                  __pa_40   0x009678    program     static E:\Working\VMS\Source\Keil\VMS Controller\ICON V1.1\Network\TCPIP Stack\HTTP2.c
                  __pa_41   0x009680    program     static E:\Working\VMS\Source\Keil\VMS Controller\ICON V1.1\Network\TCPIP Stack\HTTP2.c
                  __pa_42   0x00968a    program     static E:\Working\VMS\Source\Keil\VMS Controller\ICON V1.1\Network\TCPIP Stack\HTTP2.c
                  __pa_43   0x009696    program     static E:\Working\VMS\Source\Keil\VMS Controller\ICON V1.1\Network\TCPIP Stack\HTTP2.c
                  __pa_44   0x0096a2    program     static E:\Working\VMS\Source\Keil\VMS Controller\ICON V1.1\Network\TCPIP Stack\HTTP2.c
                  __pa_45   0x0096b2    program     static E:\Working\VMS\Source\Keil\VMS Controller\ICON V1.1\Network\TCPIP Stack\HTTP2.c
                  __pa_46   0x0096c8    program     static E:\Working\VMS\Source\Keil\VMS Controller\ICON V1.1\Network\TCPIP Stack\HTTP2.c
                  __pa_47   0x0096d8    program     static E:\Working\VMS\Source\Keil\VMS Controller\ICON V1.1\Network\TCPIP Stack\HTTP2.c
                  __pa_48   0x0096ee    program     static E:\Working\VMS\Source\Keil\VMS Controller\ICON V1.1\Network\TCPIP Stack\HTTP2.c
                  __pa_49   0x0096f8    program     static E:\Working\VMS\Source\Keil\VMS Controller\ICON V1.1\Network\TCPIP Stack\HTTP2.c
                  __pa_50   0x009706    program     static E:\Working\VMS\Source\Keil\VMS Controller\ICON V1.1\Network\TCPIP Stack\HTTP2.c
                  __pa_51   0x009714    program     static E:\Working\VMS\Source\Keil\VMS Controller\ICON V1.1\Network\TCPIP Stack\HTTP2.c
                  __pa_52   0x009722    program     static E:\Working\VMS\Source\Keil\VMS Controller\ICON V1.1\Network\TCPIP Stack\HTTP2.c
                  __pa_53   0x009730    program     static E:\Working\VMS\Source\Keil\VMS Controller\ICON V1.1\Network\TCPIP Stack\HTTP2.c
                  __pa_54   0x00973e    program     static E:\Working\VMS\Source\Keil\VMS Controller\ICON V1.1\Network\TCPIP Stack\HTTP2.c
                  __pa_55   0x00974e    program     static E:\Working\VMS\Source\Keil\VMS Controller\ICON V1.1\Network\TCPIP Stack\HTTP2.c
                  __pa_56   0x00975c    program     static E:\Working\VMS\Source\Keil\VMS Controller\ICON V1.1\Network\TCPIP Stack\HTTP2.c
                  __pa_57   0x00976c    program     static E:\Working\VMS\Source\Keil\VMS Controller\ICON V1.1\Network\TCPIP Stack\HTTP2.c
                  __pa_58   0x00977a    program     static E:\Working\VMS\Source\Keil\VMS Controller\ICON V1.1\Network\TCPIP Stack\HTTP2.c
                  __pa_59   0x00978e    program     static E:\Working\VMS\Source\Keil\VMS Controller\ICON V1.1\Network\TCPIP Stack\HTTP2.c
                  __pa_60   0x009796    program     static E:\Working\VMS\Source\Keil\VMS Controller\ICON V1.1\Network\TCPIP Stack\HTTP2.c
                  __pa_61   0x0097a8    program     static E:\Working\VMS\Source\Keil\VMS Controller\ICON V1.1\Network\TCPIP Stack\HTTP2.c
                  __pa_62   0x0097b4    program     static E:\Working\VMS\Source\Keil\VMS Controller\ICON V1.1\Network\TCPIP Stack\HTTP2.c
                  __pa_63   0x0097c6    program     static E:\Working\VMS\Source\Keil\VMS Controller\ICON V1.1\Network\TCPIP Stack\HTTP2.c
                  __pa_64   0x0097cc    program     static E:\Working\VMS\Source\Keil\VMS Controller\ICON V1.1\Network\TCPIP Stack\HTTP2.c
                  __pa_65   0x0097dc    program     static E:\Working\VMS\Source\Keil\VMS Controller\ICON V1.1\Network\TCPIP Stack\HTTP2.c
                  __pa_66   0x0097e8    program     static E:\Working\VMS\Source\Keil\VMS Controller\ICON V1.1\Network\TCPIP Stack\HTTP2.c
                  __pa_67   0x0097f8    program     static E:\Working\VMS\Source\Keil\VMS Controller\ICON V1.1\Network\TCPIP Stack\HTTP2.c
                  __pa_68   0x009800    program     static E:\Working\VMS\Source\Keil\VMS Controller\ICON V1.1\Network\TCPIP Stack\HTTP2.c
                  __pa_69   0x009808    program     static E:\Working\VMS\Source\Keil\VMS Controller\ICON V1.1\Network\TCPIP Stack\HTTP2.c
                  __pa_70   0x009816    program     static E:\Working\VMS\Source\Keil\VMS Controller\ICON V1.1\Network\TCPIP Stack\HTTP2.c
                  __pa_71   0x009824    program     static E:\Working\VMS\Source\Keil\VMS Controller\ICON V1.1\Network\TCPIP Stack\HTTP2.c
                  __pa_72   0x009832    program     static E:\Working\VMS\Source\Keil\VMS Controller\ICON V1.1\Network\TCPIP Stack\HTTP2.c
                  __pa_73   0x009840    program     static E:\Working\VMS\Source\Keil\VMS Controller\ICON V1.1\Network\TCPIP Stack\HTTP2.c
                  __pa_74   0x00984e    program     static E:\Working\VMS\Source\Keil\VMS Controller\ICON V1.1\Network\TCPIP Stack\HTTP2.c
                  __pa_75   0x00985c    program     static E:\Working\VMS\Source\Keil\VMS Controller\ICON V1.1\Network\TCPIP Stack\HTTP2.c
                  __pa_76   0x00986a    program     static E:\Working\VMS\Source\Keil\VMS Controller\ICON V1.1\Network\TCPIP Stack\HTTP2.c
                  __pa_77   0x009878    program     static E:\Working\VMS\Source\Keil\VMS Controller\ICON V1.1\Network\TCPIP Stack\HTTP2.c
                  __pa_78   0x009882    program     static E:\Working\VMS\Source\Keil\VMS Controller\ICON V1.1\Network\TCPIP Stack\HTTP2.c
                  __pa_79   0x00988c    program     static E:\Working\VMS\Source\Keil\VMS Controller\ICON V1.1\Network\TCPIP Stack\HTTP2.c
                  __pa_80   0x009896    program     static E:\Working\VMS\Source\Keil\VMS Controller\ICON V1.1\Network\TCPIP Stack\HTTP2.c
                  __pa_81   0x0098a0    program     static E:\Working\VMS\Source\Keil\VMS Controller\ICON V1.1\Network\TCPIP Stack\HTTP2.c
                  __pa_82   0x0098b6    program     static E:\Working\VMS\Source\Keil\VMS Controller\ICON V1.1\Network\TCPIP Stack\HTTP2.c
                  __pa_83   0x0098bc    program     static E:\Working\VMS\Source\Keil\VMS Controller\ICON V1.1\Network\TCPIP Stack\HTTP2.c
                  __pa_84   0x0098ca    program     static E:\Working\VMS\Source\Keil\VMS Controller\ICON V1.1\Network\TCPIP Stack\HTTP2.c
                  __pa_85   0x0098d4    program     static E:\Working\VMS\Source\Keil\VMS Controller\ICON V1.1\Network\TCPIP Stack\HTTP2.c
                  __pa_86   0x0098de    program     static E:\Working\VMS\Source\Keil\VMS Controller\ICON V1.1\Network\TCPIP Stack\HTTP2.c
                  __pa_87   0x0098ec    program     static E:\Working\VMS\Source\Keil\VMS Controller\ICON V1.1\Network\TCPIP Stack\HTTP2.c
                  __pa_88   0x0098f6    program     static E:\Working\VMS\Source\Keil\VMS Controller\ICON V1.1\Network\TCPIP Stack\HTTP2.c
                  __pa_89   0x009900    program     static E:\Working\VMS\Source\Keil\VMS Controller\ICON V1.1\Network\TCPIP Stack\HTTP2.c
                  __pa_90   0x009908    program     static E:\Working\VMS\Source\Keil\VMS Controller\ICON V1.1\Network\TCPIP Stack\HTTP2.c
                  __pa_91   0x00991e    program     static E:\Working\VMS\Source\Keil\VMS Controller\ICON V1.1\Network\TCPIP Stack\HTTP2.c
                  __pa_92   0x009928    program     static E:\Working\VMS\Source\Keil\VMS Controller\ICON V1.1\Network\TCPIP Stack\HTTP2.c
                  __pa_93   0x009932    program     static E:\Working\VMS\Source\Keil\VMS Controller\ICON V1.1\Network\TCPIP Stack\HTTP2.c
                  __pa_94   0x009940    program     static E:\Working\VMS\Source\Keil\VMS Controller\ICON V1.1\Network\TCPIP Stack\HTTP2.c
                  __pa_95   0x00994e    program     static E:\Working\VMS\Source\Keil\VMS Controller\ICON V1.1\Network\TCPIP Stack\HTTP2.c
                  __pa_96   0x00995c    program     static E:\Working\VMS\Source\Keil\VMS Controller\ICON V1.1\Network\TCPIP Stack\HTTP2.c
                  __pa_97   0x009964    program     static E:\Working\VMS\Source\Keil\VMS Controller\ICON V1.1\Network\TCPIP Stack\HTTP2.c
                  __pa_98   0x00996e    program     static E:\Working\VMS\Source\Keil\VMS Controller\ICON V1.1\Network\TCPIP Stack\HTTP2.c
                  __pa_99   0x00997e    program     static E:\Working\VMS\Source\Keil\VMS Controller\ICON V1.1\Network\TCPIP Stack\HTTP2.c
                 __pa_100   0x009986    program     static E:\Working\VMS\Source\Keil\VMS Controller\ICON V1.1\Network\TCPIP Stack\HTTP2.c
                 __pa_101   0x009990    program     static E:\Working\VMS\Source\Keil\VMS Controller\ICON V1.1\Network\TCPIP Stack\HTTP2.c
                 __pa_102   0x0099a0    program     static E:\Working\VMS\Source\Keil\VMS Controller\ICON V1.1\Network\TCPIP Stack\HTTP2.c
                 __pa_103   0x0099ae    program     static E:\Working\VMS\Source\Keil\VMS Controller\ICON V1.1\Network\TCPIP Stack\HTTP2.c
                 __pa_104   0x0099b8    program     static E:\Working\VMS\Source\Keil\VMS Controller\ICON V1.1\Network\TCPIP Stack\HTTP2.c
                 __pa_105   0x0099c4    program     static E:\Working\VMS\Source\Keil\VMS Controller\ICON V1.1\Network\TCPIP Stack\HTTP2.c
                 __pa_106   0x0099d0    program     static E:\Working\VMS\Source\Keil\VMS Controller\ICON V1.1\Network\TCPIP Stack\HTTP2.c
                 __pa_107   0x0099de    program     static E:\Working\VMS\Source\Keil\VMS Controller\ICON V1.1\Network\TCPIP Stack\HTTP2.c
                 __pa_108   0x0099e6    program     static E:\Working\VMS\Source\Keil\VMS Controller\ICON V1.1\Network\TCPIP Stack\HTTP2.c
                 __pa_109   0x0099ee    program     static E:\Working\VMS\Source\Keil\VMS Controller\ICON V1.1\Network\TCPIP Stack\HTTP2.c
                 __pa_110   0x0099f8    program     static E:\Working\VMS\Source\Keil\VMS Controller\ICON V1.1\Network\TCPIP Stack\HTTP2.c
                 __pa_111   0x009a02    program     static E:\Working\VMS\Source\Keil\VMS Controller\ICON V1.1\Network\TCPIP Stack\HTTP2.c
                 __pa_112   0x009a0c    program     static E:\Working\VMS\Source\Keil\VMS Controller\ICON V1.1\Network\TCPIP Stack\HTTP2.c
                 __pa_113   0x009a14    program     static E:\Working\VMS\Source\Keil\VMS Controller\ICON V1.1\Network\TCPIP Stack\HTTP2.c
                 __pa_114   0x009a1c    program     static E:\Working\VMS\Source\Keil\VMS Controller\ICON V1.1\Network\TCPIP Stack\HTTP2.c
                 __pa_115   0x009a22    program     static E:\Working\VMS\Source\Keil\VMS Controller\ICON V1.1\Network\TCPIP Stack\HTTP2.c
                 __pa_116   0x009a3c    program     static E:\Working\VMS\Source\Keil\VMS Controller\ICON V1.1\Network\TCPIP Stack\HTTP2.c
                 __pa_117   0x009a46    program     static E:\Working\VMS\Source\Keil\VMS Controller\ICON V1.1\Network\TCPIP Stack\HTTP2.c
                 __pa_118   0x009a54    program     static E:\Working\VMS\Source\Keil\VMS Controller\ICON V1.1\Network\TCPIP Stack\HTTP2.c
                 __pa_119   0x009a64    program     static E:\Working\VMS\Source\Keil\VMS Controller\ICON V1.1\Network\TCPIP Stack\HTTP2.c
                 __pa_120   0x009a6a    program     static E:\Working\VMS\Source\Keil\VMS Controller\ICON V1.1\Network\TCPIP Stack\HTTP2.c
                 __pa_121   0x009a76    program     static E:\Working\VMS\Source\Keil\VMS Controller\ICON V1.1\Network\TCPIP Stack\HTTP2.c
                 __pa_122   0x009a82    program     static E:\Working\VMS\Source\Keil\VMS Controller\ICON V1.1\Network\TCPIP Stack\HTTP2.c
                 __pa_123   0x009a92    program     static E:\Working\VMS\Source\Keil\VMS Controller\ICON V1.1\Network\TCPIP Stack\HTTP2.c
                 __pa_124   0x009a98    program     static E:\Working\VMS\Source\Keil\VMS Controller\ICON V1.1\Network\TCPIP Stack\HTTP2.c
                 __pa_125   0x009a9e    program     static E:\Working\VMS\Source\Keil\VMS Controller\ICON V1.1\Network\TCPIP Stack\HTTP2.c
                 __pa_126   0x009aa4    program     static E:\Working\VMS\Source\Keil\VMS Controller\ICON V1.1\Network\TCPIP Stack\HTTP2.c
                 __pa_127   0x009aae    program     static E:\Working\VMS\Source\Keil\VMS Controller\ICON V1.1\Network\TCPIP Stack\HTTP2.c
                 __pa_128   0x009ab8    program     static E:\Working\VMS\Source\Keil\VMS Controller\ICON V1.1\Network\TCPIP Stack\HTTP2.c
                 __pa_129   0x009ac0    program     static E:\Working\VMS\Source\Keil\VMS Controller\ICON V1.1\Network\TCPIP Stack\HTTP2.c
                 __pa_130   0x009ac8    program     static E:\Working\VMS\Source\Keil\VMS Controller\ICON V1.1\Network\TCPIP Stack\HTTP2.c
                 __pa_131   0x009ace    program     static E:\Working\VMS\Source\Keil\VMS Controller\ICON V1.1\Network\TCPIP Stack\HTTP2.c
                 __pa_132   0x009ad8    program     static E:\Working\VMS\Source\Keil\VMS Controller\ICON V1.1\Network\TCPIP Stack\HTTP2.c
                 __pa_133   0x009ade    program     static E:\Working\VMS\Source\Keil\VMS Controller\ICON V1.1\Network\TCPIP Stack\HTTP2.c
                 __pa_134   0x009ae6    program     static E:\Working\VMS\Source\Keil\VMS Controller\ICON V1.1\Network\TCPIP Stack\HTTP2.c
                 m_memcpy   0x009aec    program     extern E:\Working\VMS\Source\Keil\VMS Controller\ICON V1.1\Network\main.c
                   LowISR   0x009b4c    program     extern E:\Working\VMS\Source\Keil\VMS Controller\ICON V1.1\Network\main.c
                  HighISR   0x009bb6    program     extern E:\Working\VMS\Source\Keil\VMS Controller\ICON V1.1\Network\main.c
                     main   0x009cf4    program     extern E:\Working\VMS\Source\Keil\VMS Controller\ICON V1.1\Network\main.c
          ___for_lbl00028   0x009d30    program     static                          
               __tmplbl_3   0x009d48    program     static                          
          ___for_lbl00026   0x009d5e    program     static                          
          ___for_lbl00027   0x009d72    program     static                          
          ___for_lbl00031   0x009d86    program     static                          
               __tmplbl_4   0x009d9e    program     static                          
          ___for_lbl00029   0x009da8    program     static                          
          ___for_lbl00030   0x009dbc    program     static                          
           ___if_lbl00032   0x009dca    program     static                          
        ___while_lbl00033   0x009dd0    program     static                          
         ___else_lbl00039   0x009dee    program     static                          
               __tmplbl_6   0x009df4    program     static                          
               __tmplbl_5   0x009dfa    program     static                          
               __tmplbl_7   0x009e12    program     static                          
           ___if_lbl00036   0x009e46    program     static                          
           ___if_lbl00037   0x009e50    program     static                          
           ___if_lbl00038   0x009e50    program     static                          
           ___if_lbl00040   0x009e7e    program     static                          
           ___if_lbl00041   0x009e9c    program     static                          
           ___if_lbl00042   0x009eb6    program     static                          
         ___else_lbl00059   0x009eb8    program     static                          
               __tmplbl_9   0x009ec0    program     static                          
               __tmplbl_8   0x009ec8    program     static                          
         ___else_lbl00046   0x009ed6    program     static                          
           ___if_lbl00045   0x009f14    program     static                          
           ___if_lbl00044   0x009f14    program     static                          
         ___else_lbl00057   0x009f1c    program     static                          
              __tmplbl_41   0x009f74    program     static                          
         ___else_lbl00049   0x009f8c    program     static                          
              __tmplbl_42   0x009fdc    program     static                          
           ___if_lbl00047   0x009ff2    program     static                          
           ___if_lbl00048   0x009ff2    program     static                          
         ___else_lbl00055   0x009ff4    program     static                          
         ___else_lbl00052   0x00a034    program     static                          
           ___if_lbl00051   0x00a068    program     static                          
           ___if_lbl00050   0x00a068    program     static                          
           ___if_lbl00053   0x00a068    program     static                          
           ___if_lbl00058   0x00a068    program     static                          
           ___if_lbl00054   0x00a068    program     static                          
           ___if_lbl00056   0x00a068    program     static                          
          ___for_lbl00062   0x00a074    program     static                          
              __tmplbl_10   0x00a098    program     static                          
          ___for_lbl00060   0x00a0ae    program     static                          
          ___for_lbl00061   0x00a0c2    program     static                          
           ___if_lbl00063   0x00a0cc    program     static                          
              __tmplbl_11   0x00a100    program     static                          
              __tmplbl_13   0x00a120    program     static                          
              __tmplbl_12   0x00a12a    program     static                          
         ___else_lbl00066   0x00a184    program     static                          
           ___if_lbl00065   0x00a190    program     static                          
        ___while_lbl00067   0x00a1a6    program     static                          
              __tmplbl_15   0x00a1ac    program     static                          
              __tmplbl_16   0x00a1c4    program     static                          
              __tmplbl_14   0x00a1c6    program     static                          
        ___while_lbl00068   0x00a1e6    program     static                          
           ___if_lbl00070   0x00a220    program     static                          
         ___else_lbl00072   0x00a222    program     static                          
           ___if_lbl00071   0x00a256    program     static                          
           ___if_lbl00073   0x00a256    program     static                          
           ___if_lbl00076   0x00a28e    program     static                          
           ___if_lbl00075   0x00a28e    program     static                          
           ___if_lbl00074   0x00a28e    program     static                          
              __tmplbl_18   0x00a294    program     static                          
              __tmplbl_17   0x00a29a    program     static                          
           ___if_lbl00078   0x00a2b2    program     static                          
           ___if_lbl00079   0x00a2e4    program     static                          
           ___if_lbl00080   0x00a2f6    program     static                          
       ___return_lbl00025   0x00a2f8    program     static                          
        ___while_lbl00034   0x00a2f8    program     static                          
               GetVersion   0x00a30c    program     extern E:\Working\VMS\Source\Keil\VMS Controller\ICON V1.1\Network\main.c
              GetDateTime   0x00a368    program     extern E:\Working\VMS\Source\Keil\VMS Controller\ICON V1.1\Network\main.c
              SetDateTime   0x00a3ac    program     extern E:\Working\VMS\Source\Keil\VMS Controller\ICON V1.1\Network\main.c
          GetIMEIFromMain   0x00a3ee    program     extern E:\Working\VMS\Source\Keil\VMS Controller\ICON V1.1\Network\main.c
              GetHWConfig   0x00a43c    program     extern E:\Working\VMS\Source\Keil\VMS Controller\ICON V1.1\Network\main.c
              SetHWConfig   0x00a480    program     extern E:\Working\VMS\Source\Keil\VMS Controller\ICON V1.1\Network\main.c
               init_board   0x00a4a6    program     extern E:\Working\VMS\Source\Keil\VMS Controller\ICON V1.1\Network\main.c
        ___while_lbl00112   0x00a4e8    program     static                          
              __tmplbl_27   0x00a500    program     static                          
        ___while_lbl00114   0x00a516    program     static                          
              __tmplbl_29   0x00a51c    program     static                          
              __tmplbl_30   0x00a536    program     static                          
              __tmplbl_28   0x00a538    program     static                          
           ___do_lbl00121   0x00a54c    program     static                          
        ___while_lbl00119   0x00a55a    program     static                          
        ___while_lbl00120   0x00a57e    program     static                          
           ___do_lbl00117   0x00a57e    program     static                          
           ___do_lbl00118   0x00a57e    program     static                          
        ___while_lbl00115   0x00a580    program     static                          
              __tmplbl_31   0x00a59a    program     static                          
           ___if_lbl00122   0x00a5a0    program     static                          
           ___if_lbl00123   0x00a5a0    program     static                          
           ___do_lbl00128   0x00a5b2    program     static                          
        ___while_lbl00126   0x00a5c0    program     static                          
           ___do_lbl00124   0x00a5e4    program     static                          
           ___do_lbl00125   0x00a5e4    program     static                          
        ___while_lbl00127   0x00a5e4    program     static                          
        ___while_lbl00113   0x00a5e6    program     static                          
              __tmplbl_33   0x00a5fa    program     static                          
              __tmplbl_32   0x00a600    program     static                          
              __tmplbl_35   0x00a62e    program     static                          
              __tmplbl_34   0x00a636    program     static                          
           ___if_lbl00131   0x00a672    program     static                          
           ___if_lbl00132   0x00a672    program     static                          
       ___return_lbl00111   0x00a67e    program     static                          
             transferData   0x00a692    program     extern E:\Working\VMS\Source\Keil\VMS Controller\ICON V1.1\Network\main.c
             factoryReset   0x00a6d8    program     extern E:\Working\VMS\Source\Keil\VMS Controller\ICON V1.1\Network\main.c
                IP2String   0x00a70c    program     static E:\Working\VMS\Source\Keil\VMS Controller\ICON V1.1\Network\main.c
            InitAppConfig   0x00a792    program     extern E:\Working\VMS\Source\Keil\VMS Controller\ICON V1.1\Network\main.c
            SaveAppConfig   0x00a8ca    program     extern E:\Working\VMS\Source\Keil\VMS Controller\ICON V1.1\Network\main.c
             SaveHWConfig   0x00a93e    program     extern E:\Working\VMS\Source\Keil\VMS Controller\ICON V1.1\Network\main.c
          SaveUserProfile   0x00a994    program     extern E:\Working\VMS\Source\Keil\VMS Controller\ICON V1.1\Network\main.c
          InitUserProfile   0x00aa92    program     extern E:\Working\VMS\Source\Keil\VMS Controller\ICON V1.1\Network\main.c
             InitHWConfig   0x00aae6    program     extern E:\Working\VMS\Source\Keil\VMS Controller\ICON V1.1\Network\main.c
            start_connect   0x00ab88    program     extern E:\Working\VMS\Source\Keil\VMS Controller\ICON V1.1\Network\main.c
                   __pa_0   0x00ac3c    program     static E:\Working\VMS\Source\Keil\VMS Controller\ICON V1.1\Network\main.c
                   __pa_1   0x00ac72    program     static E:\Working\VMS\Source\Keil\VMS Controller\ICON V1.1\Network\main.c
                   __pa_2   0x00aca2    program     static E:\Working\VMS\Source\Keil\VMS Controller\ICON V1.1\Network\main.c
                   __pa_3   0x00ad42    program     static E:\Working\VMS\Source\Keil\VMS Controller\ICON V1.1\Network\main.c
                   __pa_4   0x00ad50    program     static E:\Working\VMS\Source\Keil\VMS Controller\ICON V1.1\Network\main.c
                   __pa_5   0x00ad5e    program     static E:\Working\VMS\Source\Keil\VMS Controller\ICON V1.1\Network\main.c
                   __pa_6   0x00ad6c    program     static E:\Working\VMS\Source\Keil\VMS Controller\ICON V1.1\Network\main.c
                   __pa_7   0x00ad78    program     static E:\Working\VMS\Source\Keil\VMS Controller\ICON V1.1\Network\main.c
              __tmplbl_52   0x00ad8a    program     static                          
                   __pa_8   0x00ad8a    program     static E:\Working\VMS\Source\Keil\VMS Controller\ICON V1.1\Network\main.c
              __tmplbl_38   0x00ad8a    program     static                          
              __tmplbl_44   0x00ad8a    program     static                          
              __tmplbl_47   0x00ad8a    program     static                          
              __tmplbl_51   0x00ad8a    program     static                          
              __tmplbl_49   0x00ad8a    program     static                          
              __tmplbl_46   0x00ad8a    program     static                          
                   __pa_9   0x00ad94    program     static E:\Working\VMS\Source\Keil\VMS Controller\ICON V1.1\Network\main.c
                  __pa_10   0x00ada8    program     static E:\Working\VMS\Source\Keil\VMS Controller\ICON V1.1\Network\main.c
                  __pa_11   0x00add4    program     static E:\Working\VMS\Source\Keil\VMS Controller\ICON V1.1\Network\main.c
                  __pa_12   0x00adde    program     static E:\Working\VMS\Source\Keil\VMS Controller\ICON V1.1\Network\main.c
                  __pa_13   0x00adec    program     static E:\Working\VMS\Source\Keil\VMS Controller\ICON V1.1\Network\main.c
                  __pa_14   0x00adf8    program     static E:\Working\VMS\Source\Keil\VMS Controller\ICON V1.1\Network\main.c
                  __pa_15   0x00ae2a    program     static E:\Working\VMS\Source\Keil\VMS Controller\ICON V1.1\Network\main.c
                  __pa_16   0x00ae36    program     static E:\Working\VMS\Source\Keil\VMS Controller\ICON V1.1\Network\main.c
                  __pa_17   0x00ae64    program     static E:\Working\VMS\Source\Keil\VMS Controller\ICON V1.1\Network\main.c
                  __pa_18   0x00ae6e    program     static E:\Working\VMS\Source\Keil\VMS Controller\ICON V1.1\Network\main.c
                  __pa_19   0x00ae76    program     static E:\Working\VMS\Source\Keil\VMS Controller\ICON V1.1\Network\main.c
                  __pa_20   0x00ae82    program     static E:\Working\VMS\Source\Keil\VMS Controller\ICON V1.1\Network\main.c
                  __pa_21   0x00ae8e    program     static E:\Working\VMS\Source\Keil\VMS Controller\ICON V1.1\Network\main.c
                  __pa_22   0x00ae96    program     static E:\Working\VMS\Source\Keil\VMS Controller\ICON V1.1\Network\main.c
                  __pa_23   0x00aeac    program     static E:\Working\VMS\Source\Keil\VMS Controller\ICON V1.1\Network\main.c
                  __pa_24   0x00aec4    program     static E:\Working\VMS\Source\Keil\VMS Controller\ICON V1.1\Network\main.c
                  __pa_25   0x00aecc    program     static E:\Working\VMS\Source\Keil\VMS Controller\ICON V1.1\Network\main.c
                  __pa_26   0x00aee2    program     static E:\Working\VMS\Source\Keil\VMS Controller\ICON V1.1\Network\main.c
                  __pa_27   0x00aeec    program     static E:\Working\VMS\Source\Keil\VMS Controller\ICON V1.1\Network\main.c
                  __pa_28   0x00aef6    program     static E:\Working\VMS\Source\Keil\VMS Controller\ICON V1.1\Network\main.c
                  __pa_29   0x00af0a    program     static E:\Working\VMS\Source\Keil\VMS Controller\ICON V1.1\Network\main.c
                  __pa_30   0x00af14    program     static E:\Working\VMS\Source\Keil\VMS Controller\ICON V1.1\Network\main.c
                  __pa_31   0x00af1e    program     static E:\Working\VMS\Source\Keil\VMS Controller\ICON V1.1\Network\main.c
                  __pa_32   0x00af2a    program     static E:\Working\VMS\Source\Keil\VMS Controller\ICON V1.1\Network\main.c
                  __pa_33   0x00af32    program     static E:\Working\VMS\Source\Keil\VMS Controller\ICON V1.1\Network\main.c
                  __pa_34   0x00af3e    program     static E:\Working\VMS\Source\Keil\VMS Controller\ICON V1.1\Network\main.c
                  __pa_35   0x00af48    program     static E:\Working\VMS\Source\Keil\VMS Controller\ICON V1.1\Network\main.c
                  __pa_36   0x00af58    program     static E:\Working\VMS\Source\Keil\VMS Controller\ICON V1.1\Network\main.c
                  __pa_37   0x00af68    program     static E:\Working\VMS\Source\Keil\VMS Controller\ICON V1.1\Network\main.c
                  __pa_38   0x00af72    program     static E:\Working\VMS\Source\Keil\VMS Controller\ICON V1.1\Network\main.c
                  __pa_39   0x00af82    program     static E:\Working\VMS\Source\Keil\VMS Controller\ICON V1.1\Network\main.c
                  __pa_40   0x00af92    program     static E:\Working\VMS\Source\Keil\VMS Controller\ICON V1.1\Network\main.c
                  __pa_41   0x00afa0    program     static E:\Working\VMS\Source\Keil\VMS Controller\ICON V1.1\Network\main.c
                  __pa_42   0x00afae    program     static E:\Working\VMS\Source\Keil\VMS Controller\ICON V1.1\Network\main.c
                  __pa_43   0x00afbc    program     static E:\Working\VMS\Source\Keil\VMS Controller\ICON V1.1\Network\main.c
                  __pa_44   0x00afc6    program     static E:\Working\VMS\Source\Keil\VMS Controller\ICON V1.1\Network\main.c
                  __pa_45   0x00afd0    program     static E:\Working\VMS\Source\Keil\VMS Controller\ICON V1.1\Network\main.c
                  __pa_46   0x00afda    program     static E:\Working\VMS\Source\Keil\VMS Controller\ICON V1.1\Network\main.c
                  __pa_47   0x00afe8    program     static E:\Working\VMS\Source\Keil\VMS Controller\ICON V1.1\Network\main.c
                  __pa_48   0x00affa    program     static E:\Working\VMS\Source\Keil\VMS Controller\ICON V1.1\Network\main.c
                  __pa_49   0x00b004    program     static E:\Working\VMS\Source\Keil\VMS Controller\ICON V1.1\Network\main.c
                  __pa_50   0x00b020    program     static E:\Working\VMS\Source\Keil\VMS Controller\ICON V1.1\Network\main.c
                  __pa_51   0x00b02a    program     static E:\Working\VMS\Source\Keil\VMS Controller\ICON V1.1\Network\main.c
                  __pa_52   0x00b030    program     static E:\Working\VMS\Source\Keil\VMS Controller\ICON V1.1\Network\main.c
                  __pa_53   0x00b03e    program     static E:\Working\VMS\Source\Keil\VMS Controller\ICON V1.1\Network\main.c
                  __pa_54   0x00b04c    program     static E:\Working\VMS\Source\Keil\VMS Controller\ICON V1.1\Network\main.c
                  __pa_55   0x00b05a    program     static E:\Working\VMS\Source\Keil\VMS Controller\ICON V1.1\Network\main.c
                  __pa_56   0x00b062    program     static E:\Working\VMS\Source\Keil\VMS Controller\ICON V1.1\Network\main.c
                  __pa_57   0x00b068    program     static E:\Working\VMS\Source\Keil\VMS Controller\ICON V1.1\Network\main.c
                  __pa_58   0x00b070    program     static E:\Working\VMS\Source\Keil\VMS Controller\ICON V1.1\Network\main.c
                  __pa_59   0x00b07c    program     static E:\Working\VMS\Source\Keil\VMS Controller\ICON V1.1\Network\main.c
                  __pa_60   0x00b088    program     static E:\Working\VMS\Source\Keil\VMS Controller\ICON V1.1\Network\main.c
                  __pa_61   0x00b09a    program     static E:\Working\VMS\Source\Keil\VMS Controller\ICON V1.1\Network\main.c
                  __pa_62   0x00b0a2    program     static E:\Working\VMS\Source\Keil\VMS Controller\ICON V1.1\Network\main.c
                  __pa_63   0x00b0ae    program     static E:\Working\VMS\Source\Keil\VMS Controller\ICON V1.1\Network\main.c
                  __pa_64   0x00b0b8    program     static E:\Working\VMS\Source\Keil\VMS Controller\ICON V1.1\Network\main.c
                  __pa_65   0x00b0c2    program     static E:\Working\VMS\Source\Keil\VMS Controller\ICON V1.1\Network\main.c
                  __pa_66   0x00b0d2    program     static E:\Working\VMS\Source\Keil\VMS Controller\ICON V1.1\Network\main.c
                  __pa_67   0x00b0de    program     static E:\Working\VMS\Source\Keil\VMS Controller\ICON V1.1\Network\main.c
                  __pa_68   0x00b0ea    program     static E:\Working\VMS\Source\Keil\VMS Controller\ICON V1.1\Network\main.c
                  __pa_69   0x00b0f8    program     static E:\Working\VMS\Source\Keil\VMS Controller\ICON V1.1\Network\main.c
                  __pa_70   0x00b104    program     static E:\Working\VMS\Source\Keil\VMS Controller\ICON V1.1\Network\main.c
                  __pa_71   0x00b10e    program     static E:\Working\VMS\Source\Keil\VMS Controller\ICON V1.1\Network\main.c
                  __pa_72   0x00b118    program     static E:\Working\VMS\Source\Keil\VMS Controller\ICON V1.1\Network\main.c
                  __pa_73   0x00b122    program     static E:\Working\VMS\Source\Keil\VMS Controller\ICON V1.1\Network\main.c
                  __pa_74   0x00b12a    program     static E:\Working\VMS\Source\Keil\VMS Controller\ICON V1.1\Network\main.c
                  __pa_75   0x00b138    program     static E:\Working\VMS\Source\Keil\VMS Controller\ICON V1.1\Network\main.c
                  __pa_76   0x00b144    program     static E:\Working\VMS\Source\Keil\VMS Controller\ICON V1.1\Network\main.c
                  __pa_77   0x00b152    program     static E:\Working\VMS\Source\Keil\VMS Controller\ICON V1.1\Network\main.c
                  __pa_78   0x00b15c    program     static E:\Working\VMS\Source\Keil\VMS Controller\ICON V1.1\Network\main.c
                  my_atoi   0x00b166    program     static E:\Working\VMS\Source\Keil\VMS Controller\ICON V1.1\Network\CustomHTTPApp.c
             stringToDate   0x00b1fa    program     extern E:\Working\VMS\Source\Keil\VMS Controller\ICON V1.1\Network\CustomHTTPApp.c
             stringToTime   0x00b222    program     extern E:\Working\VMS\Source\Keil\VMS Controller\ICON V1.1\Network\CustomHTTPApp.c
            HTTPNeedsAuth   0x00b248    program     extern E:\Working\VMS\Source\Keil\VMS Controller\ICON V1.1\Network\CustomHTTPApp.c
            HTTPCheckAuth   0x00b252    program     extern E:\Working\VMS\Source\Keil\VMS Controller\ICON V1.1\Network\CustomHTTPApp.c
         compareByteArray   0x00b28c    program     extern E:\Working\VMS\Source\Keil\VMS Controller\ICON V1.1\Network\CustomHTTPApp.c
           HTTPExecuteGet   0x00b33e    program     extern E:\Working\VMS\Source\Keil\VMS Controller\ICON V1.1\Network\CustomHTTPApp.c
          HTTPExecutePost   0x00b372    program     extern E:\Working\VMS\Source\Keil\VMS Controller\ICON V1.1\Network\CustomHTTPApp.c
         HTTPPostConfigNW   0x00b404    program     static E:\Working\VMS\Source\Keil\VMS Controller\ICON V1.1\Network\CustomHTTPApp.c
         HTTPPostConfigHW   0x00b706    program     static E:\Working\VMS\Source\Keil\VMS Controller\ICON V1.1\Network\CustomHTTPApp.c
         HTTPPostConfigDT   0x00b808    program     static E:\Working\VMS\Source\Keil\VMS Controller\ICON V1.1\Network\CustomHTTPApp.c
         HTTPPostChangePW   0x00b87e    program     static E:\Working\VMS\Source\Keil\VMS Controller\ICON V1.1\Network\CustomHTTPApp.c
              HTTPPrintIP   0x00ba1a    program     extern E:\Working\VMS\Source\Keil\VMS Controller\ICON V1.1\Network\CustomHTTPApp.c
           HTTPPrint_opwd   0x00ba72    program     extern E:\Working\VMS\Source\Keil\VMS Controller\ICON V1.1\Network\CustomHTTPApp.c
           HTTPPrint_npwd   0x00ba74    program     extern E:\Working\VMS\Source\Keil\VMS Controller\ICON V1.1\Network\CustomHTTPApp.c
           HTTPPrint_cpwd   0x00ba76    program     extern E:\Working\VMS\Source\Keil\VMS Controller\ICON V1.1\Network\CustomHTTPApp.c
   HTTPPrint_version_main   0x00ba78    program     extern E:\Working\VMS\Source\Keil\VMS Controller\ICON V1.1\Network\CustomHTTPApp.c
HTTPPrint_version_network   0x00bab4    program     extern E:\Working\VMS\Source\Keil\VMS Controller\ICON V1.1\Network\CustomHTTPApp.c
HTTPPrint_version_dipsplay   0x00bac8    program     extern E:\Working\VMS\Source\Keil\VMS Controller\ICON V1.1\Network\CustomHTTPApp.c
  HTTPPrint_config_hostIP   0x00bae2    program     extern E:\Working\VMS\Source\Keil\VMS Controller\ICON V1.1\Network\CustomHTTPApp.c
HTTPPrint_config_dhcpchecked   0x00bb26    program     extern E:\Working\VMS\Source\Keil\VMS Controller\ICON V1.1\Network\CustomHTTPApp.c
      HTTPPrint_config_ip   0x00bb3a    program     extern E:\Working\VMS\Source\Keil\VMS Controller\ICON V1.1\Network\CustomHTTPApp.c
      HTTPPrint_config_gw   0x00bb4c    program     extern E:\Working\VMS\Source\Keil\VMS Controller\ICON V1.1\Network\CustomHTTPApp.c
  HTTPPrint_config_subnet   0x00bb5e    program     extern E:\Working\VMS\Source\Keil\VMS Controller\ICON V1.1\Network\CustomHTTPApp.c
HTTPPrint_config_imei_disabled   0x00bb70    program     extern E:\Working\VMS\Source\Keil\VMS Controller\ICON V1.1\Network\CustomHTTPApp.c
    HTTPPrint_config_imei   0x00bbe8    program     extern E:\Working\VMS\Source\Keil\VMS Controller\ICON V1.1\Network\CustomHTTPApp.c
   HTTPPrint_config_width   0x00bc9c    program     extern E:\Working\VMS\Source\Keil\VMS Controller\ICON V1.1\Network\CustomHTTPApp.c
  HTTPPrint_config_height   0x00bcb2    program     extern E:\Working\VMS\Source\Keil\VMS Controller\ICON V1.1\Network\CustomHTTPApp.c
    HTTPPrint_config_type   0x00bcc8    program     extern E:\Working\VMS\Source\Keil\VMS Controller\ICON V1.1\Network\CustomHTTPApp.c
  HTTPPrint_config_opport   0x00bcdc    program     extern E:\Working\VMS\Source\Keil\VMS Controller\ICON V1.1\Network\CustomHTTPApp.c
  HTTPPrint_config_alport   0x00bcf2    program     extern E:\Working\VMS\Source\Keil\VMS Controller\ICON V1.1\Network\CustomHTTPApp.c
     HTTPPrint_config_mac   0x00bd08    program     extern E:\Working\VMS\Source\Keil\VMS Controller\ICON V1.1\Network\CustomHTTPApp.c
         HTTPPrint_reboot   0x00bd5a    program     extern E:\Working\VMS\Source\Keil\VMS Controller\ICON V1.1\Network\CustomHTTPApp.c
         HTTPPrint_scan_1   0x00bd5c    program     extern E:\Working\VMS\Source\Keil\VMS Controller\ICON V1.1\Network\CustomHTTPApp.c
         HTTPPrint_scan_2   0x00bd6c    program     extern E:\Working\VMS\Source\Keil\VMS Controller\ICON V1.1\Network\CustomHTTPApp.c
         HTTPPrint_scan_3   0x00bd7e    program     extern E:\Working\VMS\Source\Keil\VMS Controller\ICON V1.1\Network\CustomHTTPApp.c
         HTTPPrint_scan_4   0x00bd90    program     extern E:\Working\VMS\Source\Keil\VMS Controller\ICON V1.1\Network\CustomHTTPApp.c
          HTTPPrint_sim_1   0x00bda2    program     extern E:\Working\VMS\Source\Keil\VMS Controller\ICON V1.1\Network\CustomHTTPApp.c
          HTTPPrint_sim_2   0x00bdb2    program     extern E:\Working\VMS\Source\Keil\VMS Controller\ICON V1.1\Network\CustomHTTPApp.c
          HTTPPrint_sim_3   0x00bdc4    program     extern E:\Working\VMS\Source\Keil\VMS Controller\ICON V1.1\Network\CustomHTTPApp.c
           HTTPPrint_date   0x00bdd6    program     extern E:\Working\VMS\Source\Keil\VMS Controller\ICON V1.1\Network\CustomHTTPApp.c
           HTTPPrint_time   0x00be20    program     extern E:\Working\VMS\Source\Keil\VMS Controller\ICON V1.1\Network\CustomHTTPApp.c
         HTTPPrint_gprs_1   0x00be5a    program     extern E:\Working\VMS\Source\Keil\VMS Controller\ICON V1.1\Network\CustomHTTPApp.c
         HTTPPrint_gprs_2   0x00be6a    program     extern E:\Working\VMS\Source\Keil\VMS Controller\ICON V1.1\Network\CustomHTTPApp.c
                   __pa_0   0x00be7a    program     static E:\Working\VMS\Source\Keil\VMS Controller\ICON V1.1\Network\CustomHTTPApp.c
                   __pa_1   0x00be98    program     static E:\Working\VMS\Source\Keil\VMS Controller\ICON V1.1\Network\CustomHTTPApp.c
                   __pa_2   0x00bea6    program     static E:\Working\VMS\Source\Keil\VMS Controller\ICON V1.1\Network\CustomHTTPApp.c
                   __pa_3   0x00bec0    program     static E:\Working\VMS\Source\Keil\VMS Controller\ICON V1.1\Network\CustomHTTPApp.c
                   __pa_4   0x00bed2    program     static E:\Working\VMS\Source\Keil\VMS Controller\ICON V1.1\Network\CustomHTTPApp.c
                   __pa_5   0x00bedc    program     static E:\Working\VMS\Source\Keil\VMS Controller\ICON V1.1\Network\CustomHTTPApp.c
                   __pa_6   0x00bf12    program     static E:\Working\VMS\Source\Keil\VMS Controller\ICON V1.1\Network\CustomHTTPApp.c
              __tmplbl_39   0x00bf1c    program     static                          
              __tmplbl_35   0x00bf1c    program     static                          
              __tmplbl_40   0x00bf1c    program     static                          
              __tmplbl_36   0x00bf1c    program     static                          
                   __pa_7   0x00bf1c    program     static E:\Working\VMS\Source\Keil\VMS Controller\ICON V1.1\Network\CustomHTTPApp.c
              __tmplbl_38   0x00bf1c    program     static                          
              __tmplbl_53   0x00bf1c    program     static                          
              __tmplbl_33   0x00bf1c    program     static                          
              __tmplbl_34   0x00bf1c    program     static                          
              __tmplbl_37   0x00bf1c    program     static                          
                   __pa_8   0x00bf24    program     static E:\Working\VMS\Source\Keil\VMS Controller\ICON V1.1\Network\CustomHTTPApp.c
                   __pa_9   0x00bf44    program     static E:\Working\VMS\Source\Keil\VMS Controller\ICON V1.1\Network\CustomHTTPApp.c
                  __pa_10   0x00bf4e    program     static E:\Working\VMS\Source\Keil\VMS Controller\ICON V1.1\Network\CustomHTTPApp.c
                  __pa_11   0x00bf5a    program     static E:\Working\VMS\Source\Keil\VMS Controller\ICON V1.1\Network\CustomHTTPApp.c
                  __pa_12   0x00bf6e    program     static E:\Working\VMS\Source\Keil\VMS Controller\ICON V1.1\Network\CustomHTTPApp.c
                  __pa_13   0x00bf78    program     static E:\Working\VMS\Source\Keil\VMS Controller\ICON V1.1\Network\CustomHTTPApp.c
                  __pa_14   0x00bf84    program     static E:\Working\VMS\Source\Keil\VMS Controller\ICON V1.1\Network\CustomHTTPApp.c
                  __pa_15   0x00bf96    program     static E:\Working\VMS\Source\Keil\VMS Controller\ICON V1.1\Network\CustomHTTPApp.c
                  __pa_16   0x00bfa8    program     static E:\Working\VMS\Source\Keil\VMS Controller\ICON V1.1\Network\CustomHTTPApp.c
                  __pa_17   0x00bfb4    program     static E:\Working\VMS\Source\Keil\VMS Controller\ICON V1.1\Network\CustomHTTPApp.c
                  __pa_18   0x00bfc2    program     static E:\Working\VMS\Source\Keil\VMS Controller\ICON V1.1\Network\CustomHTTPApp.c
                  __pa_19   0x00bfce    program     static E:\Working\VMS\Source\Keil\VMS Controller\ICON V1.1\Network\CustomHTTPApp.c
                  __pa_20   0x00bfde    program     static E:\Working\VMS\Source\Keil\VMS Controller\ICON V1.1\Network\CustomHTTPApp.c
                  __pa_21   0x00bfea    program     static E:\Working\VMS\Source\Keil\VMS Controller\ICON V1.1\Network\CustomHTTPApp.c
                  __pa_22   0x00bffc    program     static E:\Working\VMS\Source\Keil\VMS Controller\ICON V1.1\Network\CustomHTTPApp.c
                  __pa_23   0x00c004    program     static E:\Working\VMS\Source\Keil\VMS Controller\ICON V1.1\Network\CustomHTTPApp.c
                  __pa_24   0x00c012    program     static E:\Working\VMS\Source\Keil\VMS Controller\ICON V1.1\Network\CustomHTTPApp.c
                  __pa_25   0x00c022    program     static E:\Working\VMS\Source\Keil\VMS Controller\ICON V1.1\Network\CustomHTTPApp.c
                  __pa_26   0x00c040    program     static E:\Working\VMS\Source\Keil\VMS Controller\ICON V1.1\Network\CustomHTTPApp.c
                  __pa_27   0x00c04a    program     static E:\Working\VMS\Source\Keil\VMS Controller\ICON V1.1\Network\CustomHTTPApp.c
                  __pa_28   0x00c058    program     static E:\Working\VMS\Source\Keil\VMS Controller\ICON V1.1\Network\CustomHTTPApp.c
                  __pa_29   0x00c064    program     static E:\Working\VMS\Source\Keil\VMS Controller\ICON V1.1\Network\CustomHTTPApp.c
                  __pa_30   0x00c07a    program     static E:\Working\VMS\Source\Keil\VMS Controller\ICON V1.1\Network\CustomHTTPApp.c
                  __pa_31   0x00c084    program     static E:\Working\VMS\Source\Keil\VMS Controller\ICON V1.1\Network\CustomHTTPApp.c
                  __pa_32   0x00c090    program     static E:\Working\VMS\Source\Keil\VMS Controller\ICON V1.1\Network\CustomHTTPApp.c
                  __pa_33   0x00c09c    program     static E:\Working\VMS\Source\Keil\VMS Controller\ICON V1.1\Network\CustomHTTPApp.c
                  __pa_34   0x00c0a8    program     static E:\Working\VMS\Source\Keil\VMS Controller\ICON V1.1\Network\CustomHTTPApp.c
                  __pa_35   0x00c0b4    program     static E:\Working\VMS\Source\Keil\VMS Controller\ICON V1.1\Network\CustomHTTPApp.c
                  __pa_36   0x00c0c4    program     static E:\Working\VMS\Source\Keil\VMS Controller\ICON V1.1\Network\CustomHTTPApp.c
                  __pa_37   0x00c0d2    program     static E:\Working\VMS\Source\Keil\VMS Controller\ICON V1.1\Network\CustomHTTPApp.c
                  __pa_38   0x00c0e0    program     static E:\Working\VMS\Source\Keil\VMS Controller\ICON V1.1\Network\CustomHTTPApp.c
                  __pa_39   0x00c0f4    program     static E:\Working\VMS\Source\Keil\VMS Controller\ICON V1.1\Network\CustomHTTPApp.c
                  __pa_40   0x00c100    program     static E:\Working\VMS\Source\Keil\VMS Controller\ICON V1.1\Network\CustomHTTPApp.c
                  __pa_41   0x00c112    program     static E:\Working\VMS\Source\Keil\VMS Controller\ICON V1.1\Network\CustomHTTPApp.c
                  __pa_42   0x00c11c    program     static E:\Working\VMS\Source\Keil\VMS Controller\ICON V1.1\Network\CustomHTTPApp.c
                  __pa_43   0x00c126    program     static E:\Working\VMS\Source\Keil\VMS Controller\ICON V1.1\Network\CustomHTTPApp.c
                  __pa_44   0x00c12e    program     static E:\Working\VMS\Source\Keil\VMS Controller\ICON V1.1\Network\CustomHTTPApp.c
                  __pa_45   0x00c13e    program     static E:\Working\VMS\Source\Keil\VMS Controller\ICON V1.1\Network\CustomHTTPApp.c
                  __pa_46   0x00c146    program     static E:\Working\VMS\Source\Keil\VMS Controller\ICON V1.1\Network\CustomHTTPApp.c
                  __pa_47   0x00c176    program     static E:\Working\VMS\Source\Keil\VMS Controller\ICON V1.1\Network\CustomHTTPApp.c
                  __pa_48   0x00c184    program     static E:\Working\VMS\Source\Keil\VMS Controller\ICON V1.1\Network\CustomHTTPApp.c
                  __pa_49   0x00c190    program     static E:\Working\VMS\Source\Keil\VMS Controller\ICON V1.1\Network\CustomHTTPApp.c
                  __pa_50   0x00c1ae    program     static E:\Working\VMS\Source\Keil\VMS Controller\ICON V1.1\Network\CustomHTTPApp.c
                  __pa_51   0x00c1b8    program     static E:\Working\VMS\Source\Keil\VMS Controller\ICON V1.1\Network\CustomHTTPApp.c
                  __pa_52   0x00c1c2    program     static E:\Working\VMS\Source\Keil\VMS Controller\ICON V1.1\Network\CustomHTTPApp.c
                  __pa_53   0x00c1cc    program     static E:\Working\VMS\Source\Keil\VMS Controller\ICON V1.1\Network\CustomHTTPApp.c
                  __pa_54   0x00c1de    program     static E:\Working\VMS\Source\Keil\VMS Controller\ICON V1.1\Network\CustomHTTPApp.c
                  __pa_55   0x00c1ea    program     static E:\Working\VMS\Source\Keil\VMS Controller\ICON V1.1\Network\CustomHTTPApp.c
                  __pa_56   0x00c1f4    program     static E:\Working\VMS\Source\Keil\VMS Controller\ICON V1.1\Network\CustomHTTPApp.c
                  __pa_57   0x00c1fa    program     static E:\Working\VMS\Source\Keil\VMS Controller\ICON V1.1\Network\CustomHTTPApp.c
                  __pa_58   0x00c208    program     static E:\Working\VMS\Source\Keil\VMS Controller\ICON V1.1\Network\CustomHTTPApp.c
                  __pa_59   0x00c210    program     static E:\Working\VMS\Source\Keil\VMS Controller\ICON V1.1\Network\CustomHTTPApp.c
                  __pa_60   0x00c218    program     static E:\Working\VMS\Source\Keil\VMS Controller\ICON V1.1\Network\CustomHTTPApp.c
                  __pa_61   0x00c226    program     static E:\Working\VMS\Source\Keil\VMS Controller\ICON V1.1\Network\CustomHTTPApp.c
                  __pa_62   0x00c234    program     static E:\Working\VMS\Source\Keil\VMS Controller\ICON V1.1\Network\CustomHTTPApp.c
                  __pa_63   0x00c23e    program     static E:\Working\VMS\Source\Keil\VMS Controller\ICON V1.1\Network\CustomHTTPApp.c
                  __pa_64   0x00c246    program     static E:\Working\VMS\Source\Keil\VMS Controller\ICON V1.1\Network\CustomHTTPApp.c
                  __pa_65   0x00c24c    program     static E:\Working\VMS\Source\Keil\VMS Controller\ICON V1.1\Network\CustomHTTPApp.c
                  __pa_66   0x00c256    program     static E:\Working\VMS\Source\Keil\VMS Controller\ICON V1.1\Network\CustomHTTPApp.c
                  __pa_67   0x00c260    program     static E:\Working\VMS\Source\Keil\VMS Controller\ICON V1.1\Network\CustomHTTPApp.c
                  __pa_68   0x00c26a    program     static E:\Working\VMS\Source\Keil\VMS Controller\ICON V1.1\Network\CustomHTTPApp.c
                  __pa_69   0x00c278    program     static E:\Working\VMS\Source\Keil\VMS Controller\ICON V1.1\Network\CustomHTTPApp.c
                  __pa_70   0x00c280    program     static E:\Working\VMS\Source\Keil\VMS Controller\ICON V1.1\Network\CustomHTTPApp.c
                  __pa_71   0x00c28c    program     static E:\Working\VMS\Source\Keil\VMS Controller\ICON V1.1\Network\CustomHTTPApp.c
                  __pa_72   0x00c292    program     static E:\Working\VMS\Source\Keil\VMS Controller\ICON V1.1\Network\CustomHTTPApp.c
                  __pa_73   0x00c29a    program     static E:\Working\VMS\Source\Keil\VMS Controller\ICON V1.1\Network\CustomHTTPApp.c
                  __pa_74   0x00c2a4    program     static E:\Working\VMS\Source\Keil\VMS Controller\ICON V1.1\Network\CustomHTTPApp.c
                  __pa_75   0x00c2aa    program     static E:\Working\VMS\Source\Keil\VMS Controller\ICON V1.1\Network\CustomHTTPApp.c
                  __pa_76   0x00c2b2    program     static E:\Working\VMS\Source\Keil\VMS Controller\ICON V1.1\Network\CustomHTTPApp.c
                  __pa_77   0x00c2bc    program     static E:\Working\VMS\Source\Keil\VMS Controller\ICON V1.1\Network\CustomHTTPApp.c
                  __pa_78   0x00c2c2    program     static E:\Working\VMS\Source\Keil\VMS Controller\ICON V1.1\Network\CustomHTTPApp.c
                  __pa_79   0x00c2cc    program     static E:\Working\VMS\Source\Keil\VMS Controller\ICON V1.1\Network\CustomHTTPApp.c
                  __pa_80   0x00c2d6    program     static E:\Working\VMS\Source\Keil\VMS Controller\ICON V1.1\Network\CustomHTTPApp.c
                  __pa_81   0x00c2de    program     static E:\Working\VMS\Source\Keil\VMS Controller\ICON V1.1\Network\CustomHTTPApp.c
                  __pa_82   0x00c2e4    program     static E:\Working\VMS\Source\Keil\VMS Controller\ICON V1.1\Network\CustomHTTPApp.c
                  __pa_83   0x00c2f2    program     static E:\Working\VMS\Source\Keil\VMS Controller\ICON V1.1\Network\CustomHTTPApp.c
                  __pa_84   0x00c2f8    program     static E:\Working\VMS\Source\Keil\VMS Controller\ICON V1.1\Network\CustomHTTPApp.c
       BerkeleySocketInit   0x00c302    program     extern E:\Working\VMS\Source\Keil\VMS Controller\ICON V1.1\Network\TCPIP Stack\BerkeleyAPI.c
                   socket   0x00c364    program     extern E:\Working\VMS\Source\Keil\VMS Controller\ICON V1.1\Network\TCPIP Stack\BerkeleyAPI.c
                     bind   0x00c422    program     extern E:\Working\VMS\Source\Keil\VMS Controller\ICON V1.1\Network\TCPIP Stack\BerkeleyAPI.c
                   listen   0x00c4c8    program     extern E:\Working\VMS\Source\Keil\VMS Controller\ICON V1.1\Network\TCPIP Stack\BerkeleyAPI.c
                   accept   0x00c61a    program     extern E:\Working\VMS\Source\Keil\VMS Controller\ICON V1.1\Network\TCPIP Stack\BerkeleyAPI.c
                  connect   0x00c770    program     extern E:\Working\VMS\Source\Keil\VMS Controller\ICON V1.1\Network\TCPIP Stack\BerkeleyAPI.c
                     send   0x00c8e0    program     extern E:\Working\VMS\Source\Keil\VMS Controller\ICON V1.1\Network\TCPIP Stack\BerkeleyAPI.c
                   sendto   0x00c908    program     extern E:\Working\VMS\Source\Keil\VMS Controller\ICON V1.1\Network\TCPIP Stack\BerkeleyAPI.c
                     recv   0x00cb12    program     extern E:\Working\VMS\Source\Keil\VMS Controller\ICON V1.1\Network\TCPIP Stack\BerkeleyAPI.c
                 recvfrom   0x00cb68    program     extern E:\Working\VMS\Source\Keil\VMS Controller\ICON V1.1\Network\TCPIP Stack\BerkeleyAPI.c
              gethostname   0x00cbfe    program     extern E:\Working\VMS\Source\Keil\VMS Controller\ICON V1.1\Network\TCPIP Stack\BerkeleyAPI.c
              closesocket   0x00ccd8    program     extern E:\Working\VMS\Source\Keil\VMS Controller\ICON V1.1\Network\TCPIP Stack\BerkeleyAPI.c
HandlePossibleTCPDisconnection   0x00cdba    program     static E:\Working\VMS\Source\Keil\VMS Controller\ICON V1.1\Network\TCPIP Stack\BerkeleyAPI.c
                   __pa_0   0x00ce42    program     static E:\Working\VMS\Source\Keil\VMS Controller\ICON V1.1\Network\TCPIP Stack\BerkeleyAPI.c
                   __pa_1   0x00ce62    program     static E:\Working\VMS\Source\Keil\VMS Controller\ICON V1.1\Network\TCPIP Stack\BerkeleyAPI.c
                   __pa_2   0x00ce76    program     static E:\Working\VMS\Source\Keil\VMS Controller\ICON V1.1\Network\TCPIP Stack\BerkeleyAPI.c
                   __pa_3   0x00ce7c    program     static E:\Working\VMS\Source\Keil\VMS Controller\ICON V1.1\Network\TCPIP Stack\BerkeleyAPI.c
                   __pa_4   0x00ce82    program     static E:\Working\VMS\Source\Keil\VMS Controller\ICON V1.1\Network\TCPIP Stack\BerkeleyAPI.c
                   __pa_5   0x00ce8e    program     static E:\Working\VMS\Source\Keil\VMS Controller\ICON V1.1\Network\TCPIP Stack\BerkeleyAPI.c
                   __pa_6   0x00cea8    program     static E:\Working\VMS\Source\Keil\VMS Controller\ICON V1.1\Network\TCPIP Stack\BerkeleyAPI.c
                   __pa_7   0x00ceb6    program     static E:\Working\VMS\Source\Keil\VMS Controller\ICON V1.1\Network\TCPIP Stack\BerkeleyAPI.c
                   __pa_8   0x00cec4    program     static E:\Working\VMS\Source\Keil\VMS Controller\ICON V1.1\Network\TCPIP Stack\BerkeleyAPI.c
                   __pa_9   0x00ced0    program     static E:\Working\VMS\Source\Keil\VMS Controller\ICON V1.1\Network\TCPIP Stack\BerkeleyAPI.c
                  __pa_10   0x00cee6    program     static E:\Working\VMS\Source\Keil\VMS Controller\ICON V1.1\Network\TCPIP Stack\BerkeleyAPI.c
                  __pa_11   0x00ceee    program     static E:\Working\VMS\Source\Keil\VMS Controller\ICON V1.1\Network\TCPIP Stack\BerkeleyAPI.c
                  __pa_12   0x00cf02    program     static E:\Working\VMS\Source\Keil\VMS Controller\ICON V1.1\Network\TCPIP Stack\BerkeleyAPI.c
                  __pa_13   0x00cf08    program     static E:\Working\VMS\Source\Keil\VMS Controller\ICON V1.1\Network\TCPIP Stack\BerkeleyAPI.c
                  __pa_14   0x00cf1a    program     static E:\Working\VMS\Source\Keil\VMS Controller\ICON V1.1\Network\TCPIP Stack\BerkeleyAPI.c
                  __pa_15   0x00cf2c    program     static E:\Working\VMS\Source\Keil\VMS Controller\ICON V1.1\Network\TCPIP Stack\BerkeleyAPI.c
              __tmplbl_16   0x00cf2c    program     static                          
              __tmplbl_24   0x00cf2c    program     static                          
              __tmplbl_18   0x00cf2c    program     static                          
                  __pa_16   0x00cf36    program     static E:\Working\VMS\Source\Keil\VMS Controller\ICON V1.1\Network\TCPIP Stack\BerkeleyAPI.c
                  __pa_17   0x00cf40    program     static E:\Working\VMS\Source\Keil\VMS Controller\ICON V1.1\Network\TCPIP Stack\BerkeleyAPI.c
                  __pa_18   0x00cf4c    program     static E:\Working\VMS\Source\Keil\VMS Controller\ICON V1.1\Network\TCPIP Stack\BerkeleyAPI.c
                  __pa_19   0x00cf64    program     static E:\Working\VMS\Source\Keil\VMS Controller\ICON V1.1\Network\TCPIP Stack\BerkeleyAPI.c
                  __pa_20   0x00cf74    program     static E:\Working\VMS\Source\Keil\VMS Controller\ICON V1.1\Network\TCPIP Stack\BerkeleyAPI.c
                  __pa_21   0x00cf88    program     static E:\Working\VMS\Source\Keil\VMS Controller\ICON V1.1\Network\TCPIP Stack\BerkeleyAPI.c
                  __pa_22   0x00cf9a    program     static E:\Working\VMS\Source\Keil\VMS Controller\ICON V1.1\Network\TCPIP Stack\BerkeleyAPI.c
                  __pa_23   0x00cfa2    program     static E:\Working\VMS\Source\Keil\VMS Controller\ICON V1.1\Network\TCPIP Stack\BerkeleyAPI.c
                  __pa_24   0x00cfb0    program     static E:\Working\VMS\Source\Keil\VMS Controller\ICON V1.1\Network\TCPIP Stack\BerkeleyAPI.c
                  __pa_25   0x00cfba    program     static E:\Working\VMS\Source\Keil\VMS Controller\ICON V1.1\Network\TCPIP Stack\BerkeleyAPI.c
                  __pa_26   0x00cfca    program     static E:\Working\VMS\Source\Keil\VMS Controller\ICON V1.1\Network\TCPIP Stack\BerkeleyAPI.c
                  __pa_27   0x00cfce    program     static E:\Working\VMS\Source\Keil\VMS Controller\ICON V1.1\Network\TCPIP Stack\BerkeleyAPI.c
              __tmplbl_17   0x00cfd8    program     static                          
                  __pa_28   0x00cfd8    program     static E:\Working\VMS\Source\Keil\VMS Controller\ICON V1.1\Network\TCPIP Stack\BerkeleyAPI.c
              __tmplbl_27   0x00cfd8    program     static                          
                  __pa_29   0x00cfe2    program     static E:\Working\VMS\Source\Keil\VMS Controller\ICON V1.1\Network\TCPIP Stack\BerkeleyAPI.c
                  __pa_30   0x00cff2    program     static E:\Working\VMS\Source\Keil\VMS Controller\ICON V1.1\Network\TCPIP Stack\BerkeleyAPI.c
                  __pa_31   0x00cffa    program     static E:\Working\VMS\Source\Keil\VMS Controller\ICON V1.1\Network\TCPIP Stack\BerkeleyAPI.c
                  __pa_32   0x00d008    program     static E:\Working\VMS\Source\Keil\VMS Controller\ICON V1.1\Network\TCPIP Stack\BerkeleyAPI.c
                  __pa_33   0x00d012    program     static E:\Working\VMS\Source\Keil\VMS Controller\ICON V1.1\Network\TCPIP Stack\BerkeleyAPI.c
                  __pa_34   0x00d022    program     static E:\Working\VMS\Source\Keil\VMS Controller\ICON V1.1\Network\TCPIP Stack\BerkeleyAPI.c
                  __pa_35   0x00d036    program     static E:\Working\VMS\Source\Keil\VMS Controller\ICON V1.1\Network\TCPIP Stack\BerkeleyAPI.c
                  __pa_36   0x00d048    program     static E:\Working\VMS\Source\Keil\VMS Controller\ICON V1.1\Network\TCPIP Stack\BerkeleyAPI.c
                  __pa_37   0x00d050    program     static E:\Working\VMS\Source\Keil\VMS Controller\ICON V1.1\Network\TCPIP Stack\BerkeleyAPI.c
                  __pa_38   0x00d05a    program     static E:\Working\VMS\Source\Keil\VMS Controller\ICON V1.1\Network\TCPIP Stack\BerkeleyAPI.c
                  __pa_39   0x00d062    program     static E:\Working\VMS\Source\Keil\VMS Controller\ICON V1.1\Network\TCPIP Stack\BerkeleyAPI.c
                  __pa_40   0x00d06a    program     static E:\Working\VMS\Source\Keil\VMS Controller\ICON V1.1\Network\TCPIP Stack\BerkeleyAPI.c
                  __pa_41   0x00d078    program     static E:\Working\VMS\Source\Keil\VMS Controller\ICON V1.1\Network\TCPIP Stack\BerkeleyAPI.c
                  __pa_42   0x00d07e    program     static E:\Working\VMS\Source\Keil\VMS Controller\ICON V1.1\Network\TCPIP Stack\BerkeleyAPI.c
                  __pa_43   0x00d08c    program     static E:\Working\VMS\Source\Keil\VMS Controller\ICON V1.1\Network\TCPIP Stack\BerkeleyAPI.c
                  __pa_44   0x00d09a    program     static E:\Working\VMS\Source\Keil\VMS Controller\ICON V1.1\Network\TCPIP Stack\BerkeleyAPI.c
                  __pa_45   0x00d0a8    program     static E:\Working\VMS\Source\Keil\VMS Controller\ICON V1.1\Network\TCPIP Stack\BerkeleyAPI.c
                  __pa_46   0x00d0b6    program     static E:\Working\VMS\Source\Keil\VMS Controller\ICON V1.1\Network\TCPIP Stack\BerkeleyAPI.c
                  __pa_47   0x00d0c0    program     static E:\Working\VMS\Source\Keil\VMS Controller\ICON V1.1\Network\TCPIP Stack\BerkeleyAPI.c
                  __pa_48   0x00d0ca    program     static E:\Working\VMS\Source\Keil\VMS Controller\ICON V1.1\Network\TCPIP Stack\BerkeleyAPI.c
                  __pa_49   0x00d0d4    program     static E:\Working\VMS\Source\Keil\VMS Controller\ICON V1.1\Network\TCPIP Stack\BerkeleyAPI.c
                  __pa_50   0x00d0de    program     static E:\Working\VMS\Source\Keil\VMS Controller\ICON V1.1\Network\TCPIP Stack\BerkeleyAPI.c
                  __pa_51   0x00d0e6    program     static E:\Working\VMS\Source\Keil\VMS Controller\ICON V1.1\Network\TCPIP Stack\BerkeleyAPI.c
                  __pa_52   0x00d0ee    program     static E:\Working\VMS\Source\Keil\VMS Controller\ICON V1.1\Network\TCPIP Stack\BerkeleyAPI.c
                  __pa_53   0x00d0f8    program     static E:\Working\VMS\Source\Keil\VMS Controller\ICON V1.1\Network\TCPIP Stack\BerkeleyAPI.c
                  __pa_54   0x00d100    program     static E:\Working\VMS\Source\Keil\VMS Controller\ICON V1.1\Network\TCPIP Stack\BerkeleyAPI.c
                  __pa_55   0x00d10c    program     static E:\Working\VMS\Source\Keil\VMS Controller\ICON V1.1\Network\TCPIP Stack\BerkeleyAPI.c
                  __pa_56   0x00d118    program     static E:\Working\VMS\Source\Keil\VMS Controller\ICON V1.1\Network\TCPIP Stack\BerkeleyAPI.c
                  __pa_57   0x00d128    program     static E:\Working\VMS\Source\Keil\VMS Controller\ICON V1.1\Network\TCPIP Stack\BerkeleyAPI.c
                  __pa_58   0x00d130    program     static E:\Working\VMS\Source\Keil\VMS Controller\ICON V1.1\Network\TCPIP Stack\BerkeleyAPI.c
                  __pa_59   0x00d136    program     static E:\Working\VMS\Source\Keil\VMS Controller\ICON V1.1\Network\TCPIP Stack\BerkeleyAPI.c
                  __pa_60   0x00d14e    program     static E:\Working\VMS\Source\Keil\VMS Controller\ICON V1.1\Network\TCPIP Stack\BerkeleyAPI.c
                  __pa_61   0x00d15c    program     static E:\Working\VMS\Source\Keil\VMS Controller\ICON V1.1\Network\TCPIP Stack\BerkeleyAPI.c
                  __pa_62   0x00d168    program     static E:\Working\VMS\Source\Keil\VMS Controller\ICON V1.1\Network\TCPIP Stack\BerkeleyAPI.c
                  __pa_63   0x00d172    program     static E:\Working\VMS\Source\Keil\VMS Controller\ICON V1.1\Network\TCPIP Stack\BerkeleyAPI.c
                  __pa_64   0x00d17c    program     static E:\Working\VMS\Source\Keil\VMS Controller\ICON V1.1\Network\TCPIP Stack\BerkeleyAPI.c
                  __pa_65   0x00d186    program     static E:\Working\VMS\Source\Keil\VMS Controller\ICON V1.1\Network\TCPIP Stack\BerkeleyAPI.c
                  __pa_66   0x00d194    program     static E:\Working\VMS\Source\Keil\VMS Controller\ICON V1.1\Network\TCPIP Stack\BerkeleyAPI.c
                  __pa_67   0x00d19e    program     static E:\Working\VMS\Source\Keil\VMS Controller\ICON V1.1\Network\TCPIP Stack\BerkeleyAPI.c
                  __pa_68   0x00d1aa    program     static E:\Working\VMS\Source\Keil\VMS Controller\ICON V1.1\Network\TCPIP Stack\BerkeleyAPI.c
                  __pa_69   0x00d1b4    program     static E:\Working\VMS\Source\Keil\VMS Controller\ICON V1.1\Network\TCPIP Stack\BerkeleyAPI.c
                  __pa_70   0x00d1bc    program     static E:\Working\VMS\Source\Keil\VMS Controller\ICON V1.1\Network\TCPIP Stack\BerkeleyAPI.c
                  __pa_71   0x00d1c4    program     static E:\Working\VMS\Source\Keil\VMS Controller\ICON V1.1\Network\TCPIP Stack\BerkeleyAPI.c
                  __pa_72   0x00d1cc    program     static E:\Working\VMS\Source\Keil\VMS Controller\ICON V1.1\Network\TCPIP Stack\BerkeleyAPI.c
                  __pa_73   0x00d1d4    program     static E:\Working\VMS\Source\Keil\VMS Controller\ICON V1.1\Network\TCPIP Stack\BerkeleyAPI.c
                  __pa_74   0x00d1dc    program     static E:\Working\VMS\Source\Keil\VMS Controller\ICON V1.1\Network\TCPIP Stack\BerkeleyAPI.c
                  __pa_75   0x00d1e2    program     static E:\Working\VMS\Source\Keil\VMS Controller\ICON V1.1\Network\TCPIP Stack\BerkeleyAPI.c
                  __pa_76   0x00d1f6    program     static E:\Working\VMS\Source\Keil\VMS Controller\ICON V1.1\Network\TCPIP Stack\BerkeleyAPI.c
                  __pa_77   0x00d1fe    program     static E:\Working\VMS\Source\Keil\VMS Controller\ICON V1.1\Network\TCPIP Stack\BerkeleyAPI.c
                  __pa_78   0x00d208    program     static E:\Working\VMS\Source\Keil\VMS Controller\ICON V1.1\Network\TCPIP Stack\BerkeleyAPI.c
                  __pa_79   0x00d218    program     static E:\Working\VMS\Source\Keil\VMS Controller\ICON V1.1\Network\TCPIP Stack\BerkeleyAPI.c
                  __pa_80   0x00d222    program     static E:\Working\VMS\Source\Keil\VMS Controller\ICON V1.1\Network\TCPIP Stack\BerkeleyAPI.c
                  __pa_81   0x00d22e    program     static E:\Working\VMS\Source\Keil\VMS Controller\ICON V1.1\Network\TCPIP Stack\BerkeleyAPI.c
                  __pa_82   0x00d238    program     static E:\Working\VMS\Source\Keil\VMS Controller\ICON V1.1\Network\TCPIP Stack\BerkeleyAPI.c
                  __pa_83   0x00d23e    program     static E:\Working\VMS\Source\Keil\VMS Controller\ICON V1.1\Network\TCPIP Stack\BerkeleyAPI.c
                  __pa_84   0x00d246    program     static E:\Working\VMS\Source\Keil\VMS Controller\ICON V1.1\Network\TCPIP Stack\BerkeleyAPI.c
                  __pa_85   0x00d24c    program     static E:\Working\VMS\Source\Keil\VMS Controller\ICON V1.1\Network\TCPIP Stack\BerkeleyAPI.c
                  __pa_86   0x00d252    program     static E:\Working\VMS\Source\Keil\VMS Controller\ICON V1.1\Network\TCPIP Stack\BerkeleyAPI.c
                  __pa_87   0x00d258    program     static E:\Working\VMS\Source\Keil\VMS Controller\ICON V1.1\Network\TCPIP Stack\BerkeleyAPI.c
                  __pa_88   0x00d25e    program     static E:\Working\VMS\Source\Keil\VMS Controller\ICON V1.1\Network\TCPIP Stack\BerkeleyAPI.c
                configSIM   0x00d264    program     extern E:\Working\VMS\Source\Keil\VMS Controller\ICON V1.1\Network\gprs.c
     GPRS_MultiConnection   0x00d32c    program     extern E:\Working\VMS\Source\Keil\VMS Controller\ICON V1.1\Network\gprs.c
       GPRS_ConfigNetwork   0x00d366    program     extern E:\Working\VMS\Source\Keil\VMS Controller\ICON V1.1\Network\gprs.c
             GPRS_Connect   0x00d478    program     extern E:\Working\VMS\Source\Keil\VMS Controller\ICON V1.1\Network\gprs.c
            GPRS_SendData   0x00d608    program     extern E:\Working\VMS\Source\Keil\VMS Controller\ICON V1.1\Network\gprs.c
              SIM_GetIMEI   0x00d770    program     extern E:\Working\VMS\Source\Keil\VMS Controller\ICON V1.1\Network\gprs.c
         SIM_PowerControl   0x00d81a    program     extern E:\Working\VMS\Source\Keil\VMS Controller\ICON V1.1\Network\gprs.c
                  testSIM   0x00d99e    program     extern E:\Working\VMS\Source\Keil\VMS Controller\ICON V1.1\Network\gprs.c
              SIM_SendCmd   0x00da62    program     extern E:\Working\VMS\Source\Keil\VMS Controller\ICON V1.1\Network\gprs.c
                 str_cmpx   0x00db28    program     extern E:\Working\VMS\Source\Keil\VMS Controller\ICON V1.1\Network\gprs.c
                  convert   0x00dc4c    program     static E:\Working\VMS\Source\Keil\VMS Controller\ICON V1.1\Network\gprs.c
                   __pa_0   0x00dd54    program     static E:\Working\VMS\Source\Keil\VMS Controller\ICON V1.1\Network\gprs.c
                   __pa_1   0x00dd6e    program     static E:\Working\VMS\Source\Keil\VMS Controller\ICON V1.1\Network\gprs.c
                   __pa_2   0x00dd7e    program     static E:\Working\VMS\Source\Keil\VMS Controller\ICON V1.1\Network\gprs.c
                   __pa_3   0x00dd8c    program     static E:\Working\VMS\Source\Keil\VMS Controller\ICON V1.1\Network\gprs.c
                   __pa_4   0x00dd9a    program     static E:\Working\VMS\Source\Keil\VMS Controller\ICON V1.1\Network\gprs.c
                   __pa_5   0x00dda6    program     static E:\Working\VMS\Source\Keil\VMS Controller\ICON V1.1\Network\gprs.c
                   __pa_6   0x00ddac    program     static E:\Working\VMS\Source\Keil\VMS Controller\ICON V1.1\Network\gprs.c
                   __pa_7   0x00ddc0    program     static E:\Working\VMS\Source\Keil\VMS Controller\ICON V1.1\Network\gprs.c
                   __pa_8   0x00ddd8    program     static E:\Working\VMS\Source\Keil\VMS Controller\ICON V1.1\Network\gprs.c
                   __pa_9   0x00ddde    program     static E:\Working\VMS\Source\Keil\VMS Controller\ICON V1.1\Network\gprs.c
                  __pa_10   0x00dde8    program     static E:\Working\VMS\Source\Keil\VMS Controller\ICON V1.1\Network\gprs.c
                  __pa_11   0x00ddf6    program     static E:\Working\VMS\Source\Keil\VMS Controller\ICON V1.1\Network\gprs.c
                  __pa_12   0x00de08    program     static E:\Working\VMS\Source\Keil\VMS Controller\ICON V1.1\Network\gprs.c
                  __pa_13   0x00de14    program     static E:\Working\VMS\Source\Keil\VMS Controller\ICON V1.1\Network\gprs.c
                  __pa_14   0x00de22    program     static E:\Working\VMS\Source\Keil\VMS Controller\ICON V1.1\Network\gprs.c
                  __pa_15   0x00de32    program     static E:\Working\VMS\Source\Keil\VMS Controller\ICON V1.1\Network\gprs.c
                  __pa_16   0x00de50    program     static E:\Working\VMS\Source\Keil\VMS Controller\ICON V1.1\Network\gprs.c
                  __pa_17   0x00de56    program     static E:\Working\VMS\Source\Keil\VMS Controller\ICON V1.1\Network\gprs.c
                  __pa_18   0x00de64    program     static E:\Working\VMS\Source\Keil\VMS Controller\ICON V1.1\Network\gprs.c
                  __pa_19   0x00de72    program     static E:\Working\VMS\Source\Keil\VMS Controller\ICON V1.1\Network\gprs.c
                  __pa_20   0x00de7a    program     static E:\Working\VMS\Source\Keil\VMS Controller\ICON V1.1\Network\gprs.c
                  __pa_21   0x00de8a    program     static E:\Working\VMS\Source\Keil\VMS Controller\ICON V1.1\Network\gprs.c
                  __pa_22   0x00de94    program     static E:\Working\VMS\Source\Keil\VMS Controller\ICON V1.1\Network\gprs.c
                  __pa_23   0x00de9e    program     static E:\Working\VMS\Source\Keil\VMS Controller\ICON V1.1\Network\gprs.c
                  __pa_24   0x00deac    program     static E:\Working\VMS\Source\Keil\VMS Controller\ICON V1.1\Network\gprs.c
                  __pa_25   0x00deb6    program     static E:\Working\VMS\Source\Keil\VMS Controller\ICON V1.1\Network\gprs.c
                  __pa_26   0x00dec0    program     static E:\Working\VMS\Source\Keil\VMS Controller\ICON V1.1\Network\gprs.c
                  __pa_27   0x00dec6    program     static E:\Working\VMS\Source\Keil\VMS Controller\ICON V1.1\Network\gprs.c
                  __pa_28   0x00ded2    program     static E:\Working\VMS\Source\Keil\VMS Controller\ICON V1.1\Network\gprs.c
                  __pa_29   0x00deda    program     static E:\Working\VMS\Source\Keil\VMS Controller\ICON V1.1\Network\gprs.c
                  __pa_30   0x00deea    program     static E:\Working\VMS\Source\Keil\VMS Controller\ICON V1.1\Network\gprs.c
                  __pa_31   0x00defa    program     static E:\Working\VMS\Source\Keil\VMS Controller\ICON V1.1\Network\gprs.c
                  __pa_32   0x00df0a    program     static E:\Working\VMS\Source\Keil\VMS Controller\ICON V1.1\Network\gprs.c
                  __pa_33   0x00df1a    program     static E:\Working\VMS\Source\Keil\VMS Controller\ICON V1.1\Network\gprs.c
                  __pa_34   0x00df2a    program     static E:\Working\VMS\Source\Keil\VMS Controller\ICON V1.1\Network\gprs.c
                  __pa_35   0x00df38    program     static E:\Working\VMS\Source\Keil\VMS Controller\ICON V1.1\Network\gprs.c
                  __pa_36   0x00df46    program     static E:\Working\VMS\Source\Keil\VMS Controller\ICON V1.1\Network\gprs.c
                  __pa_37   0x00df54    program     static E:\Working\VMS\Source\Keil\VMS Controller\ICON V1.1\Network\gprs.c
                  __pa_38   0x00df62    program     static E:\Working\VMS\Source\Keil\VMS Controller\ICON V1.1\Network\gprs.c
                  __pa_39   0x00df6c    program     static E:\Working\VMS\Source\Keil\VMS Controller\ICON V1.1\Network\gprs.c
                  __pa_40   0x00df76    program     static E:\Working\VMS\Source\Keil\VMS Controller\ICON V1.1\Network\gprs.c
                  __pa_41   0x00df7e    program     static E:\Working\VMS\Source\Keil\VMS Controller\ICON V1.1\Network\gprs.c
                  __pa_42   0x00df8e    program     static E:\Working\VMS\Source\Keil\VMS Controller\ICON V1.1\Network\gprs.c
                  __pa_43   0x00dfa0    program     static E:\Working\VMS\Source\Keil\VMS Controller\ICON V1.1\Network\gprs.c
                  __pa_44   0x00dfb4    program     static E:\Working\VMS\Source\Keil\VMS Controller\ICON V1.1\Network\gprs.c
              __tmplbl_13   0x00dfc0    program     static                          
              __tmplbl_12   0x00dfc0    program     static                          
                  __pa_45   0x00dfc0    program     static E:\Working\VMS\Source\Keil\VMS Controller\ICON V1.1\Network\gprs.c
              __tmplbl_11   0x00dfc0    program     static                          
                  __pa_46   0x00dfc8    program     static E:\Working\VMS\Source\Keil\VMS Controller\ICON V1.1\Network\gprs.c
                  __pa_47   0x00dfd2    program     static E:\Working\VMS\Source\Keil\VMS Controller\ICON V1.1\Network\gprs.c
                  __pa_48   0x00dfe0    program     static E:\Working\VMS\Source\Keil\VMS Controller\ICON V1.1\Network\gprs.c
                  __pa_49   0x00dfee    program     static E:\Working\VMS\Source\Keil\VMS Controller\ICON V1.1\Network\gprs.c
                  __pa_50   0x00dff8    program     static E:\Working\VMS\Source\Keil\VMS Controller\ICON V1.1\Network\gprs.c
                  __pa_51   0x00e002    program     static E:\Working\VMS\Source\Keil\VMS Controller\ICON V1.1\Network\gprs.c
                  __pa_52   0x00e008    program     static E:\Working\VMS\Source\Keil\VMS Controller\ICON V1.1\Network\gprs.c
                  __pa_53   0x00e014    program     static E:\Working\VMS\Source\Keil\VMS Controller\ICON V1.1\Network\gprs.c
                  __pa_54   0x00e01a    program     static E:\Working\VMS\Source\Keil\VMS Controller\ICON V1.1\Network\gprs.c
                  __pa_55   0x00e026    program     static E:\Working\VMS\Source\Keil\VMS Controller\ICON V1.1\Network\gprs.c
                  __pa_56   0x00e02c    program     static E:\Working\VMS\Source\Keil\VMS Controller\ICON V1.1\Network\gprs.c
                  __pa_57   0x00e036    program     static E:\Working\VMS\Source\Keil\VMS Controller\ICON V1.1\Network\gprs.c
                  __pa_58   0x00e03c    program     static E:\Working\VMS\Source\Keil\VMS Controller\ICON V1.1\Network\gprs.c
                  __pa_59   0x00e044    program     static E:\Working\VMS\Source\Keil\VMS Controller\ICON V1.1\Network\gprs.c
                  __pa_60   0x00e04a    program     static E:\Working\VMS\Source\Keil\VMS Controller\ICON V1.1\Network\gprs.c
      GenerateRandomDWORD   0x00e052    program     extern E:\Working\VMS\Source\Keil\VMS Controller\ICON V1.1\Network\TCPIP Stack\Helpers.c
              __tmplbl_39   0x00e0ba    program     static                          
        ___while_lbl00001   0x00e0d2    program     static                          
        ___while_lbl00003   0x00e0da    program     static                          
        ___while_lbl00004   0x00e0de    program     static                          
               __tmplbl_0   0x00e13e    program     static                          
              __tmplbl_40   0x00e15a    program     static                          
              __tmplbl_41   0x00e19a    program     static                          
              __tmplbl_42   0x00e1fe    program     static                          
           ___if_lbl00005   0x00e23e    program     static                          
           ___if_lbl00006   0x00e25c    program     static                          
           ___if_lbl00007   0x00e2f2    program     static                          
           ___if_lbl00008   0x00e2f8    program     static                          
        ___while_lbl00002   0x00e2fa    program     static                          
       ___return_lbl00000   0x00e342    program     static                          
        StringToIPAddress   0x00e356    program     extern E:\Working\VMS\Source\Keil\VMS Controller\ICON V1.1\Network\TCPIP Stack\Helpers.c
     ROMStringToIPAddress   0x00e414    program     extern E:\Working\VMS\Source\Keil\VMS Controller\ICON V1.1\Network\TCPIP Stack\Helpers.c
             Base64Decode   0x00e4e6    program     extern E:\Working\VMS\Source\Keil\VMS Controller\ICON V1.1\Network\TCPIP Stack\Helpers.c
                    uitoa   0x00e652    program     extern E:\Working\VMS\Source\Keil\VMS Controller\ICON V1.1\Network\TCPIP Stack\Helpers.c
                  hexatob   0x00e748    program     extern E:\Working\VMS\Source\Keil\VMS Controller\ICON V1.1\Network\TCPIP Stack\Helpers.c
             btohexa_high   0x00e792    program     extern E:\Working\VMS\Source\Keil\VMS Controller\ICON V1.1\Network\TCPIP Stack\Helpers.c
              btohexa_low   0x00e7ba    program     extern E:\Working\VMS\Source\Keil\VMS Controller\ICON V1.1\Network\TCPIP Stack\Helpers.c
           stricmppgm2ram   0x00e7de    program     extern E:\Working\VMS\Source\Keil\VMS Controller\ICON V1.1\Network\TCPIP Stack\Helpers.c
                    swaps   0x00e89e    program     extern E:\Working\VMS\Source\Keil\VMS Controller\ICON V1.1\Network\TCPIP Stack\Helpers.c
                    swapl   0x00e8e4    program     extern E:\Working\VMS\Source\Keil\VMS Controller\ICON V1.1\Network\TCPIP Stack\Helpers.c
           CalcIPChecksum   0x00e932    program     extern E:\Working\VMS\Source\Keil\VMS Controller\ICON V1.1\Network\TCPIP Stack\Helpers.c
          leftRotateDWORD   0x00ea4c    program     extern E:\Working\VMS\Source\Keil\VMS Controller\ICON V1.1\Network\TCPIP Stack\Helpers.c
          ___for_lbl00124   0x00ea76    program     static                          
          ___for_lbl00122   0x00ea94    program     static                          
          ___for_lbl00127   0x00ea9a    program     static                          
          ___for_lbl00123   0x00ea9a    program     static                          
          ___for_lbl00125   0x00eaae    program     static                          
          ___for_lbl00126   0x00eab2    program     static                          
       ___return_lbl00121   0x00eac4    program     static                          
        FormatNetBIOSName   0x00ead8    program     extern E:\Working\VMS\Source\Keil\VMS Controller\ICON V1.1\Network\TCPIP Stack\Helpers.c
                  strnchr   0x00eb20    program     extern E:\Working\VMS\Source\Keil\VMS Controller\ICON V1.1\Network\TCPIP Stack\Helpers.c
                   __pa_0   0x00eb60    program     static E:\Working\VMS\Source\Keil\VMS Controller\ICON V1.1\Network\TCPIP Stack\Helpers.c
                   __pa_1   0x00eb7c    program     static E:\Working\VMS\Source\Keil\VMS Controller\ICON V1.1\Network\TCPIP Stack\Helpers.c
                   __pa_2   0x00eb9e    program     static E:\Working\VMS\Source\Keil\VMS Controller\ICON V1.1\Network\TCPIP Stack\Helpers.c
                   __pa_3   0x00eba8    program     static E:\Working\VMS\Source\Keil\VMS Controller\ICON V1.1\Network\TCPIP Stack\Helpers.c
                   __pa_4   0x00ebb0    program     static E:\Working\VMS\Source\Keil\VMS Controller\ICON V1.1\Network\TCPIP Stack\Helpers.c
                   __pa_5   0x00ebbe    program     static E:\Working\VMS\Source\Keil\VMS Controller\ICON V1.1\Network\TCPIP Stack\Helpers.c
                   __pa_6   0x00ebe4    program     static E:\Working\VMS\Source\Keil\VMS Controller\ICON V1.1\Network\TCPIP Stack\Helpers.c
                   __pa_7   0x00ec06    program     static E:\Working\VMS\Source\Keil\VMS Controller\ICON V1.1\Network\TCPIP Stack\Helpers.c
                   __pa_8   0x00ec18    program     static E:\Working\VMS\Source\Keil\VMS Controller\ICON V1.1\Network\TCPIP Stack\Helpers.c
                   __pa_9   0x00ec22    program     static E:\Working\VMS\Source\Keil\VMS Controller\ICON V1.1\Network\TCPIP Stack\Helpers.c
                  __pa_10   0x00ec3c    program     static E:\Working\VMS\Source\Keil\VMS Controller\ICON V1.1\Network\TCPIP Stack\Helpers.c
                  __pa_11   0x00ec56    program     static E:\Working\VMS\Source\Keil\VMS Controller\ICON V1.1\Network\TCPIP Stack\Helpers.c
                  __pa_12   0x00ec66    program     static E:\Working\VMS\Source\Keil\VMS Controller\ICON V1.1\Network\TCPIP Stack\Helpers.c
                  __pa_13   0x00ec76    program     static E:\Working\VMS\Source\Keil\VMS Controller\ICON V1.1\Network\TCPIP Stack\Helpers.c
                  __pa_14   0x00ec8e    program     static E:\Working\VMS\Source\Keil\VMS Controller\ICON V1.1\Network\TCPIP Stack\Helpers.c
                  __pa_15   0x00eca4    program     static E:\Working\VMS\Source\Keil\VMS Controller\ICON V1.1\Network\TCPIP Stack\Helpers.c
                  __pa_16   0x00ecae    program     static E:\Working\VMS\Source\Keil\VMS Controller\ICON V1.1\Network\TCPIP Stack\Helpers.c
                  __pa_17   0x00ecc0    program     static E:\Working\VMS\Source\Keil\VMS Controller\ICON V1.1\Network\TCPIP Stack\Helpers.c
                  __pa_18   0x00ecd0    program     static E:\Working\VMS\Source\Keil\VMS Controller\ICON V1.1\Network\TCPIP Stack\Helpers.c
                  __pa_19   0x00ece0    program     static E:\Working\VMS\Source\Keil\VMS Controller\ICON V1.1\Network\TCPIP Stack\Helpers.c
                  __pa_20   0x00ecf0    program     static E:\Working\VMS\Source\Keil\VMS Controller\ICON V1.1\Network\TCPIP Stack\Helpers.c
                  __pa_21   0x00ecf8    program     static E:\Working\VMS\Source\Keil\VMS Controller\ICON V1.1\Network\TCPIP Stack\Helpers.c
                  __pa_22   0x00ed06    program     static E:\Working\VMS\Source\Keil\VMS Controller\ICON V1.1\Network\TCPIP Stack\Helpers.c
                  __pa_23   0x00ed14    program     static E:\Working\VMS\Source\Keil\VMS Controller\ICON V1.1\Network\TCPIP Stack\Helpers.c
                  __pa_24   0x00ed28    program     static E:\Working\VMS\Source\Keil\VMS Controller\ICON V1.1\Network\TCPIP Stack\Helpers.c
                  __pa_25   0x00ed3a    program     static E:\Working\VMS\Source\Keil\VMS Controller\ICON V1.1\Network\TCPIP Stack\Helpers.c
                  __pa_26   0x00ed48    program     static E:\Working\VMS\Source\Keil\VMS Controller\ICON V1.1\Network\TCPIP Stack\Helpers.c
                  __pa_27   0x00ed56    program     static E:\Working\VMS\Source\Keil\VMS Controller\ICON V1.1\Network\TCPIP Stack\Helpers.c
                  __pa_28   0x00ed64    program     static E:\Working\VMS\Source\Keil\VMS Controller\ICON V1.1\Network\TCPIP Stack\Helpers.c
                  __pa_29   0x00ed74    program     static E:\Working\VMS\Source\Keil\VMS Controller\ICON V1.1\Network\TCPIP Stack\Helpers.c
                  __pa_30   0x00ed82    program     static E:\Working\VMS\Source\Keil\VMS Controller\ICON V1.1\Network\TCPIP Stack\Helpers.c
                 MPFSInit   0x00ed8c    program     extern E:\Working\VMS\Source\Keil\VMS Controller\ICON V1.1\Network\TCPIP Stack\MPFS2.c
                 MPFSOpen   0x00edba    program     extern E:\Working\VMS\Source\Keil\VMS Controller\ICON V1.1\Network\TCPIP Stack\MPFS2.c
              MPFSOpenROM   0x00eef2    program     extern E:\Working\VMS\Source\Keil\VMS Controller\ICON V1.1\Network\TCPIP Stack\MPFS2.c
               MPFSOpenID   0x00f00e    program     extern E:\Working\VMS\Source\Keil\VMS Controller\ICON V1.1\Network\TCPIP Stack\MPFS2.c
                MPFSClose   0x00f08a    program     extern E:\Working\VMS\Source\Keil\VMS Controller\ICON V1.1\Network\TCPIP Stack\MPFS2.c
                  MPFSGet   0x00f0a6    program     extern E:\Working\VMS\Source\Keil\VMS Controller\ICON V1.1\Network\TCPIP Stack\MPFS2.c
             MPFSGetArray   0x00f13a    program     extern E:\Working\VMS\Source\Keil\VMS Controller\ICON V1.1\Network\TCPIP Stack\MPFS2.c
              MPFSGetLong   0x00f1ec    program     extern E:\Working\VMS\Source\Keil\VMS Controller\ICON V1.1\Network\TCPIP Stack\MPFS2.c
                 MPFSSeek   0x00f220    program     extern E:\Working\VMS\Source\Keil\VMS Controller\ICON V1.1\Network\TCPIP Stack\MPFS2.c
           _LoadFATRecord   0x00f324    program     static E:\Working\VMS\Source\Keil\VMS Controller\ICON V1.1\Network\TCPIP Stack\MPFS2.c
         MPFSGetTimestamp   0x00f3a6    program     extern E:\Working\VMS\Source\Keil\VMS Controller\ICON V1.1\Network\TCPIP Stack\MPFS2.c
         MPFSGetMicrotime   0x00f3d8    program     extern E:\Working\VMS\Source\Keil\VMS Controller\ICON V1.1\Network\TCPIP Stack\MPFS2.c
             MPFSGetFlags   0x00f40a    program     extern E:\Working\VMS\Source\Keil\VMS Controller\ICON V1.1\Network\TCPIP Stack\MPFS2.c
              MPFSGetSize   0x00f436    program     extern E:\Working\VMS\Source\Keil\VMS Controller\ICON V1.1\Network\TCPIP Stack\MPFS2.c
          MPFSGetBytesRem   0x00f468    program     extern E:\Working\VMS\Source\Keil\VMS Controller\ICON V1.1\Network\TCPIP Stack\MPFS2.c
         MPFSGetStartAddr   0x00f492    program     extern E:\Working\VMS\Source\Keil\VMS Controller\ICON V1.1\Network\TCPIP Stack\MPFS2.c
           MPFSGetEndAddr   0x00f4ce    program     extern E:\Working\VMS\Source\Keil\VMS Controller\ICON V1.1\Network\TCPIP Stack\MPFS2.c
          MPFSGetFilename   0x00f51c    program     extern E:\Working\VMS\Source\Keil\VMS Controller\ICON V1.1\Network\TCPIP Stack\MPFS2.c
          MPFSGetPosition   0x00f58c    program     extern E:\Working\VMS\Source\Keil\VMS Controller\ICON V1.1\Network\TCPIP Stack\MPFS2.c
                MPFSGetID   0x00f5be    program     extern E:\Working\VMS\Source\Keil\VMS Controller\ICON V1.1\Network\TCPIP Stack\MPFS2.c
                _Validate   0x00f5d6    program     static E:\Working\VMS\Source\Keil\VMS Controller\ICON V1.1\Network\TCPIP Stack\MPFS2.c
                   __pa_0   0x00f632    program     static E:\Working\VMS\Source\Keil\VMS Controller\ICON V1.1\Network\TCPIP Stack\MPFS2.c
                   __pa_1   0x00f646    program     static E:\Working\VMS\Source\Keil\VMS Controller\ICON V1.1\Network\TCPIP Stack\MPFS2.c
                   __pa_2   0x00f660    program     static E:\Working\VMS\Source\Keil\VMS Controller\ICON V1.1\Network\TCPIP Stack\MPFS2.c
                   __pa_3   0x00f672    program     static E:\Working\VMS\Source\Keil\VMS Controller\ICON V1.1\Network\TCPIP Stack\MPFS2.c
                   __pa_4   0x00f690    program     static E:\Working\VMS\Source\Keil\VMS Controller\ICON V1.1\Network\TCPIP Stack\MPFS2.c
                   __pa_5   0x00f6d4    program     static E:\Working\VMS\Source\Keil\VMS Controller\ICON V1.1\Network\TCPIP Stack\MPFS2.c
                   __pa_6   0x00f6de    program     static E:\Working\VMS\Source\Keil\VMS Controller\ICON V1.1\Network\TCPIP Stack\MPFS2.c
              __tmplbl_58   0x00f6de    program     static                          
                   __pa_7   0x00f6e6    program     static E:\Working\VMS\Source\Keil\VMS Controller\ICON V1.1\Network\TCPIP Stack\MPFS2.c
                   __pa_8   0x00f6fc    program     static E:\Working\VMS\Source\Keil\VMS Controller\ICON V1.1\Network\TCPIP Stack\MPFS2.c
                   __pa_9   0x00f706    program     static E:\Working\VMS\Source\Keil\VMS Controller\ICON V1.1\Network\TCPIP Stack\MPFS2.c
                  __pa_10   0x00f710    program     static E:\Working\VMS\Source\Keil\VMS Controller\ICON V1.1\Network\TCPIP Stack\MPFS2.c
                  __pa_11   0x00f724    program     static E:\Working\VMS\Source\Keil\VMS Controller\ICON V1.1\Network\TCPIP Stack\MPFS2.c
                  __pa_12   0x00f736    program     static E:\Working\VMS\Source\Keil\VMS Controller\ICON V1.1\Network\TCPIP Stack\MPFS2.c
                  __pa_13   0x00f75c    program     static E:\Working\VMS\Source\Keil\VMS Controller\ICON V1.1\Network\TCPIP Stack\MPFS2.c
                  __pa_14   0x00f776    program     static E:\Working\VMS\Source\Keil\VMS Controller\ICON V1.1\Network\TCPIP Stack\MPFS2.c
                  __pa_15   0x00f788    program     static E:\Working\VMS\Source\Keil\VMS Controller\ICON V1.1\Network\TCPIP Stack\MPFS2.c
                  __pa_16   0x00f7ae    program     static E:\Working\VMS\Source\Keil\VMS Controller\ICON V1.1\Network\TCPIP Stack\MPFS2.c
                  __pa_17   0x00f7bc    program     static E:\Working\VMS\Source\Keil\VMS Controller\ICON V1.1\Network\TCPIP Stack\MPFS2.c
                  __pa_18   0x00f7e0    program     static E:\Working\VMS\Source\Keil\VMS Controller\ICON V1.1\Network\TCPIP Stack\MPFS2.c
                  __pa_19   0x00f7f4    program     static E:\Working\VMS\Source\Keil\VMS Controller\ICON V1.1\Network\TCPIP Stack\MPFS2.c
                  __pa_20   0x00f814    program     static E:\Working\VMS\Source\Keil\VMS Controller\ICON V1.1\Network\TCPIP Stack\MPFS2.c
                  __pa_21   0x00f834    program     static E:\Working\VMS\Source\Keil\VMS Controller\ICON V1.1\Network\TCPIP Stack\MPFS2.c
                  __pa_22   0x00f846    program     static E:\Working\VMS\Source\Keil\VMS Controller\ICON V1.1\Network\TCPIP Stack\MPFS2.c
                  __pa_23   0x00f858    program     static E:\Working\VMS\Source\Keil\VMS Controller\ICON V1.1\Network\TCPIP Stack\MPFS2.c
                  __pa_24   0x00f874    program     static E:\Working\VMS\Source\Keil\VMS Controller\ICON V1.1\Network\TCPIP Stack\MPFS2.c
                  __pa_25   0x00f884    program     static E:\Working\VMS\Source\Keil\VMS Controller\ICON V1.1\Network\TCPIP Stack\MPFS2.c
                  __pa_26   0x00f89e    program     static E:\Working\VMS\Source\Keil\VMS Controller\ICON V1.1\Network\TCPIP Stack\MPFS2.c
                  __pa_27   0x00f8b8    program     static E:\Working\VMS\Source\Keil\VMS Controller\ICON V1.1\Network\TCPIP Stack\MPFS2.c
                  __pa_28   0x00f8d2    program     static E:\Working\VMS\Source\Keil\VMS Controller\ICON V1.1\Network\TCPIP Stack\MPFS2.c
                  __pa_29   0x00f8e2    program     static E:\Working\VMS\Source\Keil\VMS Controller\ICON V1.1\Network\TCPIP Stack\MPFS2.c
                  __pa_30   0x00f8fa    program     static E:\Working\VMS\Source\Keil\VMS Controller\ICON V1.1\Network\TCPIP Stack\MPFS2.c
                  __pa_31   0x00f90c    program     static E:\Working\VMS\Source\Keil\VMS Controller\ICON V1.1\Network\TCPIP Stack\MPFS2.c
                  __pa_32   0x00f91a    program     static E:\Working\VMS\Source\Keil\VMS Controller\ICON V1.1\Network\TCPIP Stack\MPFS2.c
                  __pa_33   0x00f928    program     static E:\Working\VMS\Source\Keil\VMS Controller\ICON V1.1\Network\TCPIP Stack\MPFS2.c
                  __pa_34   0x00f936    program     static E:\Working\VMS\Source\Keil\VMS Controller\ICON V1.1\Network\TCPIP Stack\MPFS2.c
                  __pa_35   0x00f940    program     static E:\Working\VMS\Source\Keil\VMS Controller\ICON V1.1\Network\TCPIP Stack\MPFS2.c
                  __pa_36   0x00f954    program     static E:\Working\VMS\Source\Keil\VMS Controller\ICON V1.1\Network\TCPIP Stack\MPFS2.c
                  __pa_37   0x00f962    program     static E:\Working\VMS\Source\Keil\VMS Controller\ICON V1.1\Network\TCPIP Stack\MPFS2.c
                  __pa_38   0x00f970    program     static E:\Working\VMS\Source\Keil\VMS Controller\ICON V1.1\Network\TCPIP Stack\MPFS2.c
                  __pa_39   0x00f978    program     static E:\Working\VMS\Source\Keil\VMS Controller\ICON V1.1\Network\TCPIP Stack\MPFS2.c
                  __pa_40   0x00f982    program     static E:\Working\VMS\Source\Keil\VMS Controller\ICON V1.1\Network\TCPIP Stack\MPFS2.c
                  __pa_41   0x00f99c    program     static E:\Working\VMS\Source\Keil\VMS Controller\ICON V1.1\Network\TCPIP Stack\MPFS2.c
                  __pa_42   0x00f9aa    program     static E:\Working\VMS\Source\Keil\VMS Controller\ICON V1.1\Network\TCPIP Stack\MPFS2.c
                  __pa_43   0x00f9ba    program     static E:\Working\VMS\Source\Keil\VMS Controller\ICON V1.1\Network\TCPIP Stack\MPFS2.c
                  __pa_44   0x00f9d6    program     static E:\Working\VMS\Source\Keil\VMS Controller\ICON V1.1\Network\TCPIP Stack\MPFS2.c
                  __pa_45   0x00f9ee    program     static E:\Working\VMS\Source\Keil\VMS Controller\ICON V1.1\Network\TCPIP Stack\MPFS2.c
                  __pa_46   0x00f9fc    program     static E:\Working\VMS\Source\Keil\VMS Controller\ICON V1.1\Network\TCPIP Stack\MPFS2.c
                  __pa_47   0x00fa04    program     static E:\Working\VMS\Source\Keil\VMS Controller\ICON V1.1\Network\TCPIP Stack\MPFS2.c
                  __pa_48   0x00fa0c    program     static E:\Working\VMS\Source\Keil\VMS Controller\ICON V1.1\Network\TCPIP Stack\MPFS2.c
                  __pa_49   0x00fa16    program     static E:\Working\VMS\Source\Keil\VMS Controller\ICON V1.1\Network\TCPIP Stack\MPFS2.c
                  __pa_50   0x00fa20    program     static E:\Working\VMS\Source\Keil\VMS Controller\ICON V1.1\Network\TCPIP Stack\MPFS2.c
                  __pa_51   0x00fa2c    program     static E:\Working\VMS\Source\Keil\VMS Controller\ICON V1.1\Network\TCPIP Stack\MPFS2.c
                  __pa_52   0x00fa3a    program     static E:\Working\VMS\Source\Keil\VMS Controller\ICON V1.1\Network\TCPIP Stack\MPFS2.c
                  __pa_53   0x00fa44    program     static E:\Working\VMS\Source\Keil\VMS Controller\ICON V1.1\Network\TCPIP Stack\MPFS2.c
                  __pa_54   0x00fa4a    program     static E:\Working\VMS\Source\Keil\VMS Controller\ICON V1.1\Network\TCPIP Stack\MPFS2.c
                  __pa_55   0x00fa52    program     static E:\Working\VMS\Source\Keil\VMS Controller\ICON V1.1\Network\TCPIP Stack\MPFS2.c
                  __pa_56   0x00fa58    program     static E:\Working\VMS\Source\Keil\VMS Controller\ICON V1.1\Network\TCPIP Stack\MPFS2.c
                  __pa_57   0x00fa5e    program     static E:\Working\VMS\Source\Keil\VMS Controller\ICON V1.1\Network\TCPIP Stack\MPFS2.c
                  __pa_58   0x00fa64    program     static E:\Working\VMS\Source\Keil\VMS Controller\ICON V1.1\Network\TCPIP Stack\MPFS2.c
                  __pa_59   0x00fa6c    program     static E:\Working\VMS\Source\Keil\VMS Controller\ICON V1.1\Network\TCPIP Stack\MPFS2.c
                  __pa_60   0x00fa76    program     static E:\Working\VMS\Source\Keil\VMS Controller\ICON V1.1\Network\TCPIP Stack\MPFS2.c
                  __pa_61   0x00fa7e    program     static E:\Working\VMS\Source\Keil\VMS Controller\ICON V1.1\Network\TCPIP Stack\MPFS2.c
                  __pa_62   0x00fa84    program     static E:\Working\VMS\Source\Keil\VMS Controller\ICON V1.1\Network\TCPIP Stack\MPFS2.c
                  UDPInit   0x00fa8e    program     extern E:\Working\VMS\Source\Keil\VMS Controller\ICON V1.1\Network\TCPIP Stack\UDP.c
                  UDPTask   0x00fab2    program     extern E:\Working\VMS\Source\Keil\VMS Controller\ICON V1.1\Network\TCPIP Stack\UDP.c
                  UDPOpen   0x00fab8    program     extern E:\Working\VMS\Source\Keil\VMS Controller\ICON V1.1\Network\TCPIP Stack\UDP.c
                 UDPClose   0x00fba8    program     extern E:\Working\VMS\Source\Keil\VMS Controller\ICON V1.1\Network\TCPIP Stack\UDP.c
           UDPSetTxBuffer   0x00fbda    program     extern E:\Working\VMS\Source\Keil\VMS Controller\ICON V1.1\Network\TCPIP Stack\UDP.c
           UDPSetRxBuffer   0x00fc24    program     extern E:\Working\VMS\Source\Keil\VMS Controller\ICON V1.1\Network\TCPIP Stack\UDP.c
            UDPIsPutReady   0x00fc44    program     extern E:\Working\VMS\Source\Keil\VMS Controller\ICON V1.1\Network\TCPIP Stack\UDP.c
                   UDPPut   0x00fca0    program     extern E:\Working\VMS\Source\Keil\VMS Controller\ICON V1.1\Network\TCPIP Stack\UDP.c
              UDPPutArray   0x00fcec    program     extern E:\Working\VMS\Source\Keil\VMS Controller\ICON V1.1\Network\TCPIP Stack\UDP.c
           UDPPutROMArray   0x00fd18    program     extern E:\Working\VMS\Source\Keil\VMS Controller\ICON V1.1\Network\TCPIP Stack\UDP.c
             UDPPutString   0x00fd80    program     extern E:\Working\VMS\Source\Keil\VMS Controller\ICON V1.1\Network\TCPIP Stack\UDP.c
          UDPPutROMString   0x00fdd6    program     extern E:\Working\VMS\Source\Keil\VMS Controller\ICON V1.1\Network\TCPIP Stack\UDP.c
                 UDPFlush   0x00fe2c    program     extern E:\Working\VMS\Source\Keil\VMS Controller\ICON V1.1\Network\TCPIP Stack\UDP.c
            UDPIsGetReady   0x00ffa0    program     extern E:\Working\VMS\Source\Keil\VMS Controller\ICON V1.1\Network\TCPIP Stack\UDP.c
                   UDPGet   0x00ffd4    program     extern E:\Working\VMS\Source\Keil\VMS Controller\ICON V1.1\Network\TCPIP Stack\UDP.c
              UDPGetArray   0x010008    program     extern E:\Working\VMS\Source\Keil\VMS Controller\ICON V1.1\Network\TCPIP Stack\UDP.c
               UDPDiscard   0x010074    program     extern E:\Working\VMS\Source\Keil\VMS Controller\ICON V1.1\Network\TCPIP Stack\UDP.c
               UDPProcess   0x01008e    program     extern E:\Working\VMS\Source\Keil\VMS Controller\ICON V1.1\Network\TCPIP Stack\UDP.c
       FindMatchingSocket   0x0101fe    program     static E:\Working\VMS\Source\Keil\VMS Controller\ICON V1.1\Network\TCPIP Stack\UDP.c
                   __pa_0   0x010334    program     static E:\Working\VMS\Source\Keil\VMS Controller\ICON V1.1\Network\TCPIP Stack\UDP.c
              __tmplbl_13   0x01035c    program     static                          
                   __pa_1   0x01035c    program     static E:\Working\VMS\Source\Keil\VMS Controller\ICON V1.1\Network\TCPIP Stack\UDP.c
                   __pa_2   0x010364    program     static E:\Working\VMS\Source\Keil\VMS Controller\ICON V1.1\Network\TCPIP Stack\UDP.c
                   __pa_3   0x01037a    program     static E:\Working\VMS\Source\Keil\VMS Controller\ICON V1.1\Network\TCPIP Stack\UDP.c
                   __pa_4   0x010380    program     static E:\Working\VMS\Source\Keil\VMS Controller\ICON V1.1\Network\TCPIP Stack\UDP.c
                   __pa_5   0x010386    program     static E:\Working\VMS\Source\Keil\VMS Controller\ICON V1.1\Network\TCPIP Stack\UDP.c
                   __pa_6   0x01038e    program     static E:\Working\VMS\Source\Keil\VMS Controller\ICON V1.1\Network\TCPIP Stack\UDP.c
                   __pa_7   0x01039c    program     static E:\Working\VMS\Source\Keil\VMS Controller\ICON V1.1\Network\TCPIP Stack\UDP.c
                   __pa_8   0x0103b8    program     static E:\Working\VMS\Source\Keil\VMS Controller\ICON V1.1\Network\TCPIP Stack\UDP.c
                   __pa_9   0x0103ce    program     static E:\Working\VMS\Source\Keil\VMS Controller\ICON V1.1\Network\TCPIP Stack\UDP.c
                  __pa_10   0x0103e2    program     static E:\Working\VMS\Source\Keil\VMS Controller\ICON V1.1\Network\TCPIP Stack\UDP.c
                  __pa_11   0x0103f0    program     static E:\Working\VMS\Source\Keil\VMS Controller\ICON V1.1\Network\TCPIP Stack\UDP.c
                  __pa_12   0x010408    program     static E:\Working\VMS\Source\Keil\VMS Controller\ICON V1.1\Network\TCPIP Stack\UDP.c
                  __pa_13   0x010420    program     static E:\Working\VMS\Source\Keil\VMS Controller\ICON V1.1\Network\TCPIP Stack\UDP.c
                  __pa_14   0x01042c    program     static E:\Working\VMS\Source\Keil\VMS Controller\ICON V1.1\Network\TCPIP Stack\UDP.c
                  __pa_15   0x010442    program     static E:\Working\VMS\Source\Keil\VMS Controller\ICON V1.1\Network\TCPIP Stack\UDP.c
                  __pa_16   0x01044e    program     static E:\Working\VMS\Source\Keil\VMS Controller\ICON V1.1\Network\TCPIP Stack\UDP.c
                  __pa_17   0x010456    program     static E:\Working\VMS\Source\Keil\VMS Controller\ICON V1.1\Network\TCPIP Stack\UDP.c
                  __pa_18   0x010460    program     static E:\Working\VMS\Source\Keil\VMS Controller\ICON V1.1\Network\TCPIP Stack\UDP.c
                  __pa_19   0x01046e    program     static E:\Working\VMS\Source\Keil\VMS Controller\ICON V1.1\Network\TCPIP Stack\UDP.c
                  __pa_20   0x010480    program     static E:\Working\VMS\Source\Keil\VMS Controller\ICON V1.1\Network\TCPIP Stack\UDP.c
                  __pa_21   0x010492    program     static E:\Working\VMS\Source\Keil\VMS Controller\ICON V1.1\Network\TCPIP Stack\UDP.c
                  __pa_22   0x01049e    program     static E:\Working\VMS\Source\Keil\VMS Controller\ICON V1.1\Network\TCPIP Stack\UDP.c
                  __pa_23   0x0104aa    program     static E:\Working\VMS\Source\Keil\VMS Controller\ICON V1.1\Network\TCPIP Stack\UDP.c
                  __pa_24   0x0104b4    program     static E:\Working\VMS\Source\Keil\VMS Controller\ICON V1.1\Network\TCPIP Stack\UDP.c
                  __pa_25   0x0104c4    program     static E:\Working\VMS\Source\Keil\VMS Controller\ICON V1.1\Network\TCPIP Stack\UDP.c
                  __pa_26   0x0104d4    program     static E:\Working\VMS\Source\Keil\VMS Controller\ICON V1.1\Network\TCPIP Stack\UDP.c
                  __pa_27   0x0104e2    program     static E:\Working\VMS\Source\Keil\VMS Controller\ICON V1.1\Network\TCPIP Stack\UDP.c
                  __pa_28   0x0104f0    program     static E:\Working\VMS\Source\Keil\VMS Controller\ICON V1.1\Network\TCPIP Stack\UDP.c
                  __pa_29   0x0104fe    program     static E:\Working\VMS\Source\Keil\VMS Controller\ICON V1.1\Network\TCPIP Stack\UDP.c
                  __pa_30   0x01050c    program     static E:\Working\VMS\Source\Keil\VMS Controller\ICON V1.1\Network\TCPIP Stack\UDP.c
                  __pa_31   0x010514    program     static E:\Working\VMS\Source\Keil\VMS Controller\ICON V1.1\Network\TCPIP Stack\UDP.c
                  __pa_32   0x010522    program     static E:\Working\VMS\Source\Keil\VMS Controller\ICON V1.1\Network\TCPIP Stack\UDP.c
                  __pa_33   0x010530    program     static E:\Working\VMS\Source\Keil\VMS Controller\ICON V1.1\Network\TCPIP Stack\UDP.c
                  __pa_34   0x01053e    program     static E:\Working\VMS\Source\Keil\VMS Controller\ICON V1.1\Network\TCPIP Stack\UDP.c
                  __pa_35   0x010548    program     static E:\Working\VMS\Source\Keil\VMS Controller\ICON V1.1\Network\TCPIP Stack\UDP.c
                  __pa_36   0x010552    program     static E:\Working\VMS\Source\Keil\VMS Controller\ICON V1.1\Network\TCPIP Stack\UDP.c
                  __pa_37   0x010568    program     static E:\Working\VMS\Source\Keil\VMS Controller\ICON V1.1\Network\TCPIP Stack\UDP.c
                  __pa_38   0x010576    program     static E:\Working\VMS\Source\Keil\VMS Controller\ICON V1.1\Network\TCPIP Stack\UDP.c
                  __pa_39   0x010584    program     static E:\Working\VMS\Source\Keil\VMS Controller\ICON V1.1\Network\TCPIP Stack\UDP.c
                  __pa_40   0x01058e    program     static E:\Working\VMS\Source\Keil\VMS Controller\ICON V1.1\Network\TCPIP Stack\UDP.c
                  __pa_41   0x010598    program     static E:\Working\VMS\Source\Keil\VMS Controller\ICON V1.1\Network\TCPIP Stack\UDP.c
                  __pa_42   0x0105a2    program     static E:\Working\VMS\Source\Keil\VMS Controller\ICON V1.1\Network\TCPIP Stack\UDP.c
                  __pa_43   0x0105ac    program     static E:\Working\VMS\Source\Keil\VMS Controller\ICON V1.1\Network\TCPIP Stack\UDP.c
                  __pa_44   0x0105b8    program     static E:\Working\VMS\Source\Keil\VMS Controller\ICON V1.1\Network\TCPIP Stack\UDP.c
                  __pa_45   0x0105c6    program     static E:\Working\VMS\Source\Keil\VMS Controller\ICON V1.1\Network\TCPIP Stack\UDP.c
                  __pa_46   0x0105d4    program     static E:\Working\VMS\Source\Keil\VMS Controller\ICON V1.1\Network\TCPIP Stack\UDP.c
                  __pa_47   0x0105e2    program     static E:\Working\VMS\Source\Keil\VMS Controller\ICON V1.1\Network\TCPIP Stack\UDP.c
                  __pa_48   0x0105f0    program     static E:\Working\VMS\Source\Keil\VMS Controller\ICON V1.1\Network\TCPIP Stack\UDP.c
                  __pa_49   0x0105fa    program     static E:\Working\VMS\Source\Keil\VMS Controller\ICON V1.1\Network\TCPIP Stack\UDP.c
                  __pa_50   0x010604    program     static E:\Working\VMS\Source\Keil\VMS Controller\ICON V1.1\Network\TCPIP Stack\UDP.c
                  MACInit   0x01060e    program     extern E:\Working\VMS\Source\Keil\VMS Controller\ICON V1.1\Network\TCPIP Stack\ETH97J60.c
        ___while_lbl00001   0x010620    program     static                          
        ___while_lbl00002   0x010626    program     static                          
       ___return_lbl00000   0x01070e    program     static                          
              MACIsLinked   0x010718    program     extern E:\Working\VMS\Source\Keil\VMS Controller\ICON V1.1\Network\TCPIP Stack\ETH97J60.c
             MACIsTxReady   0x01072c    program     extern E:\Working\VMS\Source\Keil\VMS Controller\ICON V1.1\Network\TCPIP Stack\ETH97J60.c
             MACDiscardRx   0x010754    program     extern E:\Working\VMS\Source\Keil\VMS Controller\ICON V1.1\Network\TCPIP Stack\ETH97J60.c
         MACGetFreeRxSize   0x0107ba    program     extern E:\Working\VMS\Source\Keil\VMS Controller\ICON V1.1\Network\TCPIP Stack\ETH97J60.c
             MACGetHeader   0x010880    program     extern E:\Working\VMS\Source\Keil\VMS Controller\ICON V1.1\Network\TCPIP Stack\ETH97J60.c
           ___if_lbl00020   0x010896    program     static                          
           ___if_lbl00021   0x0108a2    program     static                          
              __tmplbl_11   0x010908    program     static                          
              __tmplbl_10   0x01090a    program     static                          
               __tmplbl_9   0x010918    program     static                          
               __tmplbl_8   0x01092e    program     static                          
               __tmplbl_7   0x010942    program     static                          
               __tmplbl_6   0x010958    program     static                          
               __tmplbl_5   0x01096c    program     static                          
           ___if_lbl00027   0x01096e    program     static                          
              __tmplbl_13   0x0109c6    program     static                          
              __tmplbl_14   0x0109cc    program     static                          
              __tmplbl_12   0x0109d4    program     static                          
           ___if_lbl00030   0x0109e6    program     static                          
       ___return_lbl00019   0x0109ee    program     static                          
             MACPutHeader   0x010a06    program     extern E:\Working\VMS\Source\Keil\VMS Controller\ICON V1.1\Network\TCPIP Stack\ETH97J60.c
                 MACFlush   0x010a64    program     extern E:\Working\VMS\Source\Keil\VMS Controller\ICON V1.1\Network\TCPIP Stack\ETH97J60.c
        MACSetReadPtrInRx   0x010a8c    program     extern E:\Working\VMS\Source\Keil\VMS Controller\ICON V1.1\Network\TCPIP Stack\ETH97J60.c
           MACSetWritePtr   0x010aac    program     extern E:\Working\VMS\Source\Keil\VMS Controller\ICON V1.1\Network\TCPIP Stack\ETH97J60.c
            MACSetReadPtr   0x010ac6    program     extern E:\Working\VMS\Source\Keil\VMS Controller\ICON V1.1\Network\TCPIP Stack\ETH97J60.c
        MACCalcRxChecksum   0x010ae4    program     extern E:\Working\VMS\Source\Keil\VMS Controller\ICON V1.1\Network\TCPIP Stack\ETH97J60.c
     CalcIPBufferChecksum   0x010b30    program     extern E:\Working\VMS\Source\Keil\VMS Controller\ICON V1.1\Network\TCPIP Stack\ETH97J60.c
          MACMemCopyAsync   0x010ca4    program     extern E:\Working\VMS\Source\Keil\VMS Controller\ICON V1.1\Network\TCPIP Stack\ETH97J60.c
         MACIsMemCopyDone   0x010df0    program     extern E:\Working\VMS\Source\Keil\VMS Controller\ICON V1.1\Network\TCPIP Stack\ETH97J60.c
                   MACGet   0x010dfc    program     extern E:\Working\VMS\Source\Keil\VMS Controller\ICON V1.1\Network\TCPIP Stack\ETH97J60.c
              MACGetArray   0x010e00    program     extern E:\Working\VMS\Source\Keil\VMS Controller\ICON V1.1\Network\TCPIP Stack\ETH97J60.c
                   MACPut   0x010e60    program     extern E:\Working\VMS\Source\Keil\VMS Controller\ICON V1.1\Network\TCPIP Stack\ETH97J60.c
       ___return_lbl00079   0x010e72    program     static                          
              MACPutArray   0x010e7a    program     extern E:\Working\VMS\Source\Keil\VMS Controller\ICON V1.1\Network\TCPIP Stack\ETH97J60.c
        ___while_lbl00081   0x010e82    program     static                          
        ___while_lbl00082   0x010eb6    program     static                          
       ___return_lbl00080   0x010eb6    program     static                          
           MACPutROMArray   0x010ebe    program     extern E:\Working\VMS\Source\Keil\VMS Controller\ICON V1.1\Network\TCPIP Stack\ETH97J60.c
        ___while_lbl00084   0x010ec6    program     static                          
        ___while_lbl00085   0x010f0c    program     static                          
       ___return_lbl00083   0x010f0c    program     static                          
               ReadPHYReg   0x010f14    program     extern E:\Working\VMS\Source\Keil\VMS Controller\ICON V1.1\Network\TCPIP Stack\ETH97J60.c
        ___while_lbl00087   0x010f30    program     static                          
        ___while_lbl00088   0x010f36    program     static                          
       ___return_lbl00086   0x010f5a    program     static                          
              WritePHYReg   0x010f6e    program     extern E:\Working\VMS\Source\Keil\VMS Controller\ICON V1.1\Network\TCPIP Stack\ETH97J60.c
        ___while_lbl00090   0x010fa2    program     static                          
        ___while_lbl00091   0x010fa8    program     static                          
       ___return_lbl00089   0x010fa8    program     static                          
             MACPowerDown   0x010fb2    program     extern E:\Working\VMS\Source\Keil\VMS Controller\ICON V1.1\Network\TCPIP Stack\ETH97J60.c
               MACPowerUp   0x010fc4    program     extern E:\Working\VMS\Source\Keil\VMS Controller\ICON V1.1\Network\TCPIP Stack\ETH97J60.c
                   __pa_0   0x010fd2    program     static E:\Working\VMS\Source\Keil\VMS Controller\ICON V1.1\Network\TCPIP Stack\ETH97J60.c
                   __pa_1   0x010fee    program     static E:\Working\VMS\Source\Keil\VMS Controller\ICON V1.1\Network\TCPIP Stack\ETH97J60.c
              __tmplbl_25   0x010fee    program     static                          
                   __pa_2   0x010ff2    program     static E:\Working\VMS\Source\Keil\VMS Controller\ICON V1.1\Network\TCPIP Stack\ETH97J60.c
                   __pa_3   0x010ffc    program     static E:\Working\VMS\Source\Keil\VMS Controller\ICON V1.1\Network\TCPIP Stack\ETH97J60.c
                   __pa_4   0x011006    program     static E:\Working\VMS\Source\Keil\VMS Controller\ICON V1.1\Network\TCPIP Stack\ETH97J60.c
                   __pa_5   0x01101e    program     static E:\Working\VMS\Source\Keil\VMS Controller\ICON V1.1\Network\TCPIP Stack\ETH97J60.c
                   __pa_6   0x011022    program     static E:\Working\VMS\Source\Keil\VMS Controller\ICON V1.1\Network\TCPIP Stack\ETH97J60.c
                   __pa_7   0x011028    program     static E:\Working\VMS\Source\Keil\VMS Controller\ICON V1.1\Network\TCPIP Stack\ETH97J60.c
                   __pa_8   0x011036    program     static E:\Working\VMS\Source\Keil\VMS Controller\ICON V1.1\Network\TCPIP Stack\ETH97J60.c
                   __pa_9   0x011048    program     static E:\Working\VMS\Source\Keil\VMS Controller\ICON V1.1\Network\TCPIP Stack\ETH97J60.c
                  __pa_10   0x01105a    program     static E:\Working\VMS\Source\Keil\VMS Controller\ICON V1.1\Network\TCPIP Stack\ETH97J60.c
                  __pa_11   0x011066    program     static E:\Working\VMS\Source\Keil\VMS Controller\ICON V1.1\Network\TCPIP Stack\ETH97J60.c
                  __pa_12   0x011076    program     static E:\Working\VMS\Source\Keil\VMS Controller\ICON V1.1\Network\TCPIP Stack\ETH97J60.c
                  __pa_13   0x011082    program     static E:\Working\VMS\Source\Keil\VMS Controller\ICON V1.1\Network\TCPIP Stack\ETH97J60.c
                  __pa_14   0x011090    program     static E:\Working\VMS\Source\Keil\VMS Controller\ICON V1.1\Network\TCPIP Stack\ETH97J60.c
                  __pa_15   0x01109e    program     static E:\Working\VMS\Source\Keil\VMS Controller\ICON V1.1\Network\TCPIP Stack\ETH97J60.c
                  __pa_16   0x0110ac    program     static E:\Working\VMS\Source\Keil\VMS Controller\ICON V1.1\Network\TCPIP Stack\ETH97J60.c
                  __pa_17   0x0110ba    program     static E:\Working\VMS\Source\Keil\VMS Controller\ICON V1.1\Network\TCPIP Stack\ETH97J60.c
                  __pa_18   0x0110c2    program     static E:\Working\VMS\Source\Keil\VMS Controller\ICON V1.1\Network\TCPIP Stack\ETH97J60.c
                  __pa_19   0x0110cc    program     static E:\Working\VMS\Source\Keil\VMS Controller\ICON V1.1\Network\TCPIP Stack\ETH97J60.c
                  __pa_20   0x0110d6    program     static E:\Working\VMS\Source\Keil\VMS Controller\ICON V1.1\Network\TCPIP Stack\ETH97J60.c
                  __pa_21   0x0110ee    program     static E:\Working\VMS\Source\Keil\VMS Controller\ICON V1.1\Network\TCPIP Stack\ETH97J60.c
                  __pa_22   0x0110fc    program     static E:\Working\VMS\Source\Keil\VMS Controller\ICON V1.1\Network\TCPIP Stack\ETH97J60.c
                  __pa_23   0x011104    program     static E:\Working\VMS\Source\Keil\VMS Controller\ICON V1.1\Network\TCPIP Stack\ETH97J60.c
                  __pa_24   0x011114    program     static E:\Working\VMS\Source\Keil\VMS Controller\ICON V1.1\Network\TCPIP Stack\ETH97J60.c
                  __pa_25   0x011120    program     static E:\Working\VMS\Source\Keil\VMS Controller\ICON V1.1\Network\TCPIP Stack\ETH97J60.c
                  __pa_26   0x011130    program     static E:\Working\VMS\Source\Keil\VMS Controller\ICON V1.1\Network\TCPIP Stack\ETH97J60.c
                  __pa_27   0x011138    program     static E:\Working\VMS\Source\Keil\VMS Controller\ICON V1.1\Network\TCPIP Stack\ETH97J60.c
                  __pa_28   0x011142    program     static E:\Working\VMS\Source\Keil\VMS Controller\ICON V1.1\Network\TCPIP Stack\ETH97J60.c
                  __pa_29   0x01114c    program     static E:\Working\VMS\Source\Keil\VMS Controller\ICON V1.1\Network\TCPIP Stack\ETH97J60.c
                  __pa_30   0x011154    program     static E:\Working\VMS\Source\Keil\VMS Controller\ICON V1.1\Network\TCPIP Stack\ETH97J60.c
                 DHCPInit   0x01115c    program     extern E:\Working\VMS\Source\Keil\VMS Controller\ICON V1.1\Network\TCPIP Stack\DHCP.c
              DHCPDisable   0x011192    program     extern E:\Working\VMS\Source\Keil\VMS Controller\ICON V1.1\Network\TCPIP Stack\DHCP.c
               DHCPEnable   0x0111a2    program     extern E:\Working\VMS\Source\Keil\VMS Controller\ICON V1.1\Network\TCPIP Stack\DHCP.c
            DHCPIsEnabled   0x0111b4    program     extern E:\Working\VMS\Source\Keil\VMS Controller\ICON V1.1\Network\TCPIP Stack\DHCP.c
              DHCPIsBound   0x0111c6    program     extern E:\Working\VMS\Source\Keil\VMS Controller\ICON V1.1\Network\TCPIP Stack\DHCP.c
         DHCPStateChanged   0x0111d2    program     extern E:\Working\VMS\Source\Keil\VMS Controller\ICON V1.1\Network\TCPIP Stack\DHCP.c
     DHCPIsServerDetected   0x0111e6    program     extern E:\Working\VMS\Source\Keil\VMS Controller\ICON V1.1\Network\TCPIP Stack\DHCP.c
                 DHCPTask   0x0111f6    program     extern E:\Working\VMS\Source\Keil\VMS Controller\ICON V1.1\Network\TCPIP Stack\DHCP.c
             _DHCPReceive   0x0113ba    program     static E:\Working\VMS\Source\Keil\VMS Controller\ICON V1.1\Network\TCPIP Stack\DHCP.c
                _DHCPSend   0x011646    program     static E:\Working\VMS\Source\Keil\VMS Controller\ICON V1.1\Network\TCPIP Stack\DHCP.c
                   __pa_0   0x0117c0    program     static E:\Working\VMS\Source\Keil\VMS Controller\ICON V1.1\Network\TCPIP Stack\DHCP.c
                   __pa_1   0x0117cc    program     static E:\Working\VMS\Source\Keil\VMS Controller\ICON V1.1\Network\TCPIP Stack\DHCP.c
                   __pa_2   0x0117d2    program     static E:\Working\VMS\Source\Keil\VMS Controller\ICON V1.1\Network\TCPIP Stack\DHCP.c
                   __pa_3   0x0117f6    program     static E:\Working\VMS\Source\Keil\VMS Controller\ICON V1.1\Network\TCPIP Stack\DHCP.c
                   __pa_4   0x01180e    program     static E:\Working\VMS\Source\Keil\VMS Controller\ICON V1.1\Network\TCPIP Stack\DHCP.c
                   __pa_5   0x011818    program     static E:\Working\VMS\Source\Keil\VMS Controller\ICON V1.1\Network\TCPIP Stack\DHCP.c
                   __pa_6   0x011826    program     static E:\Working\VMS\Source\Keil\VMS Controller\ICON V1.1\Network\TCPIP Stack\DHCP.c
                   __pa_7   0x01185a    program     static E:\Working\VMS\Source\Keil\VMS Controller\ICON V1.1\Network\TCPIP Stack\DHCP.c
                   __pa_8   0x011876    program     static E:\Working\VMS\Source\Keil\VMS Controller\ICON V1.1\Network\TCPIP Stack\DHCP.c
                   __pa_9   0x01187e    program     static E:\Working\VMS\Source\Keil\VMS Controller\ICON V1.1\Network\TCPIP Stack\DHCP.c
                  __pa_10   0x0118a6    program     static E:\Working\VMS\Source\Keil\VMS Controller\ICON V1.1\Network\TCPIP Stack\DHCP.c
                  __pa_11   0x0118ac    program     static E:\Working\VMS\Source\Keil\VMS Controller\ICON V1.1\Network\TCPIP Stack\DHCP.c
                  __pa_12   0x0118bc    program     static E:\Working\VMS\Source\Keil\VMS Controller\ICON V1.1\Network\TCPIP Stack\DHCP.c
                  __pa_13   0x0118d0    program     static E:\Working\VMS\Source\Keil\VMS Controller\ICON V1.1\Network\TCPIP Stack\DHCP.c
                  __pa_14   0x0118e2    program     static E:\Working\VMS\Source\Keil\VMS Controller\ICON V1.1\Network\TCPIP Stack\DHCP.c
                  __pa_15   0x0118e8    program     static E:\Working\VMS\Source\Keil\VMS Controller\ICON V1.1\Network\TCPIP Stack\DHCP.c
                  __pa_16   0x0118f6    program     static E:\Working\VMS\Source\Keil\VMS Controller\ICON V1.1\Network\TCPIP Stack\DHCP.c
                  __pa_17   0x011900    program     static E:\Working\VMS\Source\Keil\VMS Controller\ICON V1.1\Network\TCPIP Stack\DHCP.c
                  __pa_18   0x01190a    program     static E:\Working\VMS\Source\Keil\VMS Controller\ICON V1.1\Network\TCPIP Stack\DHCP.c
                  __pa_19   0x011918    program     static E:\Working\VMS\Source\Keil\VMS Controller\ICON V1.1\Network\TCPIP Stack\DHCP.c
                  __pa_20   0x01191e    program     static E:\Working\VMS\Source\Keil\VMS Controller\ICON V1.1\Network\TCPIP Stack\DHCP.c
                  __pa_21   0x011926    program     static E:\Working\VMS\Source\Keil\VMS Controller\ICON V1.1\Network\TCPIP Stack\DHCP.c
                  __pa_22   0x01192e    program     static E:\Working\VMS\Source\Keil\VMS Controller\ICON V1.1\Network\TCPIP Stack\DHCP.c
                  __pa_23   0x011936    program     static E:\Working\VMS\Source\Keil\VMS Controller\ICON V1.1\Network\TCPIP Stack\DHCP.c
                  __pa_24   0x011942    program     static E:\Working\VMS\Source\Keil\VMS Controller\ICON V1.1\Network\TCPIP Stack\DHCP.c
                  __pa_25   0x01194e    program     static E:\Working\VMS\Source\Keil\VMS Controller\ICON V1.1\Network\TCPIP Stack\DHCP.c
                  __pa_26   0x01195c    program     static E:\Working\VMS\Source\Keil\VMS Controller\ICON V1.1\Network\TCPIP Stack\DHCP.c
                  __pa_27   0x01196a    program     static E:\Working\VMS\Source\Keil\VMS Controller\ICON V1.1\Network\TCPIP Stack\DHCP.c
                  __pa_28   0x011970    program     static E:\Working\VMS\Source\Keil\VMS Controller\ICON V1.1\Network\TCPIP Stack\DHCP.c
                  __pa_29   0x011978    program     static E:\Working\VMS\Source\Keil\VMS Controller\ICON V1.1\Network\TCPIP Stack\DHCP.c
                  __pa_30   0x01197e    program     static E:\Working\VMS\Source\Keil\VMS Controller\ICON V1.1\Network\TCPIP Stack\DHCP.c
               __string_0   0x011988    program     static E:\Working\VMS\Source\Keil\VMS Controller\ICON V1.1\Network\TCPIP Stack\MPFS2.c
              __string_48   0x01198f    program     static E:\Working\VMS\Source\Keil\VMS Controller\ICON V1.1\Network\TCPIP Stack\HTTP2.c
              __string_47   0x011993    program     static E:\Working\VMS\Source\Keil\VMS Controller\ICON V1.1\Network\TCPIP Stack\HTTP2.c
              __string_46   0x01199c    program     static E:\Working\VMS\Source\Keil\VMS Controller\ICON V1.1\Network\TCPIP Stack\HTTP2.c
              __string_45   0x0119a5    program     static E:\Working\VMS\Source\Keil\VMS Controller\ICON V1.1\Network\TCPIP Stack\HTTP2.c
              __string_44   0x0119b5    program     static E:\Working\VMS\Source\Keil\VMS Controller\ICON V1.1\Network\TCPIP Stack\HTTP2.c
              __string_43   0x0119ce    program     static E:\Working\VMS\Source\Keil\VMS Controller\ICON V1.1\Network\TCPIP Stack\HTTP2.c
              __string_42   0x0119dd    program     static E:\Working\VMS\Source\Keil\VMS Controller\ICON V1.1\Network\TCPIP Stack\HTTP2.c
              __string_41   0x0119f0    program     static E:\Working\VMS\Source\Keil\VMS Controller\ICON V1.1\Network\TCPIP Stack\HTTP2.c
              __string_40   0x0119fa    program     static E:\Working\VMS\Source\Keil\VMS Controller\ICON V1.1\Network\TCPIP Stack\HTTP2.c
              __string_39   0x0119ff    program     static E:\Working\VMS\Source\Keil\VMS Controller\ICON V1.1\Network\TCPIP Stack\HTTP2.c
              __string_38   0x011a03    program     static E:\Working\VMS\Source\Keil\VMS Controller\ICON V1.1\Network\TCPIP Stack\HTTP2.c
              __string_37   0x011a13    program     static E:\Working\VMS\Source\Keil\VMS Controller\ICON V1.1\Network\TCPIP Stack\HTTP2.c
              __string_36   0x011a22    program     static E:\Working\VMS\Source\Keil\VMS Controller\ICON V1.1\Network\TCPIP Stack\HTTP2.c
              __string_35   0x011a2a    program     static E:\Working\VMS\Source\Keil\VMS Controller\ICON V1.1\Network\TCPIP Stack\HTTP2.c
              __string_34   0x011a81    program     static E:\Working\VMS\Source\Keil\VMS Controller\ICON V1.1\Network\TCPIP Stack\HTTP2.c
              __string_33   0x011ab3    program     static E:\Working\VMS\Source\Keil\VMS Controller\ICON V1.1\Network\TCPIP Stack\HTTP2.c
              __string_32   0x011b19    program     static E:\Working\VMS\Source\Keil\VMS Controller\ICON V1.1\Network\TCPIP Stack\HTTP2.c
              __string_31   0x011b89    program     static E:\Working\VMS\Source\Keil\VMS Controller\ICON V1.1\Network\TCPIP Stack\HTTP2.c
              __string_30   0x011bf6    program     static E:\Working\VMS\Source\Keil\VMS Controller\ICON V1.1\Network\TCPIP Stack\HTTP2.c
              __string_29   0x011c39    program     static E:\Working\VMS\Source\Keil\VMS Controller\ICON V1.1\Network\TCPIP Stack\HTTP2.c
              __string_28   0x011cba    program     static E:\Working\VMS\Source\Keil\VMS Controller\ICON V1.1\Network\TCPIP Stack\HTTP2.c
              __string_27   0x011d18    program     static E:\Working\VMS\Source\Keil\VMS Controller\ICON V1.1\Network\TCPIP Stack\HTTP2.c
              __string_26   0x011d3d    program     static E:\Working\VMS\Source\Keil\VMS Controller\ICON V1.1\Network\TCPIP Stack\HTTP2.c
              __string_25   0x011d3e    program     static E:\Working\VMS\Source\Keil\VMS Controller\ICON V1.1\Network\TCPIP Stack\HTTP2.c
              __string_24   0x011d4b    program     static E:\Working\VMS\Source\Keil\VMS Controller\ICON V1.1\Network\TCPIP Stack\HTTP2.c
              __string_23   0x011d5f    program     static E:\Working\VMS\Source\Keil\VMS Controller\ICON V1.1\Network\TCPIP Stack\HTTP2.c
              __string_22   0x011d6a    program     static E:\Working\VMS\Source\Keil\VMS Controller\ICON V1.1\Network\TCPIP Stack\HTTP2.c
              __string_21   0x011d74    program     static E:\Working\VMS\Source\Keil\VMS Controller\ICON V1.1\Network\TCPIP Stack\HTTP2.c
              __string_20   0x011d7e    program     static E:\Working\VMS\Source\Keil\VMS Controller\ICON V1.1\Network\TCPIP Stack\HTTP2.c
              __string_19   0x011d87    program     static E:\Working\VMS\Source\Keil\VMS Controller\ICON V1.1\Network\TCPIP Stack\HTTP2.c
              __string_18   0x011d90    program     static E:\Working\VMS\Source\Keil\VMS Controller\ICON V1.1\Network\TCPIP Stack\HTTP2.c
              __string_17   0x011d9a    program     static E:\Working\VMS\Source\Keil\VMS Controller\ICON V1.1\Network\TCPIP Stack\HTTP2.c
              __string_16   0x011da5    program     static E:\Working\VMS\Source\Keil\VMS Controller\ICON V1.1\Network\TCPIP Stack\HTTP2.c
              __string_15   0x011da9    program     static E:\Working\VMS\Source\Keil\VMS Controller\ICON V1.1\Network\TCPIP Stack\HTTP2.c
              __string_14   0x011dad    program     static E:\Working\VMS\Source\Keil\VMS Controller\ICON V1.1\Network\TCPIP Stack\HTTP2.c
              __string_13   0x011db1    program     static E:\Working\VMS\Source\Keil\VMS Controller\ICON V1.1\Network\TCPIP Stack\HTTP2.c
              __string_12   0x011db5    program     static E:\Working\VMS\Source\Keil\VMS Controller\ICON V1.1\Network\TCPIP Stack\HTTP2.c
              __string_11   0x011db9    program     static E:\Working\VMS\Source\Keil\VMS Controller\ICON V1.1\Network\TCPIP Stack\HTTP2.c
              __string_10   0x011dbd    program     static E:\Working\VMS\Source\Keil\VMS Controller\ICON V1.1\Network\TCPIP Stack\HTTP2.c
               __string_9   0x011dc1    program     static E:\Working\VMS\Source\Keil\VMS Controller\ICON V1.1\Network\TCPIP Stack\HTTP2.c
               __string_8   0x011dc5    program     static E:\Working\VMS\Source\Keil\VMS Controller\ICON V1.1\Network\TCPIP Stack\HTTP2.c
               __string_7   0x011dc9    program     static E:\Working\VMS\Source\Keil\VMS Controller\ICON V1.1\Network\TCPIP Stack\HTTP2.c
               __string_6   0x011dce    program     static E:\Working\VMS\Source\Keil\VMS Controller\ICON V1.1\Network\TCPIP Stack\HTTP2.c
               __string_5   0x011dd2    program     static E:\Working\VMS\Source\Keil\VMS Controller\ICON V1.1\Network\TCPIP Stack\HTTP2.c
               __string_3   0x011dd6    program     static E:\Working\VMS\Source\Keil\VMS Controller\ICON V1.1\Network\TCPIP Stack\HTTP2.c
               __string_2   0x011ddb    program     static E:\Working\VMS\Source\Keil\VMS Controller\ICON V1.1\Network\TCPIP Stack\HTTP2.c
               __string_1   0x011de6    program     static E:\Working\VMS\Source\Keil\VMS Controller\ICON V1.1\Network\TCPIP Stack\HTTP2.c
               __string_0   0x011df7    program     static E:\Working\VMS\Source\Keil\VMS Controller\ICON V1.1\Network\TCPIP Stack\HTTP2.c
              __string_26   0x011e02    program     static E:\Working\VMS\Source\Keil\VMS Controller\ICON V1.1\Network\CustomHTTPApp.c
              __string_25   0x011e0b    program     static E:\Working\VMS\Source\Keil\VMS Controller\ICON V1.1\Network\CustomHTTPApp.c
              __string_24   0x011e14    program     static E:\Working\VMS\Source\Keil\VMS Controller\ICON V1.1\Network\CustomHTTPApp.c
              __string_23   0x011e16    program     static E:\Working\VMS\Source\Keil\VMS Controller\ICON V1.1\Network\CustomHTTPApp.c
              __string_22   0x011e1e    program     static E:\Working\VMS\Source\Keil\VMS Controller\ICON V1.1\Network\CustomHTTPApp.c
              __string_21   0x011e23    program     static E:\Working\VMS\Source\Keil\VMS Controller\ICON V1.1\Network\CustomHTTPApp.c
              __string_20   0x011e28    program     static E:\Working\VMS\Source\Keil\VMS Controller\ICON V1.1\Network\CustomHTTPApp.c
              __string_19   0x011e2d    program     static E:\Working\VMS\Source\Keil\VMS Controller\ICON V1.1\Network\CustomHTTPApp.c
              __string_18   0x011e32    program     static E:\Working\VMS\Source\Keil\VMS Controller\ICON V1.1\Network\CustomHTTPApp.c
              __string_17   0x011e37    program     static E:\Working\VMS\Source\Keil\VMS Controller\ICON V1.1\Network\CustomHTTPApp.c
              __string_16   0x011e39    program     static E:\Working\VMS\Source\Keil\VMS Controller\ICON V1.1\Network\CustomHTTPApp.c
              __string_15   0x011e3b    program     static E:\Working\VMS\Source\Keil\VMS Controller\ICON V1.1\Network\CustomHTTPApp.c
              __string_14   0x011e40    program     static E:\Working\VMS\Source\Keil\VMS Controller\ICON V1.1\Network\CustomHTTPApp.c
              __string_13   0x011e4b    program     static E:\Working\VMS\Source\Keil\VMS Controller\ICON V1.1\Network\CustomHTTPApp.c
              __string_12   0x011e58    program     static E:\Working\VMS\Source\Keil\VMS Controller\ICON V1.1\Network\CustomHTTPApp.c
              __string_11   0x011e5d    program     static E:\Working\VMS\Source\Keil\VMS Controller\ICON V1.1\Network\CustomHTTPApp.c
              __string_10   0x011e62    program     static E:\Working\VMS\Source\Keil\VMS Controller\ICON V1.1\Network\CustomHTTPApp.c
               __string_9   0x011e66    program     static E:\Working\VMS\Source\Keil\VMS Controller\ICON V1.1\Network\CustomHTTPApp.c
               __string_8   0x011e6a    program     static E:\Working\VMS\Source\Keil\VMS Controller\ICON V1.1\Network\CustomHTTPApp.c
               __string_7   0x011e6f    program     static E:\Working\VMS\Source\Keil\VMS Controller\ICON V1.1\Network\CustomHTTPApp.c
               __string_6   0x011e73    program     static E:\Working\VMS\Source\Keil\VMS Controller\ICON V1.1\Network\CustomHTTPApp.c
               __string_5   0x011e77    program     static E:\Working\VMS\Source\Keil\VMS Controller\ICON V1.1\Network\CustomHTTPApp.c
               __string_4   0x011e7a    program     static E:\Working\VMS\Source\Keil\VMS Controller\ICON V1.1\Network\CustomHTTPApp.c
               __string_3   0x011e7d    program     static E:\Working\VMS\Source\Keil\VMS Controller\ICON V1.1\Network\CustomHTTPApp.c
               __string_2   0x011e8a    program     static E:\Working\VMS\Source\Keil\VMS Controller\ICON V1.1\Network\CustomHTTPApp.c
               __string_1   0x011e97    program     static E:\Working\VMS\Source\Keil\VMS Controller\ICON V1.1\Network\CustomHTTPApp.c
               __string_0   0x011ea4    program     static E:\Working\VMS\Source\Keil\VMS Controller\ICON V1.1\Network\CustomHTTPApp.c
              __string_35   0x011eb1    program     static E:\Working\VMS\Source\Keil\VMS Controller\ICON V1.1\Network\gprs.c
              __string_34   0x011ec2    program     static E:\Working\VMS\Source\Keil\VMS Controller\ICON V1.1\Network\gprs.c
              __string_33   0x011ec5    program     static E:\Working\VMS\Source\Keil\VMS Controller\ICON V1.1\Network\gprs.c
              __string_32   0x011ed2    program     static E:\Working\VMS\Source\Keil\VMS Controller\ICON V1.1\Network\gprs.c
              __string_31   0x011edf    program     static E:\Working\VMS\Source\Keil\VMS Controller\ICON V1.1\Network\gprs.c
              __string_30   0x011eec    program     static E:\Working\VMS\Source\Keil\VMS Controller\ICON V1.1\Network\gprs.c
              __string_29   0x011ef9    program     static E:\Working\VMS\Source\Keil\VMS Controller\ICON V1.1\Network\gprs.c
              __string_28   0x011f06    program     static E:\Working\VMS\Source\Keil\VMS Controller\ICON V1.1\Network\gprs.c
              __string_27   0x011f0f    program     static E:\Working\VMS\Source\Keil\VMS Controller\ICON V1.1\Network\gprs.c
              __string_26   0x011f11    program     static E:\Working\VMS\Source\Keil\VMS Controller\ICON V1.1\Network\gprs.c
              __string_25   0x011f13    program     static E:\Working\VMS\Source\Keil\VMS Controller\ICON V1.1\Network\gprs.c
              __string_24   0x011f1f    program     static E:\Working\VMS\Source\Keil\VMS Controller\ICON V1.1\Network\gprs.c
              __string_23   0x011f2f    program     static E:\Working\VMS\Source\Keil\VMS Controller\ICON V1.1\Network\gprs.c
              __string_22   0x011f3a    program     static E:\Working\VMS\Source\Keil\VMS Controller\ICON V1.1\Network\gprs.c
              __string_21   0x011f47    program     static E:\Working\VMS\Source\Keil\VMS Controller\ICON V1.1\Network\gprs.c
              __string_20   0x011f4b    program     static E:\Working\VMS\Source\Keil\VMS Controller\ICON V1.1\Network\gprs.c
              __string_19   0x011f4f    program     static E:\Working\VMS\Source\Keil\VMS Controller\ICON V1.1\Network\gprs.c
              __string_18   0x011f58    program     static E:\Working\VMS\Source\Keil\VMS Controller\ICON V1.1\Network\gprs.c
              __string_17   0x011f65    program     static E:\Working\VMS\Source\Keil\VMS Controller\ICON V1.1\Network\gprs.c
              __string_16   0x011f70    program     static E:\Working\VMS\Source\Keil\VMS Controller\ICON V1.1\Network\gprs.c
              __string_15   0x011f79    program     static E:\Working\VMS\Source\Keil\VMS Controller\ICON V1.1\Network\gprs.c
              __string_14   0x011f81    program     static E:\Working\VMS\Source\Keil\VMS Controller\ICON V1.1\Network\gprs.c
              __string_13   0x011f8d    program     static E:\Working\VMS\Source\Keil\VMS Controller\ICON V1.1\Network\gprs.c
              __string_12   0x011f99    program     static E:\Working\VMS\Source\Keil\VMS Controller\ICON V1.1\Network\gprs.c
              __string_11   0x011fa3    program     static E:\Working\VMS\Source\Keil\VMS Controller\ICON V1.1\Network\gprs.c
              __string_10   0x011faf    program     static E:\Working\VMS\Source\Keil\VMS Controller\ICON V1.1\Network\gprs.c
               __string_9   0x011fbc    program     static E:\Working\VMS\Source\Keil\VMS Controller\ICON V1.1\Network\gprs.c
               __string_8   0x011fdd    program     static E:\Working\VMS\Source\Keil\VMS Controller\ICON V1.1\Network\gprs.c
               __string_7   0x012001    program     static E:\Working\VMS\Source\Keil\VMS Controller\ICON V1.1\Network\gprs.c
               __string_6   0x01201d    program     static E:\Working\VMS\Source\Keil\VMS Controller\ICON V1.1\Network\gprs.c
               __string_5   0x012025    program     static E:\Working\VMS\Source\Keil\VMS Controller\ICON V1.1\Network\gprs.c
               __string_4   0x012037    program     static E:\Working\VMS\Source\Keil\VMS Controller\ICON V1.1\Network\gprs.c
               __string_3   0x01203c    program     static E:\Working\VMS\Source\Keil\VMS Controller\ICON V1.1\Network\gprs.c
               __string_2   0x012041    program     static E:\Working\VMS\Source\Keil\VMS Controller\ICON V1.1\Network\gprs.c
               __string_1   0x012047    program     static E:\Working\VMS\Source\Keil\VMS Controller\ICON V1.1\Network\gprs.c
               __string_0   0x01204a    program     static E:\Working\VMS\Source\Keil\VMS Controller\ICON V1.1\Network\gprs.c
               __string_8   0x01204d    program     static E:\Working\VMS\Source\Keil\VMS Controller\ICON V1.1\Network\main.c
               __string_7   0x012057    program     static E:\Working\VMS\Source\Keil\VMS Controller\ICON V1.1\Network\main.c
               __string_6   0x012061    program     static E:\Working\VMS\Source\Keil\VMS Controller\ICON V1.1\Network\main.c
               __string_5   0x01206b    program     static E:\Working\VMS\Source\Keil\VMS Controller\ICON V1.1\Network\main.c
               __string_4   0x012071    program     static E:\Working\VMS\Source\Keil\VMS Controller\ICON V1.1\Network\main.c
               __string_3   0x012074    program     static E:\Working\VMS\Source\Keil\VMS Controller\ICON V1.1\Network\main.c
                   _addBI   0x012080    program     extern TCPIP Stack\BigInt_helper.asm
                  aDo8Add   0x0120b0    program     static TCPIP Stack\BigInt_helper.asm
                aTest8Add   0x0120d4    program     static TCPIP Stack\BigInt_helper.asm
           aDoResidualAdd   0x0120dc    program     static TCPIP Stack\BigInt_helper.asm
         aTestResidualAdd   0x0120e0    program     static TCPIP Stack\BigInt_helper.asm
            aDoFinalCarry   0x0120e8    program     static TCPIP Stack\BigInt_helper.asm
                    aDone   0x0120f2    program     static TCPIP Stack\BigInt_helper.asm
                _addBIROM   0x012104    program     extern TCPIP Stack\BigInt_helper.asm
                 aRDo8Add   0x012130    program     static TCPIP Stack\BigInt_helper.asm
               aRTest8Add   0x012164    program     static TCPIP Stack\BigInt_helper.asm
          aRDoResidualAdd   0x01216c    program     static TCPIP Stack\BigInt_helper.asm
        aRTestResidualAdd   0x012172    program     static TCPIP Stack\BigInt_helper.asm
           aRDoFinalCarry   0x01217a    program     static TCPIP Stack\BigInt_helper.asm
                   aRDone   0x012184    program     static TCPIP Stack\BigInt_helper.asm
                   _subBI   0x012186    program     extern TCPIP Stack\BigInt_helper.asm
             sDo8Subtract   0x0121b6    program     static TCPIP Stack\BigInt_helper.asm
           sTest8Subtract   0x0121da    program     static TCPIP Stack\BigInt_helper.asm
      sDoResidualSubtract   0x0121e2    program     static TCPIP Stack\BigInt_helper.asm
    sTestResidualSubtract   0x0121e6    program     static TCPIP Stack\BigInt_helper.asm
            sDoFinalCarry   0x0121ee    program     static TCPIP Stack\BigInt_helper.asm
                    sDone   0x0121f8    program     static TCPIP Stack\BigInt_helper.asm
                _subBIROM   0x01220a    program     extern TCPIP Stack\BigInt_helper.asm
            sRDo8Subtract   0x012236    program     static TCPIP Stack\BigInt_helper.asm
          sRTest8Subtract   0x01226a    program     static TCPIP Stack\BigInt_helper.asm
     sRDoResidualSubtract   0x012272    program     static TCPIP Stack\BigInt_helper.asm
   sRTestResidualSubtract   0x012278    program     static TCPIP Stack\BigInt_helper.asm
           sRDoFinalCarry   0x012280    program     static TCPIP Stack\BigInt_helper.asm
                   sRDone   0x01228a    program     static TCPIP Stack\BigInt_helper.asm
                  _zeroBI   0x01228c    program     extern TCPIP Stack\BigInt_helper.asm
                    zLoop   0x012298    program     static TCPIP Stack\BigInt_helper.asm
                   _msbBI   0x0122a8    program     extern TCPIP Stack\BigInt_helper.asm
                  msbLoop   0x0122b2    program     static TCPIP Stack\BigInt_helper.asm
                 msbFound   0x0122be    program     static TCPIP Stack\BigInt_helper.asm
                   _mulBI   0x0122c8    program     extern TCPIP Stack\BigInt_helper.asm
                   mLoadB   0x0122dc    program     static TCPIP Stack\BigInt_helper.asm
              mLoadBAgain   0x0122e6    program     static TCPIP Stack\BigInt_helper.asm
                   mLoopA   0x012306    program     static TCPIP Stack\BigInt_helper.asm
                    mDone   0x01232a    program     static TCPIP Stack\BigInt_helper.asm
                _mulBIROM   0x01233c    program     extern TCPIP Stack\BigInt_helper.asm
                  mRLoadB   0x01235a    program     static TCPIP Stack\BigInt_helper.asm
             mRLoadBAgain   0x01235c    program     static TCPIP Stack\BigInt_helper.asm
                  mRLoopA   0x01237a    program     static TCPIP Stack\BigInt_helper.asm
                   mRDone   0x01239e    program     static TCPIP Stack\BigInt_helper.asm
                   _sqrBI   0x0123b0    program     extern TCPIP Stack\BigInt_helper.asm
               qOuterLoop   0x0123d0    program     static TCPIP Stack\BigInt_helper.asm
                 qNextOut   0x0123fc    program     static TCPIP Stack\BigInt_helper.asm
               qInnerLoop   0x01242a    program     static TCPIP Stack\BigInt_helper.asm
               qInnerByte   0x012436    program     static TCPIP Stack\BigInt_helper.asm
               qInnerDone   0x012460    program     static TCPIP Stack\BigInt_helper.asm
                    qDone   0x01246a    program     static TCPIP Stack\BigInt_helper.asm
                   _masBI   0x01247c    program     extern TCPIP Stack\BigInt_helper.asm
             masLoop4Init   0x012498    program     static TCPIP Stack\BigInt_helper.asm
                 masLoop4   0x0124b2    program     static TCPIP Stack\BigInt_helper.asm
              masLoopInit   0x012506    program     static TCPIP Stack\BigInt_helper.asm
                  masLoop   0x01250a    program     static TCPIP Stack\BigInt_helper.asm
           masFinalBorrow   0x012522    program     static TCPIP Stack\BigInt_helper.asm
                _masBIROM   0x012536    program     extern TCPIP Stack\BigInt_helper.asm
            masRLoop4Init   0x01254e    program     static TCPIP Stack\BigInt_helper.asm
                masRLoop4   0x012568    program     static TCPIP Stack\BigInt_helper.asm
             masRLoopInit   0x0125c4    program     static TCPIP Stack\BigInt_helper.asm
                 masRLoop   0x0125c8    program     static TCPIP Stack\BigInt_helper.asm
          masRFinalBorrow   0x0125e2    program     static TCPIP Stack\BigInt_helper.asm
                  _copyBI   0x0125e6    program     extern TCPIP Stack\BigInt_helper.asm
                    cLoop   0x012604    program     static TCPIP Stack\BigInt_helper.asm
                    cZero   0x01261c    program     static TCPIP Stack\BigInt_helper.asm
                cZeroTest   0x01261e    program     static TCPIP Stack\BigInt_helper.asm
                   ARPPut   0x01263c    program     static E:\Working\VMS\Source\Keil\VMS Controller\ICON V1.1\Network\TCPIP Stack\ARP.c
                  ARPInit   0x0126f4    program     extern E:\Working\VMS\Source\Keil\VMS Controller\ICON V1.1\Network\TCPIP Stack\ARP.c
               ARPProcess   0x01270c    program     extern E:\Working\VMS\Source\Keil\VMS Controller\ICON V1.1\Network\TCPIP Stack\ARP.c
               ARPResolve   0x0128a8    program     extern E:\Working\VMS\Source\Keil\VMS Controller\ICON V1.1\Network\TCPIP Stack\ARP.c
            ARPIsResolved   0x01294a    program     extern E:\Working\VMS\Source\Keil\VMS Controller\ICON V1.1\Network\TCPIP Stack\ARP.c
            SwapARPPacket   0x0129ec    program     extern E:\Working\VMS\Source\Keil\VMS Controller\ICON V1.1\Network\TCPIP Stack\ARP.c
                   __pa_0   0x012a14    program     static E:\Working\VMS\Source\Keil\VMS Controller\ICON V1.1\Network\TCPIP Stack\ARP.c
                   __pa_1   0x012a22    program     static E:\Working\VMS\Source\Keil\VMS Controller\ICON V1.1\Network\TCPIP Stack\ARP.c
                   __pa_2   0x012a36    program     static E:\Working\VMS\Source\Keil\VMS Controller\ICON V1.1\Network\TCPIP Stack\ARP.c
                   __pa_3   0x012a40    program     static E:\Working\VMS\Source\Keil\VMS Controller\ICON V1.1\Network\TCPIP Stack\ARP.c
                   __pa_4   0x012a48    program     static E:\Working\VMS\Source\Keil\VMS Controller\ICON V1.1\Network\TCPIP Stack\ARP.c
                   __pa_5   0x012a52    program     static E:\Working\VMS\Source\Keil\VMS Controller\ICON V1.1\Network\TCPIP Stack\ARP.c
                   __pa_6   0x012a62    program     static E:\Working\VMS\Source\Keil\VMS Controller\ICON V1.1\Network\TCPIP Stack\ARP.c
                   __pa_7   0x012a6e    program     static E:\Working\VMS\Source\Keil\VMS Controller\ICON V1.1\Network\TCPIP Stack\ARP.c
                   __pa_8   0x012a7c    program     static E:\Working\VMS\Source\Keil\VMS Controller\ICON V1.1\Network\TCPIP Stack\ARP.c
                   __pa_9   0x012a98    program     static E:\Working\VMS\Source\Keil\VMS Controller\ICON V1.1\Network\TCPIP Stack\ARP.c
                  __pa_10   0x012aa0    program     static E:\Working\VMS\Source\Keil\VMS Controller\ICON V1.1\Network\TCPIP Stack\ARP.c
              IPGetHeader   0x012aaa    program     extern E:\Working\VMS\Source\Keil\VMS Controller\ICON V1.1\Network\TCPIP Stack\IP.c
              IPPutHeader   0x012bde    program     extern E:\Working\VMS\Source\Keil\VMS Controller\ICON V1.1\Network\TCPIP Stack\IP.c
            IPSetRxBuffer   0x012cd8    program     extern E:\Working\VMS\Source\Keil\VMS Controller\ICON V1.1\Network\TCPIP Stack\IP.c
             SwapIPHeader   0x012d06    program     static E:\Working\VMS\Source\Keil\VMS Controller\ICON V1.1\Network\TCPIP Stack\IP.c
                   __pa_0   0x012d24    program     static E:\Working\VMS\Source\Keil\VMS Controller\ICON V1.1\Network\TCPIP Stack\IP.c
                   __pa_1   0x012d46    program     static E:\Working\VMS\Source\Keil\VMS Controller\ICON V1.1\Network\TCPIP Stack\IP.c
                   __pa_2   0x012d4c    program     static E:\Working\VMS\Source\Keil\VMS Controller\ICON V1.1\Network\TCPIP Stack\IP.c
                   __pa_3   0x012d62    program     static E:\Working\VMS\Source\Keil\VMS Controller\ICON V1.1\Network\TCPIP Stack\IP.c
                   __pa_4   0x012d6c    program     static E:\Working\VMS\Source\Keil\VMS Controller\ICON V1.1\Network\TCPIP Stack\IP.c
                   __pa_5   0x012d76    program     static E:\Working\VMS\Source\Keil\VMS Controller\ICON V1.1\Network\TCPIP Stack\IP.c
                   __pa_6   0x012d7e    program     static E:\Working\VMS\Source\Keil\VMS Controller\ICON V1.1\Network\TCPIP Stack\IP.c
                   __pa_7   0x012d8e    program     static E:\Working\VMS\Source\Keil\VMS Controller\ICON V1.1\Network\TCPIP Stack\IP.c
                   __pa_8   0x012d9c    program     static E:\Working\VMS\Source\Keil\VMS Controller\ICON V1.1\Network\TCPIP Stack\IP.c
                   __pa_9   0x012daa    program     static E:\Working\VMS\Source\Keil\VMS Controller\ICON V1.1\Network\TCPIP Stack\IP.c
            memcmppgm2ram   0x012dba    program     extern C:\MCC18\src\traditional\stdclib\mcmpp2r.asm
                    jLoop   0x012dd8    program     static C:\MCC18\src\traditional\stdclib\mcmpp2r.asm
              _3jContinue   0x012de4    program     static C:\MCC18\src\traditional\stdclib\mcmpp2r.asm
                   _4jEnd   0x012dee    program     static C:\MCC18\src\traditional\stdclib\mcmpp2r.asm
                     jEnd   0x012df6    program     static C:\MCC18\src\traditional\stdclib\mcmpp2r.asm
                   memcpy   0x012df8    program     extern C:\MCC18\src\traditional\stdclib\memcpy.asm
                    jLoop   0x012e20    program     static C:\MCC18\src\traditional\stdclib\memcpy.asm
              _4jContinue   0x012e2c    program     static C:\MCC18\src\traditional\stdclib\memcpy.asm
                   _5jEnd   0x012e36    program     static C:\MCC18\src\traditional\stdclib\memcpy.asm
                     jEnd   0x012e3c    program     static C:\MCC18\src\traditional\stdclib\memcpy.asm
            memcpypgm2ram   0x012e4e    program     extern C:\MCC18\src\traditional\stdclib\mcpyp2r.asm
                    jLoop   0x012e74    program     static C:\MCC18\src\traditional\stdclib\mcpyp2r.asm
              _3jContinue   0x012e80    program     static C:\MCC18\src\traditional\stdclib\mcpyp2r.asm
                   _4jEnd   0x012e8a    program     static C:\MCC18\src\traditional\stdclib\mcpyp2r.asm
                     jEnd   0x012e92    program     static C:\MCC18\src\traditional\stdclib\mcpyp2r.asm
                   memset   0x012e94    program     extern C:\MCC18\src\traditional\stdclib\memset.asm
                    jLoop   0x012ea8    program     static C:\MCC18\src\traditional\stdclib\memset.asm
              _2jContinue   0x012eb4    program     static C:\MCC18\src\traditional\stdclib\memset.asm
                   _3jEnd   0x012ebe    program     static C:\MCC18\src\traditional\stdclib\memset.asm
                     jEnd   0x012ec6    program     static C:\MCC18\src\traditional\stdclib\memset.asm
                   strcat   0x012ec8    program     extern C:\MCC18\src\traditional\stdclib\strcat.asm
                jNullLoop   0x012ef0    program     static C:\MCC18\src\traditional\stdclib\strcat.asm
                    jLoop   0x012ef6    program     static C:\MCC18\src\traditional\stdclib\strcat.asm
                   strcmp   0x012f10    program     extern C:\MCC18\src\traditional\stdclib\strcmp.asm
                    jLoop   0x012f30    program     static C:\MCC18\src\traditional\stdclib\strcmp.asm
                     jEnd   0x012f3a    program     static C:\MCC18\src\traditional\stdclib\strcmp.asm
            strcmppgm2ram   0x012f50    program     extern C:\MCC18\src\traditional\stdclib\scmpp2r.asm
                    jLoop   0x012f6e    program     static C:\MCC18\src\traditional\stdclib\scmpp2r.asm
                     jEnd   0x012f7a    program     static C:\MCC18\src\traditional\stdclib\scmpp2r.asm
            strcpypgm2ram   0x012f7c    program     extern C:\MCC18\src\traditional\stdclib\scpyp2r.asm
                    jLoop   0x012fa2    program     static C:\MCC18\src\traditional\stdclib\scpyp2r.asm
                     jEnd   0x012fac    program     static C:\MCC18\src\traditional\stdclib\scpyp2r.asm
                   strlen   0x012fae    program     extern C:\MCC18\src\traditional\stdclib\strlen.asm
                    jLoop   0x012fbe    program     static C:\MCC18\src\traditional\stdclib\strlen.asm
                     jEnd   0x012fc8    program     static C:\MCC18\src\traditional\stdclib\strlen.asm
                strlenpgm   0x012fca    program     extern C:\MCC18\src\traditional\stdclib\slenpgm.asm
                    jLoop   0x012fe8    program     static C:\MCC18\src\traditional\stdclib\slenpgm.asm
                   _2jEnd   0x012ffe    program     static C:\MCC18\src\traditional\stdclib\slenpgm.asm
                     jEnd   0x013000    program     static C:\MCC18\src\traditional\stdclib\slenpgm.asm
                   strupr   0x013014    program     extern C:\MCC18\src\traditional\stdclib\strupr.asm
                    jLoop   0x013028    program     static C:\MCC18\src\traditional\stdclib\strupr.asm
                    jSkip   0x013038    program     static C:\MCC18\src\traditional\stdclib\strupr.asm
                     jEnd   0x01303c    program     static C:\MCC18\src\traditional\stdclib\strupr.asm
        BerkeleyTCPClient   0x01303e    program     extern E:\Working\VMS\Source\Keil\VMS Controller\ICON V1.1\Network\BerkeleyTCPClient.c
                   __pa_0   0x013228    program     static E:\Working\VMS\Source\Keil\VMS Controller\ICON V1.1\Network\BerkeleyTCPClient.c
                   __pa_1   0x013254    program     static E:\Working\VMS\Source\Keil\VMS Controller\ICON V1.1\Network\BerkeleyTCPClient.c
                   __pa_2   0x013274    program     static E:\Working\VMS\Source\Keil\VMS Controller\ICON V1.1\Network\BerkeleyTCPClient.c
                   __pa_3   0x01328a    program     static E:\Working\VMS\Source\Keil\VMS Controller\ICON V1.1\Network\BerkeleyTCPClient.c
                   __pa_4   0x01329c    program     static E:\Working\VMS\Source\Keil\VMS Controller\ICON V1.1\Network\BerkeleyTCPClient.c
               init_uart1   0x0132a6    program     extern E:\Working\VMS\Source\Keil\VMS Controller\ICON V1.1\Network\uart.c
          ___for_lbl00003   0x0132e2    program     static                          
          ___for_lbl00001   0x0132f6    program     static                          
       ___return_lbl00000   0x013300    program     static                          
          ___for_lbl00002   0x013300    program     static                          
             deinit_uart1   0x013314    program     extern E:\Working\VMS\Source\Keil\VMS Controller\ICON V1.1\Network\uart.c
               uart1_putc   0x013320    program     extern E:\Working\VMS\Source\Keil\VMS Controller\ICON V1.1\Network\uart.c
       uart1_putROMString   0x01332e    program     extern E:\Working\VMS\Source\Keil\VMS Controller\ICON V1.1\Network\uart.c
          uart1_putString   0x013348    program     extern E:\Working\VMS\Source\Keil\VMS Controller\ICON V1.1\Network\uart.c
               uart1_getc   0x01336c    program     extern E:\Working\VMS\Source\Keil\VMS Controller\ICON V1.1\Network\uart.c
               init_uart2   0x013370    program     extern E:\Working\VMS\Source\Keil\VMS Controller\ICON V1.1\Network\uart.c
          ___for_lbl00022   0x0133aa    program     static                          
          ___for_lbl00020   0x0133be    program     static                          
          ___for_lbl00021   0x0133c8    program     static                          
       ___return_lbl00019   0x0133c8    program     static                          
             deinit_uart2   0x0133dc    program     extern E:\Working\VMS\Source\Keil\VMS Controller\ICON V1.1\Network\uart.c
               uart2_putc   0x0133e8    program     extern E:\Working\VMS\Source\Keil\VMS Controller\ICON V1.1\Network\uart.c
       uart2_putROMString   0x0133f6    program     extern E:\Working\VMS\Source\Keil\VMS Controller\ICON V1.1\Network\uart.c
          uart2_putString   0x013410    program     extern E:\Working\VMS\Source\Keil\VMS Controller\ICON V1.1\Network\uart.c
               uart2_getc   0x013434    program     extern E:\Working\VMS\Source\Keil\VMS Controller\ICON V1.1\Network\uart.c
                   __pa_0   0x013438    program     static E:\Working\VMS\Source\Keil\VMS Controller\ICON V1.1\Network\uart.c
                   __pa_1   0x013462    program     static E:\Working\VMS\Source\Keil\VMS Controller\ICON V1.1\Network\uart.c
                   __pa_2   0x01346c    program     static E:\Working\VMS\Source\Keil\VMS Controller\ICON V1.1\Network\uart.c
                   __pa_3   0x013474    program     static E:\Working\VMS\Source\Keil\VMS Controller\ICON V1.1\Network\uart.c
                StackInit   0x013484    program     extern E:\Working\VMS\Source\Keil\VMS Controller\ICON V1.1\Network\TCPIP Stack\StackTsk.c
                StackTask   0x0134d8    program     extern E:\Working\VMS\Source\Keil\VMS Controller\ICON V1.1\Network\TCPIP Stack\StackTsk.c
        StackApplications   0x0135ec    program     extern E:\Working\VMS\Source\Keil\VMS Controller\ICON V1.1\Network\TCPIP Stack\StackTsk.c
                   __pa_0   0x0135f8    program     static E:\Working\VMS\Source\Keil\VMS Controller\ICON V1.1\Network\TCPIP Stack\StackTsk.c
                   __pa_1   0x013608    program     static E:\Working\VMS\Source\Keil\VMS Controller\ICON V1.1\Network\TCPIP Stack\StackTsk.c
                   __pa_2   0x013614    program     static E:\Working\VMS\Source\Keil\VMS Controller\ICON V1.1\Network\TCPIP Stack\StackTsk.c
                     atol   0x01361e    program     extern C:\MCC18\src\traditional\stdclib\atol.asm
                  jSkipWS   0x013654    program     static C:\MCC18\src\traditional\stdclib\atol.asm
                 jSkipWS1   0x013666    program     static C:\MCC18\src\traditional\stdclib\atol.asm
                 jTstSign   0x01366a    program     static C:\MCC18\src\traditional\stdclib\atol.asm
                jTstSign1   0x013676    program     static C:\MCC18\src\traditional\stdclib\atol.asm
                jTstSign2   0x01367c    program     static C:\MCC18\src\traditional\stdclib\atol.asm
                    jLoop   0x01367e    program     static C:\MCC18\src\traditional\stdclib\atol.asm
                jTstSign3   0x01367e    program     static C:\MCC18\src\traditional\stdclib\atol.asm
                 jEndLoop   0x01370c    program     static C:\MCC18\src\traditional\stdclib\atol.asm
                  _14jEnd   0x01373c    program     static C:\MCC18\src\traditional\stdclib\atol.asm
                     jEnd   0x01373c    program     static C:\MCC18\src\traditional\stdclib\atol.asm
                    srand   0x013774    program     extern C:\MCC18\src\traditional\stdclib\rand.asm
                     rand   0x013782    program     extern C:\MCC18\src\traditional\stdclib\rand.asm
            flashReadByte   0x0137b0    program     extern E:\Working\VMS\Source\Keil\VMS Controller\ICON V1.1\Network\flash.c
       ___return_lbl00000   0x0137d8    program     static                          
           flashReadBlock   0x0137e2    program     extern E:\Working\VMS\Source\Keil\VMS Controller\ICON V1.1\Network\flash.c
          ___for_lbl00004   0x013808    program     static                          
          ___for_lbl00002   0x01385e    program     static                          
          ___for_lbl00003   0x013868    program     static                          
       ___return_lbl00001   0x013868    program     static                          
          flashEraseBlock   0x01387c    program     extern E:\Working\VMS\Source\Keil\VMS Controller\ICON V1.1\Network\flash.c
       ___return_lbl00005   0x0138aa    program     static                          
          flashWriteBlock   0x0138b2    program     extern E:\Working\VMS\Source\Keil\VMS Controller\ICON V1.1\Network\flash.c
          ___for_lbl00009   0x0138d8    program     static                          
          ___for_lbl00007   0x013904    program     static                          
          ___for_lbl00008   0x013908    program     static                          
        ___while_lbl00010   0x01391a    program     static                          
        ___while_lbl00011   0x01391e    program     static                          
       ___return_lbl00006   0x013922    program     static                          
                 TickInit   0x013936    program     extern E:\Working\VMS\Source\Keil\VMS Controller\ICON V1.1\Network\TCPIP Stack\Tick.c
           ___do_lbl00004   0x013946    program     static                          
              GetTickCopy   0x013946    program     static E:\Working\VMS\Source\Keil\VMS Controller\ICON V1.1\Network\TCPIP Stack\Tick.c
           ___do_lbl00002   0x013964    program     static                          
           ___do_lbl00003   0x013968    program     static                          
       ___return_lbl00001   0x01396a    program     static                          
                  TickGet   0x01396c    program     extern E:\Working\VMS\Source\Keil\VMS Controller\ICON V1.1\Network\TCPIP Stack\Tick.c
            TickGetDiv256   0x013980    program     extern E:\Working\VMS\Source\Keil\VMS Controller\ICON V1.1\Network\TCPIP Stack\Tick.c
            TickGetDiv64K   0x0139a4    program     extern E:\Working\VMS\Source\Keil\VMS Controller\ICON V1.1\Network\TCPIP Stack\Tick.c
TickConvertToMilliseconds   0x0139c8    program     extern E:\Working\VMS\Source\Keil\VMS Controller\ICON V1.1\Network\TCPIP Stack\Tick.c
               TickUpdate   0x013a04    program     extern E:\Working\VMS\Source\Keil\VMS Controller\ICON V1.1\Network\TCPIP Stack\Tick.c
                   __pa_0   0x013a18    program     static E:\Working\VMS\Source\Keil\VMS Controller\ICON V1.1\Network\TCPIP Stack\Tick.c
                   __pa_1   0x013a32    program     static E:\Working\VMS\Source\Keil\VMS Controller\ICON V1.1\Network\TCPIP Stack\Tick.c
                   __pa_2   0x013a42    program     static E:\Working\VMS\Source\Keil\VMS Controller\ICON V1.1\Network\TCPIP Stack\Tick.c
                 FXD0808S   0x013a4a    program     extern C:\MCC18\src\traditional\math\fxd0808s.asm
                  DA0808S   0x013a56    program     static C:\MCC18\src\traditional\math\fxd0808s.asm
                   D0808S   0x013a60    program     static C:\MCC18\src\traditional\math\fxd0808s.asm
                 D0808SOK   0x013a6a    program     static C:\MCC18\src\traditional\math\fxd0808s.asm
                D0808SNEG   0x013a6e    program     static C:\MCC18\src\traditional\math\fxd0808s.asm
                  D0808SX   0x013a74    program     static C:\MCC18\src\traditional\math\fxd0808s.asm
                 FXM1616U   0x013a7e    program     extern C:\MCC18\src\traditional\math\fxm1616u.asm
                 FXM2424U   0x013aba    program     extern C:\MCC18\src\traditional\math\fxm2424u.asm
                _do_cinit   0x013b4c    program     extern C:\MCC18\src\traditional\startup\c018i.c
                     test   0x013b66    program     static                          
                copy_loop   0x013bbe    program     static                          
            copy_one_byte   0x013bc4    program     static                          
             done_copying   0x013bd2    program     static                          
       ___return_lbl00002   0x013be8    program     static                          
                     done   0x013be8    program     static                          
                HTTP_CRLF   0x013bea    program     static E:\Working\VMS\Source\Keil\VMS Controller\ICON V1.1\Network\TCPIP Stack\HTTP2.c
       httpFileExtensions   0x013bed    program     static E:\Working\VMS\Source\Keil\VMS Controller\ICON V1.1\Network\TCPIP Stack\HTTP2.c
         httpContentTypes   0x013c11    program     static E:\Working\VMS\Source\Keil\VMS Controller\ICON V1.1\Network\TCPIP Stack\HTTP2.c
      HTTPResponseHeaders   0x013c35    program     static E:\Working\VMS\Source\Keil\VMS Controller\ICON V1.1\Network\TCPIP Stack\HTTP2.c
       HTTPRequestHeaders   0x013c53    program     static E:\Working\VMS\Source\Keil\VMS Controller\ICON V1.1\Network\TCPIP Stack\HTTP2.c
                 FXD3232U   0x013c5c    program     extern C:\MCC18\src\traditional\math\fxd3232u.c
                     loop   0x013c6a    program     static                          
                   _false   0x013c9e    program     static                          
       ___return_lbl00000   0x013ca2    program     static                          
                 FXD1616U   0x013ca4    program     extern C:\MCC18\src\traditional\math\fxd1616u.c
                     loop   0x013cae    program     static                          
                  endloop   0x013cca    program     static                          
       ___return_lbl00000   0x013cce    program     static                          
            __zero_memory   0x013cd0    program     extern C:\MCC18\src\traditional\proc\p18F97J60.asm
                   loop_h   0x013cea    program     static C:\MCC18\src\traditional\proc\p18F97J60.asm
               zero_block   0x013cea    program     static C:\MCC18\src\traditional\proc\p18F97J60.asm
                compare_l   0x013cf2    program     static C:\MCC18\src\traditional\proc\p18F97J60.asm
                   loop_l   0x013cf4    program     static C:\MCC18\src\traditional\proc\p18F97J60.asm
              Delay1KTCYx   0x013cfc    program     extern C:\MCC18\src\traditional\delays\d1ktcyx.asm
                     D1Kx   0x013d06    program     static C:\MCC18\src\traditional\delays\d1ktcyx.asm
                    D1K_1   0x013d08    program     static C:\MCC18\src\traditional\delays\d1ktcyx.asm
        _D1KTCYXCODE_0010   0x013d0c    program     static C:\MCC18\src\traditional\delays\d1ktcyx.asm
        _D1KTCYXCODE_0016   0x013d12    program     static C:\MCC18\src\traditional\delays\d1ktcyx.asm
                 _startup   0x013d1c    program     extern C:\MCC18\src\traditional\startup\c018i.c
                     loop   0x013d2c    program     static                          
       ___return_lbl00001   0x013d36    program     static                          
                 FXD0808U   0x013d38    program     extern C:\MCC18\src\traditional\math\fxd0808u.c
                     loop   0x013d40    program     static                          
                  endloop   0x013d4e    program     static                          
       ___return_lbl00000   0x013d52    program     static                          
     TCPSocketInitializer   0x013d54    program     extern E:\Working\VMS\Source\Keil\VMS Controller\ICON V1.1\Network\TCPIPConfig.h
           CharacterArray   0x013d66    program     extern E:\Working\VMS\Source\Keil\VMS Controller\ICON V1.1\Network\uart.c
               __config_0   0x01fff8    program     static E:\Working\VMS\Source\Keil\VMS Controller\ICON V1.1\Network\main.c
               __config_1   0x01fffa    program     static E:\Working\VMS\Source\Keil\VMS Controller\ICON V1.1\Network\main.c
               __config_2   0x01fffb    program     static E:\Working\VMS\Source\Keil\VMS Controller\ICON V1.1\Network\main.c
               __config_3   0x01fffd    program     static E:\Working\VMS\Source\Keil\VMS Controller\ICON V1.1\Network\main.c
                     SIGN   0x000000       data     extern C:\MCC18\src\traditional\math\cmath18.asm
                __FPFLAGS   0x000001       data     extern C:\MCC18\src\traditional\math\cmath18.asm
            __FPFLAGSbits   0x000001       data     extern C:\MCC18\src\traditional\math\cmath18.asm
                 __AARGB7   0x000002       data     extern C:\MCC18\src\traditional\math\aarg.asm
                  __REMB3   0x000002       data     extern C:\MCC18\src\traditional\math\aarg.asm
                  __REMB2   0x000003       data     extern C:\MCC18\src\traditional\math\aarg.asm
                 __AARGB6   0x000003       data     extern C:\MCC18\src\traditional\math\aarg.asm
                  __REMB1   0x000004       data     extern C:\MCC18\src\traditional\math\aarg.asm
                 __AARGB5   0x000004       data     extern C:\MCC18\src\traditional\math\aarg.asm
                  __REMB0   0x000005       data     extern C:\MCC18\src\traditional\math\aarg.asm
                 __AARGB4   0x000005       data     extern C:\MCC18\src\traditional\math\aarg.asm
                 __AARGB3   0x000006       data     extern C:\MCC18\src\traditional\math\aarg.asm
                 __AARGB2   0x000007       data     extern C:\MCC18\src\traditional\math\aarg.asm
                 __AARGB1   0x000008       data     extern C:\MCC18\src\traditional\math\aarg.asm
                 __AARGB0   0x000009       data     extern C:\MCC18\src\traditional\math\aarg.asm
                   __AEXP   0x00000a       data     extern C:\MCC18\src\traditional\math\aarg.asm
                 __BARGB3   0x00000b       data     extern C:\MCC18\src\traditional\math\barg.asm
                 __BARGB2   0x00000c       data     extern C:\MCC18\src\traditional\math\barg.asm
                 __BARGB1   0x00000d       data     extern C:\MCC18\src\traditional\math\barg.asm
                 __BARGB0   0x00000e       data     extern C:\MCC18\src\traditional\math\barg.asm
                   __BEXP   0x00000f       data     extern C:\MCC18\src\traditional\math\barg.asm
                 __TEMPB3   0x000010       data     extern C:\MCC18\src\traditional\math\temparg.asm
                 __TEMPB2   0x000011       data     extern C:\MCC18\src\traditional\math\temparg.asm
                 __TEMPB1   0x000012       data     extern C:\MCC18\src\traditional\math\temparg.asm
                 __TEMPB0   0x000013       data     extern C:\MCC18\src\traditional\math\temparg.asm
                   __TEMP   0x000013       data     extern C:\MCC18\src\traditional\math\temparg.asm
                  __tmp_0   0x000014       data     static E:\Working\VMS\Source\Keil\VMS Controller\ICON V1.1\Network\TCPIP Stack\DHCP.c
                  __tmp_0   0x000014       data     static E:\Working\VMS\Source\Keil\VMS Controller\ICON V1.1\Network\TCPIP Stack\BerkeleyAPI.c
                  __tmp_0   0x000014       data     static E:\Working\VMS\Source\Keil\VMS Controller\ICON V1.1\Network\main.c
                  __tmp_0   0x000014       data     static E:\Working\VMS\Source\Keil\VMS Controller\ICON V1.1\Network\flash.c
                  __tmp_0   0x000014       data     static E:\Working\VMS\Source\Keil\VMS Controller\ICON V1.1\Network\CustomHTTPApp.c
                  __tmp_0   0x000014       data     static E:\Working\VMS\Source\Keil\VMS Controller\ICON V1.1\Network\gprs.c
                  __tmp_0   0x000014       data     static E:\Working\VMS\Source\Keil\VMS Controller\ICON V1.1\Network\uart.c
                  __tmp_0   0x000014       data     static E:\Working\VMS\Source\Keil\VMS Controller\ICON V1.1\Network\BerkeleyTCPClient.c
                  __tmp_0   0x000014       data     static E:\Working\VMS\Source\Keil\VMS Controller\ICON V1.1\Network\TCPIP Stack\ARP.c
                  __tmp_0   0x000014       data     static E:\Working\VMS\Source\Keil\VMS Controller\ICON V1.1\Network\TCPIP Stack\ETH97J60.c
                  __tmp_0   0x000014       data     static E:\Working\VMS\Source\Keil\VMS Controller\ICON V1.1\Network\TCPIP Stack\Helpers.c
                  __tmp_0   0x000014       data     static E:\Working\VMS\Source\Keil\VMS Controller\ICON V1.1\Network\TCPIP Stack\IP.c
                  __tmp_0   0x000014       data     static E:\Working\VMS\Source\Keil\VMS Controller\ICON V1.1\Network\TCPIP Stack\TCP.c
                  __tmp_0   0x000014       data     static E:\Working\VMS\Source\Keil\VMS Controller\ICON V1.1\Network\TCPIP Stack\UDP.c
                  __tmp_0   0x000014       data     static E:\Working\VMS\Source\Keil\VMS Controller\ICON V1.1\Network\TCPIP Stack\HTTP2.c
                  __tmp_0   0x000014       data     static E:\Working\VMS\Source\Keil\VMS Controller\ICON V1.1\Network\TCPIP Stack\MPFS2.c
                  __tmp_0   0x000014       data     static E:\Working\VMS\Source\Keil\VMS Controller\ICON V1.1\Network\TCPIP Stack\StackTsk.c
                  __tmp_2   0x000022       data     static E:\Working\VMS\Source\Keil\VMS Controller\ICON V1.1\Network\main.c
            DelayCounter1   0x000024       data     extern C:\MCC18\src\traditional\delays\delayd1.asm
                 NextPort   0x000060       data     static E:\Working\VMS\Source\Keil\VMS Controller\ICON V1.1\Network\TCPIP Stack\TCP.c
                    MyTCB   0x000062       data     static E:\Working\VMS\Source\Keil\VMS Controller\ICON V1.1\Network\TCPIP Stack\TCP.c
                MyTCBStub   0x000089       data     static E:\Working\VMS\Source\Keil\VMS Controller\ICON V1.1\Network\TCPIP Stack\TCP.c
               RemoteInfo   0x0000a5       data     static E:\Working\VMS\Source\Keil\VMS Controller\ICON V1.1\Network\TCPIP Stack\TCP.c
                 SYNQueue   0x0000b1       data     static E:\Working\VMS\Source\Keil\VMS Controller\ICON V1.1\Network\TCPIP Stack\TCP.c
                      _iA   0x0000ed       data     extern TCPIP Stack\BigInt_helper.asm
                      _xA   0x0000ef       data     extern TCPIP Stack\BigInt_helper.asm
                      _iB   0x0000f1       data     extern TCPIP Stack\BigInt_helper.asm
                      _xB   0x0000f3       data     extern TCPIP Stack\BigInt_helper.asm
                     _iBr   0x0000f5       data     extern TCPIP Stack\BigInt_helper.asm
                     _xBr   0x0000f8       data     extern TCPIP Stack\BigInt_helper.asm
                      _iR   0x0000fb       data     extern TCPIP Stack\BigInt_helper.asm
                      _wC   0x0000fd       data     extern TCPIP Stack\BigInt_helper.asm
                CarryByte   0x0000fe       data     static TCPIP Stack\BigInt_helper.asm
                   CarryH   0x0000ff       data     static TCPIP Stack\BigInt_helper.asm
               DHCPClient   0x000100       data     static E:\Working\VMS\Source\Keil\VMS Controller\ICON V1.1\Network\TCPIP Stack\DHCP.c
            UDPSocketInfo   0x00011c       data     extern E:\Working\VMS\Source\Keil\VMS Controller\ICON V1.1\Network\TCPIP Stack\UDP.c
          activeUDPSocket   0x00012a       data     extern E:\Working\VMS\Source\Keil\VMS Controller\ICON V1.1\Network\TCPIP Stack\UDP.c
               UDPTxCount   0x00012b       data     extern E:\Working\VMS\Source\Keil\VMS Controller\ICON V1.1\Network\TCPIP Stack\UDP.c
               UDPRxCount   0x00012d       data     extern E:\Working\VMS\Source\Keil\VMS Controller\ICON V1.1\Network\TCPIP Stack\UDP.c
               wPutOffset   0x00012f       data     static E:\Working\VMS\Source\Keil\VMS Controller\ICON V1.1\Network\TCPIP Stack\UDP.c
               wGetOffset   0x000131       data     static E:\Working\VMS\Source\Keil\VMS Controller\ICON V1.1\Network\TCPIP Stack\UDP.c
                    Flags   0x000133       data     static E:\Working\VMS\Source\Keil\VMS Controller\ICON V1.1\Network\TCPIP Stack\UDP.c
                 NextPort   0x000134       data     static E:\Working\VMS\Source\Keil\VMS Controller\ICON V1.1\Network\TCPIP Stack\UDP.c
                  curHTTP   0x000200       data     extern E:\Working\VMS\Source\Keil\VMS Controller\ICON V1.1\Network\TCPIP Stack\HTTP2.c
                httpStubs   0x00027f       data     extern E:\Working\VMS\Source\Keil\VMS Controller\ICON V1.1\Network\TCPIP Stack\HTTP2.c
                curHTTPID   0x000281       data     extern E:\Working\VMS\Source\Keil\VMS Controller\ICON V1.1\Network\TCPIP Stack\HTTP2.c
                     prom   0x000282       data     static C:\MCC18\src\traditional\startup\c018i.c
                curr_byte   0x000285       data     static C:\MCC18\src\traditional\startup\c018i.c
               curr_entry   0x000287       data     static C:\MCC18\src\traditional\startup\c018i.c
                 data_ptr   0x000289       data     static C:\MCC18\src\traditional\startup\c018i.c
                 toRotate   0x00028c       data     extern E:\Working\VMS\Source\Keil\VMS Controller\ICON V1.1\Network\TCPIP Stack\Helpers.c
             vTickReading   0x000290       data     static E:\Working\VMS\Source\Keil\VMS Controller\ICON V1.1\Network\TCPIP Stack\Tick.c
           BSDClientState   0x000296       data     extern E:\Working\VMS\Source\Keil\VMS Controller\ICON V1.1\Network\BerkeleyTCPClient.c
                  tCount1   0x000297       data     static E:\Working\VMS\Source\Keil\VMS Controller\ICON V1.1\Network\BerkeleyTCPClient.c
                  tCount2   0x000299       data     static E:\Working\VMS\Source\Keil\VMS Controller\ICON V1.1\Network\BerkeleyTCPClient.c
                startTick   0x00029b       data     static E:\Working\VMS\Source\Keil\VMS Controller\ICON V1.1\Network\TCPIP Stack\BerkeleyAPI.c
              IPHeaderLen   0x00029f       data     static E:\Working\VMS\Source\Keil\VMS Controller\ICON V1.1\Network\TCPIP Stack\IP.c
          dwInternalTicks   0x0002a0       data     static E:\Working\VMS\Source\Keil\VMS Controller\ICON V1.1\Network\TCPIP Stack\Tick.c
                 fGetIMEI   0x0002a4       data     extern E:\Working\VMS\Source\Keil\VMS Controller\ICON V1.1\Network\CustomHTTPApp.c
              lastSuccess   0x0002a5       data     static E:\Working\VMS\Source\Keil\VMS Controller\ICON V1.1\Network\CustomHTTPApp.c
              lastFailure   0x0002a6       data     static E:\Working\VMS\Source\Keil\VMS Controller\ICON V1.1\Network\CustomHTTPApp.c
                 read_flg   0x0002a7       data     extern E:\Working\VMS\Source\Keil\VMS Controller\ICON V1.1\Network\CustomHTTPApp.c
            LastPutSocket   0x0002a8       data     static E:\Working\VMS\Source\Keil\VMS Controller\ICON V1.1\Network\TCPIP Stack\UDP.c
         SocketWithRxData   0x0002a9       data     static E:\Working\VMS\Source\Keil\VMS Controller\ICON V1.1\Network\TCPIP Stack\UDP.c
              hCurrentTCP   0x0002aa       data     static E:\Working\VMS\Source\Keil\VMS Controller\ICON V1.1\Network\TCPIP Stack\TCP.c
                 hLastTCB   0x0002ab       data     static E:\Working\VMS\Source\Keil\VMS Controller\ICON V1.1\Network\TCPIP Stack\TCP.c
              _Identifier   0x0002ac       data     static E:\Working\VMS\Source\Keil\VMS Controller\ICON V1.1\Network\TCPIP Stack\IP.c
          gAutoPortNumber   0x0002ae       data     static E:\Working\VMS\Source\Keil\VMS Controller\ICON V1.1\Network\TCPIP Stack\BerkeleyAPI.c
           bLastLinkState   0x0002b0       data     static E:\Working\VMS\Source\Keil\VMS Controller\ICON V1.1\Network\TCPIP Stack\StackTsk.c
DHCPClientInitializedOnce   0x0002b1       data     extern E:\Working\VMS\Source\Keil\VMS Controller\ICON V1.1\Network\TCPIP Stack\DHCP.c
                    smARP   0x0002b2       data     static E:\Working\VMS\Source\Keil\VMS Controller\ICON V1.1\Network\TCPIP Stack\ARP.c
                      rts   0x000310       data     extern E:\Working\VMS\Source\Keil\VMS Controller\ICON V1.1\Network\main.c
                 rcvCount   0x000317       data     extern E:\Working\VMS\Source\Keil\VMS Controller\ICON V1.1\Network\main.c
                simResCnt   0x000319       data     extern E:\Working\VMS\Source\Keil\VMS Controller\ICON V1.1\Network\main.c
               fSendState   0x00031a       data     extern E:\Working\VMS\Source\Keil\VMS Controller\ICON V1.1\Network\main.c
                 fReceive   0x00031b       data     extern E:\Working\VMS\Source\Keil\VMS Controller\ICON V1.1\Network\main.c
                fSendData   0x00031c       data     extern E:\Working\VMS\Source\Keil\VMS Controller\ICON V1.1\Network\main.c
                  fConfig   0x00031d       data     extern E:\Working\VMS\Source\Keil\VMS Controller\ICON V1.1\Network\main.c
              fFactoryRST   0x00031e       data     extern E:\Working\VMS\Source\Keil\VMS Controller\ICON V1.1\Network\main.c
               fConfigSIM   0x00031f       data     extern E:\Working\VMS\Source\Keil\VMS Controller\ICON V1.1\Network\main.c
     fIshwConfigRequested   0x000320       data     extern E:\Working\VMS\Source\Keil\VMS Controller\ICON V1.1\Network\main.c
                  timeOut   0x000321       data     extern E:\Working\VMS\Source\Keil\VMS Controller\ICON V1.1\Network\main.c
                  nwState   0x000323       data     extern E:\Working\VMS\Source\Keil\VMS Controller\ICON V1.1\Network\main.c
                simStatus   0x000324       data     extern E:\Working\VMS\Source\Keil\VMS Controller\ICON V1.1\Network\main.c
                 serverIP   0x000325       data     extern E:\Working\VMS\Source\Keil\VMS Controller\ICON V1.1\Network\main.c
                   opPort   0x000335       data     extern E:\Working\VMS\Source\Keil\VMS Controller\ICON V1.1\Network\main.c
               reportPort   0x00033b       data     extern E:\Working\VMS\Source\Keil\VMS Controller\ICON V1.1\Network\main.c
                 username   0x000341       data     extern E:\Working\VMS\Source\Keil\VMS Controller\ICON V1.1\Network\main.c
                 password   0x000381       data     extern E:\Working\VMS\Source\Keil\VMS Controller\ICON V1.1\Network\main.c
             resetCounter   0x0003c1       data     extern E:\Working\VMS\Source\Keil\VMS Controller\ICON V1.1\Network\main.c
              mainVersion   0x0003c5       data     extern E:\Working\VMS\Source\Keil\VMS Controller\ICON V1.1\Network\main.c
               dplVersion   0x0003c7       data     extern E:\Working\VMS\Source\Keil\VMS Controller\ICON V1.1\Network\main.c
                        t   0x0003c9       data     static E:\Working\VMS\Source\Keil\VMS Controller\ICON V1.1\Network\main.c
           BSDSocketArray   0x0003cd       data     extern E:\Working\VMS\Source\Keil\VMS Controller\ICON V1.1\Network\TCPIP Stack\BerkeleyAPI.c
                    Cache   0x0003eb       data     static E:\Working\VMS\Source\Keil\VMS Controller\ICON V1.1\Network\TCPIP Stack\ARP.c
                   Target   0x0003f5       data     static E:\Working\VMS\Source\Keil\VMS Controller\ICON V1.1\Network\TCPIP Stack\ARP.c
                 fSendCmd   0x0003ff       data     extern E:\Working\VMS\Source\Keil\VMS Controller\ICON V1.1\Network\gprs.c
                AppConfig   0x000600       data     extern E:\Working\VMS\Source\Keil\VMS Controller\ICON V1.1\Network\main.c
                 hwConfig   0x00063d       data     extern E:\Working\VMS\Source\Keil\VMS Controller\ICON V1.1\Network\main.c
                 wnConfig   0x000652       data     extern E:\Working\VMS\Source\Keil\VMS Controller\ICON V1.1\Network\main.c
                  rcvData   0x000653       data     extern E:\Working\VMS\Source\Keil\VMS Controller\ICON V1.1\Network\main.c
                 IPServer   0x000a53       data     extern E:\Working\VMS\Source\Keil\VMS Controller\ICON V1.1\Network\main.c
         bsdOperateSocket   0x000a57       data     extern E:\Working\VMS\Source\Keil\VMS Controller\ICON V1.1\Network\BerkeleyTCPClient.c
           bsdEventSocket   0x000a58       data     extern E:\Working\VMS\Source\Keil\VMS Controller\ICON V1.1\Network\BerkeleyTCPClient.c
               recvBuffer   0x000a59       data     extern E:\Working\VMS\Source\Keil\VMS Controller\ICON V1.1\Network\BerkeleyTCPClient.c
                     addr   0x000c59       data     static E:\Working\VMS\Source\Keil\VMS Controller\ICON V1.1\Network\BerkeleyTCPClient.c
                 TCBStubs   0x000e00       data     static E:\Working\VMS\Source\Keil\VMS Controller\ICON V1.1\Network\TCPIP Stack\TCP.c
                        s   0x000e54       data     static E:\Working\VMS\Source\Keil\VMS Controller\ICON V1.1\Network\gprs.c
                  smStack   0x000e75       data     static E:\Working\VMS\Source\Keil\VMS Controller\ICON V1.1\Network\TCPIP Stack\StackTsk.c
               remoteNode   0x000e76       data     extern E:\Working\VMS\Source\Keil\VMS Controller\ICON V1.1\Network\TCPIP Stack\StackTsk.c
                   MAADR5   0x000e80       data     extern C:\MCC18\src\traditional\proc\p18F97J60.asm
                   MAADR6   0x000e81       data     extern C:\MCC18\src\traditional\proc\p18F97J60.asm
                   MAADR3   0x000e82       data     extern C:\MCC18\src\traditional\proc\p18F97J60.asm
                   MAADR4   0x000e83       data     extern C:\MCC18\src\traditional\proc\p18F97J60.asm
                   MAADR1   0x000e84       data     extern C:\MCC18\src\traditional\proc\p18F97J60.asm
                   MAADR2   0x000e85       data     extern C:\MCC18\src\traditional\proc\p18F97J60.asm
               MISTATbits   0x000e8a       data     extern C:\MCC18\src\traditional\proc\p18F97J60.asm
                   MISTAT   0x000e8a       data     extern C:\MCC18\src\traditional\proc\p18F97J60.asm
              EFLOCONbits   0x000e97       data     extern C:\MCC18\src\traditional\proc\p18F97J60.asm
                  EFLOCON   0x000e97       data     extern C:\MCC18\src\traditional\proc\p18F97J60.asm
                    EPAUS   0x000e98       data     extern C:\MCC18\src\traditional\proc\p18F97J60.asm
                   EPAUSL   0x000e98       data     extern C:\MCC18\src\traditional\proc\p18F97J60.asm
                   EPAUSH   0x000e99       data     extern C:\MCC18\src\traditional\proc\p18F97J60.asm
                   MACON1   0x000ea0       data     extern C:\MCC18\src\traditional\proc\p18F97J60.asm
               MACON1bits   0x000ea0       data     extern C:\MCC18\src\traditional\proc\p18F97J60.asm
                   MACON3   0x000ea2       data     extern C:\MCC18\src\traditional\proc\p18F97J60.asm
               MACON3bits   0x000ea2       data     extern C:\MCC18\src\traditional\proc\p18F97J60.asm
               MACON4bits   0x000ea3       data     extern C:\MCC18\src\traditional\proc\p18F97J60.asm
                   MACON4   0x000ea3       data     extern C:\MCC18\src\traditional\proc\p18F97J60.asm
                  MABBIPG   0x000ea4       data     extern C:\MCC18\src\traditional\proc\p18F97J60.asm
                   MAIPGL   0x000ea6       data     extern C:\MCC18\src\traditional\proc\p18F97J60.asm
                    MAIPG   0x000ea6       data     extern C:\MCC18\src\traditional\proc\p18F97J60.asm
                   MAIPGH   0x000ea7       data     extern C:\MCC18\src\traditional\proc\p18F97J60.asm
                  MAMXFLL   0x000eaa       data     extern C:\MCC18\src\traditional\proc\p18F97J60.asm
                   MAMXFL   0x000eaa       data     extern C:\MCC18\src\traditional\proc\p18F97J60.asm
                  MAMXFLH   0x000eab       data     extern C:\MCC18\src\traditional\proc\p18F97J60.asm
                MICMDbits   0x000eb2       data     extern C:\MCC18\src\traditional\proc\p18F97J60.asm
                    MICMD   0x000eb2       data     extern C:\MCC18\src\traditional\proc\p18F97J60.asm
                 MIREGADR   0x000eb4       data     extern C:\MCC18\src\traditional\proc\p18F97J60.asm
                    MIWRL   0x000eb6       data     extern C:\MCC18\src\traditional\proc\p18F97J60.asm
                     MIWR   0x000eb6       data     extern C:\MCC18\src\traditional\proc\p18F97J60.asm
                    MIWRH   0x000eb7       data     extern C:\MCC18\src\traditional\proc\p18F97J60.asm
                    MIRDL   0x000eb8       data     extern C:\MCC18\src\traditional\proc\p18F97J60.asm
                     MIRD   0x000eb8       data     extern C:\MCC18\src\traditional\proc\p18F97J60.asm
                    MIRDH   0x000eb9       data     extern C:\MCC18\src\traditional\proc\p18F97J60.asm
                     EHT0   0x000ec0       data     extern C:\MCC18\src\traditional\proc\p18F97J60.asm
                     EHT1   0x000ec1       data     extern C:\MCC18\src\traditional\proc\p18F97J60.asm
                     EHT2   0x000ec2       data     extern C:\MCC18\src\traditional\proc\p18F97J60.asm
                     EHT3   0x000ec3       data     extern C:\MCC18\src\traditional\proc\p18F97J60.asm
                     EHT4   0x000ec4       data     extern C:\MCC18\src\traditional\proc\p18F97J60.asm
                     EHT5   0x000ec5       data     extern C:\MCC18\src\traditional\proc\p18F97J60.asm
                     EHT6   0x000ec6       data     extern C:\MCC18\src\traditional\proc\p18F97J60.asm
                     EHT7   0x000ec7       data     extern C:\MCC18\src\traditional\proc\p18F97J60.asm
                    EPMM0   0x000ec8       data     extern C:\MCC18\src\traditional\proc\p18F97J60.asm
                    EPMM1   0x000ec9       data     extern C:\MCC18\src\traditional\proc\p18F97J60.asm
                    EPMM2   0x000eca       data     extern C:\MCC18\src\traditional\proc\p18F97J60.asm
                    EPMM3   0x000ecb       data     extern C:\MCC18\src\traditional\proc\p18F97J60.asm
                    EPMM4   0x000ecc       data     extern C:\MCC18\src\traditional\proc\p18F97J60.asm
                    EPMM5   0x000ecd       data     extern C:\MCC18\src\traditional\proc\p18F97J60.asm
                    EPMM6   0x000ece       data     extern C:\MCC18\src\traditional\proc\p18F97J60.asm
                    EPMM7   0x000ecf       data     extern C:\MCC18\src\traditional\proc\p18F97J60.asm
                    EPMCS   0x000ed0       data     extern C:\MCC18\src\traditional\proc\p18F97J60.asm
                   EPMCSL   0x000ed0       data     extern C:\MCC18\src\traditional\proc\p18F97J60.asm
                   EPMCSH   0x000ed1       data     extern C:\MCC18\src\traditional\proc\p18F97J60.asm
                    EPMOL   0x000ed4       data     extern C:\MCC18\src\traditional\proc\p18F97J60.asm
                     EPMO   0x000ed4       data     extern C:\MCC18\src\traditional\proc\p18F97J60.asm
                    EPMOH   0x000ed5       data     extern C:\MCC18\src\traditional\proc\p18F97J60.asm
              ERXFCONbits   0x000ed8       data     extern C:\MCC18\src\traditional\proc\p18F97J60.asm
                  ERXFCON   0x000ed8       data     extern C:\MCC18\src\traditional\proc\p18F97J60.asm
                  EPKTCNT   0x000ed9       data     extern C:\MCC18\src\traditional\proc\p18F97J60.asm
                    EWRPT   0x000ee2       data     extern C:\MCC18\src\traditional\proc\p18F97J60.asm
                   EWRPTL   0x000ee2       data     extern C:\MCC18\src\traditional\proc\p18F97J60.asm
                   EWRPTH   0x000ee3       data     extern C:\MCC18\src\traditional\proc\p18F97J60.asm
                   ETXSTL   0x000ee4       data     extern C:\MCC18\src\traditional\proc\p18F97J60.asm
                    ETXST   0x000ee4       data     extern C:\MCC18\src\traditional\proc\p18F97J60.asm
                   ETXSTH   0x000ee5       data     extern C:\MCC18\src\traditional\proc\p18F97J60.asm
                   ETXNDL   0x000ee6       data     extern C:\MCC18\src\traditional\proc\p18F97J60.asm
                    ETXND   0x000ee6       data     extern C:\MCC18\src\traditional\proc\p18F97J60.asm
                   ETXNDH   0x000ee7       data     extern C:\MCC18\src\traditional\proc\p18F97J60.asm
                   ERXSTL   0x000ee8       data     extern C:\MCC18\src\traditional\proc\p18F97J60.asm
                    ERXST   0x000ee8       data     extern C:\MCC18\src\traditional\proc\p18F97J60.asm
                   ERXSTH   0x000ee9       data     extern C:\MCC18\src\traditional\proc\p18F97J60.asm
                   ERXNDL   0x000eea       data     extern C:\MCC18\src\traditional\proc\p18F97J60.asm
                    ERXND   0x000eea       data     extern C:\MCC18\src\traditional\proc\p18F97J60.asm
                   ERXNDH   0x000eeb       data     extern C:\MCC18\src\traditional\proc\p18F97J60.asm
                 ERXRDPTL   0x000eec       data     extern C:\MCC18\src\traditional\proc\p18F97J60.asm
                  ERXRDPT   0x000eec       data     extern C:\MCC18\src\traditional\proc\p18F97J60.asm
                 ERXRDPTH   0x000eed       data     extern C:\MCC18\src\traditional\proc\p18F97J60.asm
                 ERXWRPTL   0x000eee       data     extern C:\MCC18\src\traditional\proc\p18F97J60.asm
                  ERXWRPT   0x000eee       data     extern C:\MCC18\src\traditional\proc\p18F97J60.asm
                 ERXWRPTH   0x000eef       data     extern C:\MCC18\src\traditional\proc\p18F97J60.asm
                  EDMASTL   0x000ef0       data     extern C:\MCC18\src\traditional\proc\p18F97J60.asm
                   EDMAST   0x000ef0       data     extern C:\MCC18\src\traditional\proc\p18F97J60.asm
                  EDMASTH   0x000ef1       data     extern C:\MCC18\src\traditional\proc\p18F97J60.asm
                   EDMAND   0x000ef2       data     extern C:\MCC18\src\traditional\proc\p18F97J60.asm
                  EDMANDL   0x000ef2       data     extern C:\MCC18\src\traditional\proc\p18F97J60.asm
                  EDMANDH   0x000ef3       data     extern C:\MCC18\src\traditional\proc\p18F97J60.asm
                 EDMADSTL   0x000ef4       data     extern C:\MCC18\src\traditional\proc\p18F97J60.asm
                  EDMADST   0x000ef4       data     extern C:\MCC18\src\traditional\proc\p18F97J60.asm
                 EDMADSTH   0x000ef5       data     extern C:\MCC18\src\traditional\proc\p18F97J60.asm
                   EDMACS   0x000ef6       data     extern C:\MCC18\src\traditional\proc\p18F97J60.asm
                  EDMACSL   0x000ef6       data     extern C:\MCC18\src\traditional\proc\p18F97J60.asm
                  EDMACSH   0x000ef7       data     extern C:\MCC18\src\traditional\proc\p18F97J60.asm
                  EIEbits   0x000efb       data     extern C:\MCC18\src\traditional\proc\p18F97J60.asm
                      EIE   0x000efb       data     extern C:\MCC18\src\traditional\proc\p18F97J60.asm
                    ESTAT   0x000efd       data     extern C:\MCC18\src\traditional\proc\p18F97J60.asm
                ESTATbits   0x000efd       data     extern C:\MCC18\src\traditional\proc\p18F97J60.asm
                    ECON2   0x000efe       data     extern C:\MCC18\src\traditional\proc\p18F97J60.asm
                ECON2bits   0x000efe       data     extern C:\MCC18\src\traditional\proc\p18F97J60.asm
                MPFSStubs   0x000f00       data     static E:\Working\VMS\Source\Keil\VMS Controller\ICON V1.1\Network\TCPIP Stack\MPFS2.c
             isMPFSLocked   0x000f3c       data     static E:\Working\VMS\Source\Keil\VMS Controller\ICON V1.1\Network\TCPIP Stack\MPFS2.c
                 fatCache   0x000f3d       data     static E:\Working\VMS\Source\Keil\VMS Controller\ICON V1.1\Network\TCPIP Stack\MPFS2.c
               fatCacheID   0x000f53       data     static E:\Working\VMS\Source\Keil\VMS Controller\ICON V1.1\Network\TCPIP Stack\MPFS2.c
                 numFiles   0x000f55       data     static E:\Working\VMS\Source\Keil\VMS Controller\ICON V1.1\Network\TCPIP Stack\MPFS2.c
       NextPacketLocation   0x000f57       data     static E:\Working\VMS\Source\Keil\VMS Controller\ICON V1.1\Network\TCPIP Stack\ETH97J60.c
    CurrentPacketLocation   0x000f59       data     static E:\Working\VMS\Source\Keil\VMS Controller\ICON V1.1\Network\TCPIP Stack\ETH97J60.c
             WasDiscarded   0x000f5b       data     static E:\Working\VMS\Source\Keil\VMS Controller\ICON V1.1\Network\TCPIP Stack\ETH97J60.c
              wTXWatchdog   0x000f5c       data     static E:\Working\VMS\Source\Keil\VMS Controller\ICON V1.1\Network\TCPIP Stack\ETH97J60.c
                     Seed   0x000f5e       data     static C:\MCC18\src\traditional\stdclib\rand.asm
                      EIR   0x000f60       data     extern C:\MCC18\src\traditional\proc\p18F97J60.asm
                  EIRbits   0x000f60       data     extern C:\MCC18\src\traditional\proc\p18F97J60.asm
                    EDATA   0x000f61       data     extern C:\MCC18\src\traditional\proc\p18F97J60.asm
                EDATAbits   0x000f61       data     extern C:\MCC18\src\traditional\proc\p18F97J60.asm
             SSP2CON2bits   0x000f62       data     extern C:\MCC18\src\traditional\proc\p18F97J60.asm
                 SSP2CON2   0x000f62       data     extern C:\MCC18\src\traditional\proc\p18F97J60.asm
                 SSP2CON1   0x000f63       data     extern C:\MCC18\src\traditional\proc\p18F97J60.asm
             SSP2CON1bits   0x000f63       data     extern C:\MCC18\src\traditional\proc\p18F97J60.asm
                 SSP2STAT   0x000f64       data     extern C:\MCC18\src\traditional\proc\p18F97J60.asm
             SSP2STATbits   0x000f64       data     extern C:\MCC18\src\traditional\proc\p18F97J60.asm
                  SSP2ADD   0x000f65       data     extern C:\MCC18\src\traditional\proc\p18F97J60.asm
                  SSP2BUF   0x000f66       data     extern C:\MCC18\src\traditional\proc\p18F97J60.asm
                 ECCP2DEL   0x000f67       data     extern C:\MCC18\src\traditional\proc\p18F97J60.asm
             ECCP2DELbits   0x000f67       data     extern C:\MCC18\src\traditional\proc\p18F97J60.asm
              ECCP2ASbits   0x000f68       data     extern C:\MCC18\src\traditional\proc\p18F97J60.asm
                  ECCP2AS   0x000f68       data     extern C:\MCC18\src\traditional\proc\p18F97J60.asm
                 ECCP3DEL   0x000f69       data     extern C:\MCC18\src\traditional\proc\p18F97J60.asm
             ECCP3DELbits   0x000f69       data     extern C:\MCC18\src\traditional\proc\p18F97J60.asm
              ECCP3ASbits   0x000f6a       data     extern C:\MCC18\src\traditional\proc\p18F97J60.asm
                  ECCP3AS   0x000f6a       data     extern C:\MCC18\src\traditional\proc\p18F97J60.asm
                   RCSTA2   0x000f6b       data     extern C:\MCC18\src\traditional\proc\p18F97J60.asm
               RCSTA2bits   0x000f6b       data     extern C:\MCC18\src\traditional\proc\p18F97J60.asm
                   TXSTA2   0x000f6c       data     extern C:\MCC18\src\traditional\proc\p18F97J60.asm
               TXSTA2bits   0x000f6c       data     extern C:\MCC18\src\traditional\proc\p18F97J60.asm
                   TXREG2   0x000f6d       data     extern C:\MCC18\src\traditional\proc\p18F97J60.asm
                   RCREG2   0x000f6e       data     extern C:\MCC18\src\traditional\proc\p18F97J60.asm
                   SPBRG2   0x000f6f       data     extern C:\MCC18\src\traditional\proc\p18F97J60.asm
              CCP5CONbits   0x000f70       data     extern C:\MCC18\src\traditional\proc\p18F97J60.asm
                  CCP5CON   0x000f70       data     extern C:\MCC18\src\traditional\proc\p18F97J60.asm
                    CCPR5   0x000f71       data     extern C:\MCC18\src\traditional\proc\p18F97J60.asm
                   CCPR5L   0x000f71       data     extern C:\MCC18\src\traditional\proc\p18F97J60.asm
                   CCPR5H   0x000f72       data     extern C:\MCC18\src\traditional\proc\p18F97J60.asm
                  CCP4CON   0x000f73       data     extern C:\MCC18\src\traditional\proc\p18F97J60.asm
              CCP4CONbits   0x000f73       data     extern C:\MCC18\src\traditional\proc\p18F97J60.asm
                    CCPR4   0x000f74       data     extern C:\MCC18\src\traditional\proc\p18F97J60.asm
                   CCPR4L   0x000f74       data     extern C:\MCC18\src\traditional\proc\p18F97J60.asm
                   CCPR4H   0x000f75       data     extern C:\MCC18\src\traditional\proc\p18F97J60.asm
                    T4CON   0x000f76       data     extern C:\MCC18\src\traditional\proc\p18F97J60.asm
                T4CONbits   0x000f76       data     extern C:\MCC18\src\traditional\proc\p18F97J60.asm
                      PR4   0x000f77       data     extern C:\MCC18\src\traditional\proc\p18F97J60.asm
                     TMR4   0x000f78       data     extern C:\MCC18\src\traditional\proc\p18F97J60.asm
                 ECCP1DEL   0x000f79       data     extern C:\MCC18\src\traditional\proc\p18F97J60.asm
             ECCP1DELbits   0x000f79       data     extern C:\MCC18\src\traditional\proc\p18F97J60.asm
                   ERDPTL   0x000f7a       data     extern C:\MCC18\src\traditional\proc\p18F97J60.asm
                    ERDPT   0x000f7a       data     extern C:\MCC18\src\traditional\proc\p18F97J60.asm
                   ERDPTH   0x000f7b       data     extern C:\MCC18\src\traditional\proc\p18F97J60.asm
                 BAUDCON2   0x000f7c       data     extern C:\MCC18\src\traditional\proc\p18F97J60.asm
             BAUDCON2bits   0x000f7c       data     extern C:\MCC18\src\traditional\proc\p18F97J60.asm
                 BAUDCTL2   0x000f7c       data     extern C:\MCC18\src\traditional\proc\p18F97J60.asm
             BAUDCTL2bits   0x000f7c       data     extern C:\MCC18\src\traditional\proc\p18F97J60.asm
                  SPBRGH2   0x000f7d       data     extern C:\MCC18\src\traditional\proc\p18F97J60.asm
              BAUDCTLbits   0x000f7e       data     extern C:\MCC18\src\traditional\proc\p18F97J60.asm
             BAUDCTL1bits   0x000f7e       data     extern C:\MCC18\src\traditional\proc\p18F97J60.asm
                 BAUDCTL1   0x000f7e       data     extern C:\MCC18\src\traditional\proc\p18F97J60.asm
                  BAUDCTL   0x000f7e       data     extern C:\MCC18\src\traditional\proc\p18F97J60.asm
              BAUDCONbits   0x000f7e       data     extern C:\MCC18\src\traditional\proc\p18F97J60.asm
             BAUDCON1bits   0x000f7e       data     extern C:\MCC18\src\traditional\proc\p18F97J60.asm
                 BAUDCON1   0x000f7e       data     extern C:\MCC18\src\traditional\proc\p18F97J60.asm
                  BAUDCON   0x000f7e       data     extern C:\MCC18\src\traditional\proc\p18F97J60.asm
                  SPBRGH1   0x000f7f       data     extern C:\MCC18\src\traditional\proc\p18F97J60.asm
                   SPBRGH   0x000f7f       data     extern C:\MCC18\src\traditional\proc\p18F97J60.asm
                    PORTA   0x000f80       data     extern C:\MCC18\src\traditional\proc\p18F97J60.asm
                PORTAbits   0x000f80       data     extern C:\MCC18\src\traditional\proc\p18F97J60.asm
                PORTBbits   0x000f81       data     extern C:\MCC18\src\traditional\proc\p18F97J60.asm
                    PORTB   0x000f81       data     extern C:\MCC18\src\traditional\proc\p18F97J60.asm
                PORTCbits   0x000f82       data     extern C:\MCC18\src\traditional\proc\p18F97J60.asm
                    PORTC   0x000f82       data     extern C:\MCC18\src\traditional\proc\p18F97J60.asm
                    PORTD   0x000f83       data     extern C:\MCC18\src\traditional\proc\p18F97J60.asm
                PORTDbits   0x000f83       data     extern C:\MCC18\src\traditional\proc\p18F97J60.asm
                    PORTE   0x000f84       data     extern C:\MCC18\src\traditional\proc\p18F97J60.asm
                PORTEbits   0x000f84       data     extern C:\MCC18\src\traditional\proc\p18F97J60.asm
                PORTFbits   0x000f85       data     extern C:\MCC18\src\traditional\proc\p18F97J60.asm
                    PORTF   0x000f85       data     extern C:\MCC18\src\traditional\proc\p18F97J60.asm
                PORTGbits   0x000f86       data     extern C:\MCC18\src\traditional\proc\p18F97J60.asm
                    PORTG   0x000f86       data     extern C:\MCC18\src\traditional\proc\p18F97J60.asm
                PORTHbits   0x000f87       data     extern C:\MCC18\src\traditional\proc\p18F97J60.asm
                    PORTH   0x000f87       data     extern C:\MCC18\src\traditional\proc\p18F97J60.asm
                    PORTJ   0x000f88       data     extern C:\MCC18\src\traditional\proc\p18F97J60.asm
                PORTJbits   0x000f88       data     extern C:\MCC18\src\traditional\proc\p18F97J60.asm
                     LATA   0x000f89       data     extern C:\MCC18\src\traditional\proc\p18F97J60.asm
                 LATAbits   0x000f89       data     extern C:\MCC18\src\traditional\proc\p18F97J60.asm
                 LATBbits   0x000f8a       data     extern C:\MCC18\src\traditional\proc\p18F97J60.asm
                     LATB   0x000f8a       data     extern C:\MCC18\src\traditional\proc\p18F97J60.asm
                     LATC   0x000f8b       data     extern C:\MCC18\src\traditional\proc\p18F97J60.asm
                 LATCbits   0x000f8b       data     extern C:\MCC18\src\traditional\proc\p18F97J60.asm
                     LATD   0x000f8c       data     extern C:\MCC18\src\traditional\proc\p18F97J60.asm
                 LATDbits   0x000f8c       data     extern C:\MCC18\src\traditional\proc\p18F97J60.asm
                     LATE   0x000f8d       data     extern C:\MCC18\src\traditional\proc\p18F97J60.asm
                 LATEbits   0x000f8d       data     extern C:\MCC18\src\traditional\proc\p18F97J60.asm
                     LATF   0x000f8e       data     extern C:\MCC18\src\traditional\proc\p18F97J60.asm
                 LATFbits   0x000f8e       data     extern C:\MCC18\src\traditional\proc\p18F97J60.asm
                     LATG   0x000f8f       data     extern C:\MCC18\src\traditional\proc\p18F97J60.asm
                 LATGbits   0x000f8f       data     extern C:\MCC18\src\traditional\proc\p18F97J60.asm
                     LATH   0x000f90       data     extern C:\MCC18\src\traditional\proc\p18F97J60.asm
                 LATHbits   0x000f90       data     extern C:\MCC18\src\traditional\proc\p18F97J60.asm
                     LATJ   0x000f91       data     extern C:\MCC18\src\traditional\proc\p18F97J60.asm
                 LATJbits   0x000f91       data     extern C:\MCC18\src\traditional\proc\p18F97J60.asm
                    TRISA   0x000f92       data     extern C:\MCC18\src\traditional\proc\p18F97J60.asm
                TRISAbits   0x000f92       data     extern C:\MCC18\src\traditional\proc\p18F97J60.asm
                 DDRAbits   0x000f92       data     extern C:\MCC18\src\traditional\proc\p18F97J60.asm
                     DDRA   0x000f92       data     extern C:\MCC18\src\traditional\proc\p18F97J60.asm
                 DDRBbits   0x000f93       data     extern C:\MCC18\src\traditional\proc\p18F97J60.asm
                    TRISB   0x000f93       data     extern C:\MCC18\src\traditional\proc\p18F97J60.asm
                TRISBbits   0x000f93       data     extern C:\MCC18\src\traditional\proc\p18F97J60.asm
                     DDRB   0x000f93       data     extern C:\MCC18\src\traditional\proc\p18F97J60.asm
                     DDRC   0x000f94       data     extern C:\MCC18\src\traditional\proc\p18F97J60.asm
                    TRISC   0x000f94       data     extern C:\MCC18\src\traditional\proc\p18F97J60.asm
                TRISCbits   0x000f94       data     extern C:\MCC18\src\traditional\proc\p18F97J60.asm
                 DDRCbits   0x000f94       data     extern C:\MCC18\src\traditional\proc\p18F97J60.asm
                TRISDbits   0x000f95       data     extern C:\MCC18\src\traditional\proc\p18F97J60.asm
                    TRISD   0x000f95       data     extern C:\MCC18\src\traditional\proc\p18F97J60.asm
                     DDRD   0x000f95       data     extern C:\MCC18\src\traditional\proc\p18F97J60.asm
                 DDRDbits   0x000f95       data     extern C:\MCC18\src\traditional\proc\p18F97J60.asm
                     DDRE   0x000f96       data     extern C:\MCC18\src\traditional\proc\p18F97J60.asm
                 DDREbits   0x000f96       data     extern C:\MCC18\src\traditional\proc\p18F97J60.asm
                    TRISE   0x000f96       data     extern C:\MCC18\src\traditional\proc\p18F97J60.asm
                TRISEbits   0x000f96       data     extern C:\MCC18\src\traditional\proc\p18F97J60.asm
                     DDRF   0x000f97       data     extern C:\MCC18\src\traditional\proc\p18F97J60.asm
                 DDRFbits   0x000f97       data     extern C:\MCC18\src\traditional\proc\p18F97J60.asm
                    TRISF   0x000f97       data     extern C:\MCC18\src\traditional\proc\p18F97J60.asm
                TRISFbits   0x000f97       data     extern C:\MCC18\src\traditional\proc\p18F97J60.asm
                 DDRGbits   0x000f98       data     extern C:\MCC18\src\traditional\proc\p18F97J60.asm
                     DDRG   0x000f98       data     extern C:\MCC18\src\traditional\proc\p18F97J60.asm
                    TRISG   0x000f98       data     extern C:\MCC18\src\traditional\proc\p18F97J60.asm
                TRISGbits   0x000f98       data     extern C:\MCC18\src\traditional\proc\p18F97J60.asm
                    TRISH   0x000f99       data     extern C:\MCC18\src\traditional\proc\p18F97J60.asm
                TRISHbits   0x000f99       data     extern C:\MCC18\src\traditional\proc\p18F97J60.asm
                 DDRHbits   0x000f99       data     extern C:\MCC18\src\traditional\proc\p18F97J60.asm
                     DDRH   0x000f99       data     extern C:\MCC18\src\traditional\proc\p18F97J60.asm
                 DDRJbits   0x000f9a       data     extern C:\MCC18\src\traditional\proc\p18F97J60.asm
                     DDRJ   0x000f9a       data     extern C:\MCC18\src\traditional\proc\p18F97J60.asm
                TRISJbits   0x000f9a       data     extern C:\MCC18\src\traditional\proc\p18F97J60.asm
                    TRISJ   0x000f9a       data     extern C:\MCC18\src\traditional\proc\p18F97J60.asm
              OSCTUNEbits   0x000f9b       data     extern C:\MCC18\src\traditional\proc\p18F97J60.asm
                  OSCTUNE   0x000f9b       data     extern C:\MCC18\src\traditional\proc\p18F97J60.asm
               MEMCONbits   0x000f9c       data     extern C:\MCC18\src\traditional\proc\p18F97J60.asm
                   MEMCON   0x000f9c       data     extern C:\MCC18\src\traditional\proc\p18F97J60.asm
                 PIE1bits   0x000f9d       data     extern C:\MCC18\src\traditional\proc\p18F97J60.asm
                     PIE1   0x000f9d       data     extern C:\MCC18\src\traditional\proc\p18F97J60.asm
                 PIR1bits   0x000f9e       data     extern C:\MCC18\src\traditional\proc\p18F97J60.asm
                     PIR1   0x000f9e       data     extern C:\MCC18\src\traditional\proc\p18F97J60.asm
                     IPR1   0x000f9f       data     extern C:\MCC18\src\traditional\proc\p18F97J60.asm
                 IPR1bits   0x000f9f       data     extern C:\MCC18\src\traditional\proc\p18F97J60.asm
                 PIE2bits   0x000fa0       data     extern C:\MCC18\src\traditional\proc\p18F97J60.asm
                     PIE2   0x000fa0       data     extern C:\MCC18\src\traditional\proc\p18F97J60.asm
                 PIR2bits   0x000fa1       data     extern C:\MCC18\src\traditional\proc\p18F97J60.asm
                     PIR2   0x000fa1       data     extern C:\MCC18\src\traditional\proc\p18F97J60.asm
                 IPR2bits   0x000fa2       data     extern C:\MCC18\src\traditional\proc\p18F97J60.asm
                     IPR2   0x000fa2       data     extern C:\MCC18\src\traditional\proc\p18F97J60.asm
                 PIE3bits   0x000fa3       data     extern C:\MCC18\src\traditional\proc\p18F97J60.asm
                     PIE3   0x000fa3       data     extern C:\MCC18\src\traditional\proc\p18F97J60.asm
                 PIR3bits   0x000fa4       data     extern C:\MCC18\src\traditional\proc\p18F97J60.asm
                     PIR3   0x000fa4       data     extern C:\MCC18\src\traditional\proc\p18F97J60.asm
                 IPR3bits   0x000fa5       data     extern C:\MCC18\src\traditional\proc\p18F97J60.asm
                     IPR3   0x000fa5       data     extern C:\MCC18\src\traditional\proc\p18F97J60.asm
                   EECON1   0x000fa6       data     extern C:\MCC18\src\traditional\proc\p18F97J60.asm
               EECON1bits   0x000fa6       data     extern C:\MCC18\src\traditional\proc\p18F97J60.asm
                   EECON2   0x000fa7       data     extern C:\MCC18\src\traditional\proc\p18F97J60.asm
                    RCSTA   0x000fab       data     extern C:\MCC18\src\traditional\proc\p18F97J60.asm
                   RCSTA1   0x000fab       data     extern C:\MCC18\src\traditional\proc\p18F97J60.asm
               RCSTA1bits   0x000fab       data     extern C:\MCC18\src\traditional\proc\p18F97J60.asm
                RCSTAbits   0x000fab       data     extern C:\MCC18\src\traditional\proc\p18F97J60.asm
               TXSTA1bits   0x000fac       data     extern C:\MCC18\src\traditional\proc\p18F97J60.asm
                   TXSTA1   0x000fac       data     extern C:\MCC18\src\traditional\proc\p18F97J60.asm
                    TXSTA   0x000fac       data     extern C:\MCC18\src\traditional\proc\p18F97J60.asm
                TXSTAbits   0x000fac       data     extern C:\MCC18\src\traditional\proc\p18F97J60.asm
                   TXREG1   0x000fad       data     extern C:\MCC18\src\traditional\proc\p18F97J60.asm
                    TXREG   0x000fad       data     extern C:\MCC18\src\traditional\proc\p18F97J60.asm
                   RCREG1   0x000fae       data     extern C:\MCC18\src\traditional\proc\p18F97J60.asm
                    RCREG   0x000fae       data     extern C:\MCC18\src\traditional\proc\p18F97J60.asm
                   SPBRG1   0x000faf       data     extern C:\MCC18\src\traditional\proc\p18F97J60.asm
                    SPBRG   0x000faf       data     extern C:\MCC18\src\traditional\proc\p18F97J60.asm
               PSPCONbits   0x000fb0       data     extern C:\MCC18\src\traditional\proc\p18F97J60.asm
                   PSPCON   0x000fb0       data     extern C:\MCC18\src\traditional\proc\p18F97J60.asm
                    T3CON   0x000fb1       data     extern C:\MCC18\src\traditional\proc\p18F97J60.asm
                T3CONbits   0x000fb1       data     extern C:\MCC18\src\traditional\proc\p18F97J60.asm
                    TMR3L   0x000fb2       data     extern C:\MCC18\src\traditional\proc\p18F97J60.asm
                    TMR3H   0x000fb3       data     extern C:\MCC18\src\traditional\proc\p18F97J60.asm
                CMCONbits   0x000fb4       data     extern C:\MCC18\src\traditional\proc\p18F97J60.asm
                    CMCON   0x000fb4       data     extern C:\MCC18\src\traditional\proc\p18F97J60.asm
               CVRCONbits   0x000fb5       data     extern C:\MCC18\src\traditional\proc\p18F97J60.asm
                   CVRCON   0x000fb5       data     extern C:\MCC18\src\traditional\proc\p18F97J60.asm
              ECCP1ASbits   0x000fb6       data     extern C:\MCC18\src\traditional\proc\p18F97J60.asm
                  ECCP1AS   0x000fb6       data     extern C:\MCC18\src\traditional\proc\p18F97J60.asm
             ECCP3CONbits   0x000fb7       data     extern C:\MCC18\src\traditional\proc\p18F97J60.asm
                 ECCP3CON   0x000fb7       data     extern C:\MCC18\src\traditional\proc\p18F97J60.asm
                  CCP3CON   0x000fb7       data     extern C:\MCC18\src\traditional\proc\p18F97J60.asm
              CCP3CONbits   0x000fb7       data     extern C:\MCC18\src\traditional\proc\p18F97J60.asm
                   CCPR3L   0x000fb8       data     extern C:\MCC18\src\traditional\proc\p18F97J60.asm
                    CCPR3   0x000fb8       data     extern C:\MCC18\src\traditional\proc\p18F97J60.asm
                   CCPR3H   0x000fb9       data     extern C:\MCC18\src\traditional\proc\p18F97J60.asm
                  CCP2CON   0x000fba       data     extern C:\MCC18\src\traditional\proc\p18F97J60.asm
              CCP2CONbits   0x000fba       data     extern C:\MCC18\src\traditional\proc\p18F97J60.asm
             ECCP2CONbits   0x000fba       data     extern C:\MCC18\src\traditional\proc\p18F97J60.asm
                 ECCP2CON   0x000fba       data     extern C:\MCC18\src\traditional\proc\p18F97J60.asm
                   CCPR2L   0x000fbb       data     extern C:\MCC18\src\traditional\proc\p18F97J60.asm
                    CCPR2   0x000fbb       data     extern C:\MCC18\src\traditional\proc\p18F97J60.asm
                   CCPR2H   0x000fbc       data     extern C:\MCC18\src\traditional\proc\p18F97J60.asm
                 ECCP1CON   0x000fbd       data     extern C:\MCC18\src\traditional\proc\p18F97J60.asm
             ECCP1CONbits   0x000fbd       data     extern C:\MCC18\src\traditional\proc\p18F97J60.asm
              CCP1CONbits   0x000fbd       data     extern C:\MCC18\src\traditional\proc\p18F97J60.asm
                  CCP1CON   0x000fbd       data     extern C:\MCC18\src\traditional\proc\p18F97J60.asm
                    CCPR1   0x000fbe       data     extern C:\MCC18\src\traditional\proc\p18F97J60.asm
                   CCPR1L   0x000fbe       data     extern C:\MCC18\src\traditional\proc\p18F97J60.asm
                   CCPR1H   0x000fbf       data     extern C:\MCC18\src\traditional\proc\p18F97J60.asm
                   ADCON2   0x000fc0       data     extern C:\MCC18\src\traditional\proc\p18F97J60.asm
               ADCON2bits   0x000fc0       data     extern C:\MCC18\src\traditional\proc\p18F97J60.asm
                   ADCON1   0x000fc1       data     extern C:\MCC18\src\traditional\proc\p18F97J60.asm
               ADCON1bits   0x000fc1       data     extern C:\MCC18\src\traditional\proc\p18F97J60.asm
                   ADCON0   0x000fc2       data     extern C:\MCC18\src\traditional\proc\p18F97J60.asm
               ADCON0bits   0x000fc2       data     extern C:\MCC18\src\traditional\proc\p18F97J60.asm
                    ADRES   0x000fc3       data     extern C:\MCC18\src\traditional\proc\p18F97J60.asm
                   ADRESL   0x000fc3       data     extern C:\MCC18\src\traditional\proc\p18F97J60.asm
                   ADRESH   0x000fc4       data     extern C:\MCC18\src\traditional\proc\p18F97J60.asm
              SSPCON2bits   0x000fc5       data     extern C:\MCC18\src\traditional\proc\p18F97J60.asm
                  SSPCON2   0x000fc5       data     extern C:\MCC18\src\traditional\proc\p18F97J60.asm
             SSP1CON2bits   0x000fc5       data     extern C:\MCC18\src\traditional\proc\p18F97J60.asm
                 SSP1CON2   0x000fc5       data     extern C:\MCC18\src\traditional\proc\p18F97J60.asm
                 SSP1CON1   0x000fc6       data     extern C:\MCC18\src\traditional\proc\p18F97J60.asm
                  SSPCON1   0x000fc6       data     extern C:\MCC18\src\traditional\proc\p18F97J60.asm
              SSPCON1bits   0x000fc6       data     extern C:\MCC18\src\traditional\proc\p18F97J60.asm
             SSP1CON1bits   0x000fc6       data     extern C:\MCC18\src\traditional\proc\p18F97J60.asm
                 SSP1STAT   0x000fc7       data     extern C:\MCC18\src\traditional\proc\p18F97J60.asm
             SSP1STATbits   0x000fc7       data     extern C:\MCC18\src\traditional\proc\p18F97J60.asm
                  SSPSTAT   0x000fc7       data     extern C:\MCC18\src\traditional\proc\p18F97J60.asm
              SSPSTATbits   0x000fc7       data     extern C:\MCC18\src\traditional\proc\p18F97J60.asm
                  SSP1ADD   0x000fc8       data     extern C:\MCC18\src\traditional\proc\p18F97J60.asm
                   SSPADD   0x000fc8       data     extern C:\MCC18\src\traditional\proc\p18F97J60.asm
                   SSPBUF   0x000fc9       data     extern C:\MCC18\src\traditional\proc\p18F97J60.asm
                  SSP1BUF   0x000fc9       data     extern C:\MCC18\src\traditional\proc\p18F97J60.asm
                    T2CON   0x000fca       data     extern C:\MCC18\src\traditional\proc\p18F97J60.asm
                T2CONbits   0x000fca       data     extern C:\MCC18\src\traditional\proc\p18F97J60.asm
                      PR2   0x000fcb       data     extern C:\MCC18\src\traditional\proc\p18F97J60.asm
                     TMR2   0x000fcc       data     extern C:\MCC18\src\traditional\proc\p18F97J60.asm
                T1CONbits   0x000fcd       data     extern C:\MCC18\src\traditional\proc\p18F97J60.asm
                    T1CON   0x000fcd       data     extern C:\MCC18\src\traditional\proc\p18F97J60.asm
                    TMR1L   0x000fce       data     extern C:\MCC18\src\traditional\proc\p18F97J60.asm
                    TMR1H   0x000fcf       data     extern C:\MCC18\src\traditional\proc\p18F97J60.asm
                 RCONbits   0x000fd0       data     extern C:\MCC18\src\traditional\proc\p18F97J60.asm
                     RCON   0x000fd0       data     extern C:\MCC18\src\traditional\proc\p18F97J60.asm
                   WDTCON   0x000fd1       data     extern C:\MCC18\src\traditional\proc\p18F97J60.asm
               WDTCONbits   0x000fd1       data     extern C:\MCC18\src\traditional\proc\p18F97J60.asm
                    ECON1   0x000fd2       data     extern C:\MCC18\src\traditional\proc\p18F97J60.asm
                ECON1bits   0x000fd2       data     extern C:\MCC18\src\traditional\proc\p18F97J60.asm
               OSCCONbits   0x000fd3       data     extern C:\MCC18\src\traditional\proc\p18F97J60.asm
                   OSCCON   0x000fd3       data     extern C:\MCC18\src\traditional\proc\p18F97J60.asm
                T0CONbits   0x000fd5       data     extern C:\MCC18\src\traditional\proc\p18F97J60.asm
                    T0CON   0x000fd5       data     extern C:\MCC18\src\traditional\proc\p18F97J60.asm
                    TMR0L   0x000fd6       data     extern C:\MCC18\src\traditional\proc\p18F97J60.asm
                    TMR0H   0x000fd7       data     extern C:\MCC18\src\traditional\proc\p18F97J60.asm
               STATUSbits   0x000fd8       data     extern C:\MCC18\src\traditional\proc\p18F97J60.asm
                   STATUS   0x000fd8       data     extern C:\MCC18\src\traditional\proc\p18F97J60.asm
                    FSR2L   0x000fd9       data     extern C:\MCC18\src\traditional\proc\p18F97J60.asm
                     FSR2   0x000fd9       data     extern C:\MCC18\src\traditional\proc\p18F97J60.asm
                    FSR2H   0x000fda       data     extern C:\MCC18\src\traditional\proc\p18F97J60.asm
                   PLUSW2   0x000fdb       data     extern C:\MCC18\src\traditional\proc\p18F97J60.asm
                  PREINC2   0x000fdc       data     extern C:\MCC18\src\traditional\proc\p18F97J60.asm
                 POSTDEC2   0x000fdd       data     extern C:\MCC18\src\traditional\proc\p18F97J60.asm
                 POSTINC2   0x000fde       data     extern C:\MCC18\src\traditional\proc\p18F97J60.asm
                    INDF2   0x000fdf       data     extern C:\MCC18\src\traditional\proc\p18F97J60.asm
                      BSR   0x000fe0       data     extern C:\MCC18\src\traditional\proc\p18F97J60.asm
                    FSR1L   0x000fe1       data     extern C:\MCC18\src\traditional\proc\p18F97J60.asm
                     FSR1   0x000fe1       data     extern C:\MCC18\src\traditional\proc\p18F97J60.asm
                    FSR1H   0x000fe2       data     extern C:\MCC18\src\traditional\proc\p18F97J60.asm
                   PLUSW1   0x000fe3       data     extern C:\MCC18\src\traditional\proc\p18F97J60.asm
                  PREINC1   0x000fe4       data     extern C:\MCC18\src\traditional\proc\p18F97J60.asm
                 POSTDEC1   0x000fe5       data     extern C:\MCC18\src\traditional\proc\p18F97J60.asm
                 POSTINC1   0x000fe6       data     extern C:\MCC18\src\traditional\proc\p18F97J60.asm
                    INDF1   0x000fe7       data     extern C:\MCC18\src\traditional\proc\p18F97J60.asm
                     WREG   0x000fe8       data     extern C:\MCC18\src\traditional\proc\p18F97J60.asm
                    FSR0L   0x000fe9       data     extern C:\MCC18\src\traditional\proc\p18F97J60.asm
                     FSR0   0x000fe9       data     extern C:\MCC18\src\traditional\proc\p18F97J60.asm
                    FSR0H   0x000fea       data     extern C:\MCC18\src\traditional\proc\p18F97J60.asm
                   PLUSW0   0x000feb       data     extern C:\MCC18\src\traditional\proc\p18F97J60.asm
                  PREINC0   0x000fec       data     extern C:\MCC18\src\traditional\proc\p18F97J60.asm
                 POSTDEC0   0x000fed       data     extern C:\MCC18\src\traditional\proc\p18F97J60.asm
                 POSTINC0   0x000fee       data     extern C:\MCC18\src\traditional\proc\p18F97J60.asm
                    INDF0   0x000fef       data     extern C:\MCC18\src\traditional\proc\p18F97J60.asm
                  INTCON3   0x000ff0       data     extern C:\MCC18\src\traditional\proc\p18F97J60.asm
              INTCON3bits   0x000ff0       data     extern C:\MCC18\src\traditional\proc\p18F97J60.asm
              INTCON2bits   0x000ff1       data     extern C:\MCC18\src\traditional\proc\p18F97J60.asm
                  INTCON2   0x000ff1       data     extern C:\MCC18\src\traditional\proc\p18F97J60.asm
                   INTCON   0x000ff2       data     extern C:\MCC18\src\traditional\proc\p18F97J60.asm
               INTCONbits   0x000ff2       data     extern C:\MCC18\src\traditional\proc\p18F97J60.asm
                     PROD   0x000ff3       data     extern C:\MCC18\src\traditional\proc\p18F97J60.asm
                    PRODL   0x000ff3       data     extern C:\MCC18\src\traditional\proc\p18F97J60.asm
                    PRODH   0x000ff4       data     extern C:\MCC18\src\traditional\proc\p18F97J60.asm
                   TABLAT   0x000ff5       data     extern C:\MCC18\src\traditional\proc\p18F97J60.asm
                   TBLPTR   0x000ff6       data     extern C:\MCC18\src\traditional\proc\p18F97J60.asm
                  TBLPTRL   0x000ff6       data     extern C:\MCC18\src\traditional\proc\p18F97J60.asm
                  TBLPTRH   0x000ff7       data     extern C:\MCC18\src\traditional\proc\p18F97J60.asm
                  TBLPTRU   0x000ff8       data     extern C:\MCC18\src\traditional\proc\p18F97J60.asm
                       PC   0x000ff9       data     extern C:\MCC18\src\traditional\proc\p18F97J60.asm
                      PCL   0x000ff9       data     extern C:\MCC18\src\traditional\proc\p18F97J60.asm
                   PCLATH   0x000ffa       data     extern C:\MCC18\src\traditional\proc\p18F97J60.asm
                   PCLATU   0x000ffb       data     extern C:\MCC18\src\traditional\proc\p18F97J60.asm
                   STKPTR   0x000ffc       data     extern C:\MCC18\src\traditional\proc\p18F97J60.asm
               STKPTRbits   0x000ffc       data     extern C:\MCC18\src\traditional\proc\p18F97J60.asm
                     TOSL   0x000ffd       data     extern C:\MCC18\src\traditional\proc\p18F97J60.asm
                      TOS   0x000ffd       data     extern C:\MCC18\src\traditional\proc\p18F97J60.asm
                     TOSH   0x000ffe       data     extern C:\MCC18\src\traditional\proc\p18F97J60.asm
                     TOSU   0x000fff       data     extern C:\MCC18\src\traditional\proc\p18F97J60.asm


